
door_lock.elf:     file format elf32-littlenios2
door_lock.elf
architecture: nios2:r1, flags 0x00000112:
EXEC_P, HAS_SYMS, D_PAGED
start address 0x00000248

Program Header:
    LOAD off    0x00001000 vaddr 0x00000000 paddr 0x00000000 align 2**12
         filesz 0x00000020 memsz 0x00000020 flags r-x
    LOAD off    0x00001020 vaddr 0x00000020 paddr 0x00000020 align 2**12
         filesz 0x0001b394 memsz 0x0001b394 flags r-x
    LOAD off    0x0001c3b4 vaddr 0x0001b3b4 paddr 0x0001d344 align 2**12
         filesz 0x00001f90 memsz 0x00001f90 flags rw-
    LOAD off    0x0001f2d4 vaddr 0x0001f2d4 paddr 0x0001f2d4 align 2**12
         filesz 0x00000000 memsz 0x00013444 flags rw-

Sections:
Idx Name          Size      VMA       LMA       File off  Algn
  0 .entry        00000020  00000000  00000000  00001000  2**5
                  CONTENTS, ALLOC, LOAD, READONLY, CODE
  1 .exceptions   00000228  00000020  00000020  00001020  2**2
                  CONTENTS, ALLOC, LOAD, READONLY, CODE
  2 .text         0001a49c  00000248  00000248  00001248  2**2
                  CONTENTS, ALLOC, LOAD, READONLY, CODE
  3 .rodata       00000cd0  0001a6e4  0001a6e4  0001b6e4  2**2
                  CONTENTS, ALLOC, LOAD, READONLY, DATA
  4 .rwdata       00001f90  0001b3b4  0001d344  0001c3b4  2**2
                  CONTENTS, ALLOC, LOAD, DATA, SMALL_DATA
  5 .bss          00013444  0001f2d4  0001f2d4  0001f2d4  2**2
                  ALLOC, SMALL_DATA
  6 .SDRAM        00000000  00032718  00032718  0001e344  2**0
                  CONTENTS
  7 .VGA_Subsystem_Char_Buf_Subsystem_Onchip_SRAM 00000000  09000000  09000000  0001e344  2**0
                  CONTENTS
  8 .comment      00000023  00000000  00000000  0001e344  2**0
                  CONTENTS, READONLY
  9 .debug_aranges 00001098  00000000  00000000  0001e368  2**3
                  CONTENTS, READONLY, DEBUGGING
 10 .debug_info   0002fcd0  00000000  00000000  0001f400  2**0
                  CONTENTS, READONLY, DEBUGGING
 11 .debug_abbrev 0000b20c  00000000  00000000  0004f0d0  2**0
                  CONTENTS, READONLY, DEBUGGING
 12 .debug_line   0000eb26  00000000  00000000  0005a2dc  2**0
                  CONTENTS, READONLY, DEBUGGING
 13 .debug_frame  0000390c  00000000  00000000  00068e04  2**2
                  CONTENTS, READONLY, DEBUGGING
 14 .debug_str    00005697  00000000  00000000  0006c710  2**0
                  CONTENTS, READONLY, DEBUGGING
 15 .debug_loc    000178aa  00000000  00000000  00071da7  2**0
                  CONTENTS, READONLY, DEBUGGING
 16 .debug_alt_sim_info 00000020  00000000  00000000  00089654  2**2
                  CONTENTS, READONLY, DEBUGGING
 17 .debug_ranges 000018f0  00000000  00000000  00089678  2**3
                  CONTENTS, READONLY, DEBUGGING
 18 .thread_model 00000006  00000000  00000000  00090841  2**0
                  CONTENTS, READONLY
 19 .cpu          00000005  00000000  00000000  00090847  2**0
                  CONTENTS, READONLY
 20 .qsys         00000001  00000000  00000000  0009084c  2**0
                  CONTENTS, READONLY
 21 .simulation_enabled 00000001  00000000  00000000  0009084d  2**0
                  CONTENTS, READONLY
 22 .sysid_hash   00000004  00000000  00000000  0009084e  2**0
                  CONTENTS, READONLY
 23 .sysid_base   00000004  00000000  00000000  00090852  2**0
                  CONTENTS, READONLY
 24 .sysid_time   00000004  00000000  00000000  00090856  2**0
                  CONTENTS, READONLY
 25 .stderr_dev   00000009  00000000  00000000  0009085a  2**0
                  CONTENTS, READONLY
 26 .stdin_dev    00000009  00000000  00000000  00090863  2**0
                  CONTENTS, READONLY
 27 .stdout_dev   00000009  00000000  00000000  0009086c  2**0
                  CONTENTS, READONLY
 28 .sopc_system_name 0000000f  00000000  00000000  00090875  2**0
                  CONTENTS, READONLY
 29 .quartus_project_dir 00000040  00000000  00000000  00090884  2**0
                  CONTENTS, READONLY
 30 .sopcinfo     001d2080  00000000  00000000  000908c4  2**0
                  CONTENTS, READONLY
SYMBOL TABLE:
00000000 l    d  .entry	00000000 .entry
00000020 l    d  .exceptions	00000000 .exceptions
00000248 l    d  .text	00000000 .text
0001a6e4 l    d  .rodata	00000000 .rodata
0001b3b4 l    d  .rwdata	00000000 .rwdata
0001f2d4 l    d  .bss	00000000 .bss
00032718 l    d  .SDRAM	00000000 .SDRAM
09000000 l    d  .VGA_Subsystem_Char_Buf_Subsystem_Onchip_SRAM	00000000 .VGA_Subsystem_Char_Buf_Subsystem_Onchip_SRAM
00000000 l    d  .comment	00000000 .comment
00000000 l    d  .debug_aranges	00000000 .debug_aranges
00000000 l    d  .debug_info	00000000 .debug_info
00000000 l    d  .debug_abbrev	00000000 .debug_abbrev
00000000 l    d  .debug_line	00000000 .debug_line
00000000 l    d  .debug_frame	00000000 .debug_frame
00000000 l    d  .debug_str	00000000 .debug_str
00000000 l    d  .debug_loc	00000000 .debug_loc
00000000 l    d  .debug_alt_sim_info	00000000 .debug_alt_sim_info
00000000 l    d  .debug_ranges	00000000 .debug_ranges
00000000 l    df *ABS*	00000000 ../door_lock_bsp//obj/HAL/src/crt0.o
00000280 l       .text	00000000 alt_after_alt_main
00000000 l    df *ABS*	00000000 alt_irq_handler.c
00000000 l    df *ABS*	00000000 alt_instruction_exception_entry.c
00000000 l    df *ABS*	00000000 hello_ucosii.c
00000000 l    df *ABS*	00000000 utils.c
00000000 l    df *ABS*	00000000 fprintf.c
00000000 l    df *ABS*	00000000 impure.c
0001b4c4 l     O .rwdata	00000424 impure_data
00000000 l    df *ABS*	00000000 puts.c
00000000 l    df *ABS*	00000000 strlen.c
00000000 l    df *ABS*	00000000 vfprintf.c
0001ae96 l     O .rodata	00000010 zeroes.4404
00003e50 l     F .text	000000bc __sbprintf
0001aea6 l     O .rodata	00000010 blanks.4403
00000000 l    df *ABS*	00000000 wsetup.c
00000000 l    df *ABS*	00000000 dtoa.c
00004060 l     F .text	00000200 quorem
00000000 l    df *ABS*	00000000 fflush.c
00000000 l    df *ABS*	00000000 findfp.c
00005b90 l     F .text	00000008 __fp_unlock
00005ba4 l     F .text	0000019c __sinit.part.1
00005d40 l     F .text	00000008 __fp_lock
00000000 l    df *ABS*	00000000 mallocr.c
00000000 l    df *ABS*	00000000 fvwrite.c
00000000 l    df *ABS*	00000000 fwalk.c
00000000 l    df *ABS*	00000000 locale.c
0001b908 l     O .rwdata	00000020 lc_ctype_charset
0001b8e8 l     O .rwdata	00000020 lc_message_charset
0001b928 l     O .rwdata	00000038 lconv
00000000 l    df *ABS*	00000000 makebuf.c
00000000 l    df *ABS*	00000000 mallocr.c
00000000 l    df *ABS*	00000000 memchr.c
00000000 l    df *ABS*	00000000 memcpy.c
00000000 l    df *ABS*	00000000 memmove.c
00000000 l    df *ABS*	00000000 memset.c
00000000 l    df *ABS*	00000000 mprec.c
0001aed4 l     O .rodata	0000000c p05.2768
00000000 l    df *ABS*	00000000 mallocr.c
00000000 l    df *ABS*	00000000 s_fpclassify.c
00000000 l    df *ABS*	00000000 sbrkr.c
00000000 l    df *ABS*	00000000 stdio.c
00000000 l    df *ABS*	00000000 strcmp.c
00000000 l    df *ABS*	00000000 vfprintf.c
0000913c l     F .text	000000fc __sprint_r.part.0
0001b008 l     O .rodata	00000010 blanks.4348
0001aff8 l     O .rodata	00000010 zeroes.4349
0000a6c8 l     F .text	000000bc __sbprintf
00000000 l    df *ABS*	00000000 writer.c
00000000 l    df *ABS*	00000000 closer.c
00000000 l    df *ABS*	00000000 mallocr.c
00000000 l    df *ABS*	00000000 fclose.c
00000000 l    df *ABS*	00000000 fputwc.c
00000000 l    df *ABS*	00000000 fstatr.c
00000000 l    df *ABS*	00000000 int_errno.c
00000000 l    df *ABS*	00000000 isattyr.c
00000000 l    df *ABS*	00000000 lseekr.c
00000000 l    df *ABS*	00000000 readr.c
00000000 l    df *ABS*	00000000 wbuf.c
00000000 l    df *ABS*	00000000 wcrtomb.c
00000000 l    df *ABS*	00000000 wctomb_r.c
00000000 l    df *ABS*	00000000 libgcc2.c
00000000 l    df *ABS*	00000000 libgcc2.c
00000000 l    df *ABS*	00000000 lib2-divmod.c
00000000 l    df *ABS*	00000000 adddf3.c
00000000 l    df *ABS*	00000000 divdf3.c
00000000 l    df *ABS*	00000000 eqdf2.c
00000000 l    df *ABS*	00000000 gedf2.c
00000000 l    df *ABS*	00000000 ledf2.c
00000000 l    df *ABS*	00000000 muldf3.c
00000000 l    df *ABS*	00000000 subdf3.c
00000000 l    df *ABS*	00000000 fixdfsi.c
00000000 l    df *ABS*	00000000 floatsidf.c
00000000 l    df *ABS*	00000000 floatunsidf.c
00000000 l    df *ABS*	00000000 libgcc2.c
00000000 l    df *ABS*	00000000 libgcc2.c
00000000 l    df *ABS*	00000000 alt_close.c
0000e384 l     F .text	0000003c alt_get_errno
00000000 l    df *ABS*	00000000 alt_dev.c
0000e490 l     F .text	0000002c alt_dev_null_write
00000000 l    df *ABS*	00000000 alt_errno.c
00000000 l    df *ABS*	00000000 alt_fstat.c
0000e4bc l     F .text	0000003c alt_get_errno
00000000 l    df *ABS*	00000000 alt_isatty.c
0000e5a8 l     F .text	0000003c alt_get_errno
00000000 l    df *ABS*	00000000 alt_load.c
0000e688 l     F .text	00000068 alt_load_section
00000000 l    df *ABS*	00000000 alt_lseek.c
0000e774 l     F .text	0000003c alt_get_errno
00000000 l    df *ABS*	00000000 alt_main.c
00000000 l    df *ABS*	00000000 alt_read.c
0000e940 l     F .text	0000003c alt_get_errno
00000000 l    df *ABS*	00000000 alt_release_fd.c
00000000 l    df *ABS*	00000000 alt_sbrk.c
0001d2b8 l     O .rwdata	00000004 heap_end
00000000 l    df *ABS*	00000000 alt_write.c
0000eb8c l     F .text	0000003c alt_get_errno
00000000 l    df *ABS*	00000000 alt_env_lock.c
0001d2bc l     O .rwdata	00000004 lockid
0001f35c l     O .bss	00000004 locks
00000000 l    df *ABS*	00000000 alt_malloc_lock.c
0001d2c0 l     O .rwdata	00000004 lockid
0001f364 l     O .bss	00000004 locks
00000000 l    df *ABS*	00000000 os_core.c
000105bc l     F .text	00000048 OS_InitMisc
00010604 l     F .text	0000006c OS_InitRdyList
00010770 l     F .text	000000e4 OS_InitTCBList
000104dc l     F .text	000000e0 OS_InitEventList
00010670 l     F .text	00000080 OS_InitTaskIdle
000106f0 l     F .text	00000080 OS_InitTaskStat
000109e0 l     F .text	00000074 OS_SchedNew
00000000 l    df *ABS*	00000000 os_dbg.c
00000000 l    df *ABS*	00000000 os_flag.c
00012700 l     F .text	000000f4 OS_FlagTaskRdy
000124c0 l     F .text	00000160 OS_FlagBlock
00000000 l    df *ABS*	00000000 os_mem.c
00000000 l    df *ABS*	00000000 os_q.c
00000000 l    df *ABS*	00000000 os_sem.c
00000000 l    df *ABS*	00000000 os_task.c
00000000 l    df *ABS*	00000000 os_time.c
00000000 l    df *ABS*	00000000 alt_sys_init.c
000167b0 l     F .text	00000034 alt_dev_reg
0001bf10 l     O .rwdata	0000106c JTAG_UART
0001cf7c l     O .rwdata	00000030 AV_Config
0001cfac l     O .rwdata	00000030 Audio_Subsystem_Audio
0001cfdc l     O .rwdata	0000002c Char_LCD_16x2
0001d008 l     O .rwdata	0000002c IrDA
0001d034 l     O .rwdata	00000038 PS2_Port
0001d06c l     O .rwdata	00000038 PS2_Port_Dual
0001d0a4 l     O .rwdata	0000002c Serial_Port
0001d0d0 l     O .rwdata	00000034 USB
0001d104 l     O .rwdata	0000005c VGA_Subsystem_Char_Buf_Subsystem_Char_Buf_DMA
0001d160 l     O .rwdata	0000005c VGA_Subsystem_VGA_Pixel_DMA
0001d1bc l     O .rwdata	0000005c Video_In_Subsystem_Video_In_DMA
0001d218 l     O .rwdata	00000044 VGA_Subsystem_VGA_Pixel_RGB_Resampler
0001d25c l     O .rwdata	0000002c SD_Card
00000000 l    df *ABS*	00000000 altera_avalon_jtag_uart_fd.c
00000000 l    df *ABS*	00000000 altera_avalon_jtag_uart_init.c
00017428 l     F .text	000002a8 altera_avalon_jtag_uart_irq
000176d0 l     F .text	00000104 altera_avalon_jtag_uart_timeout
00000000 l    df *ABS*	00000000 altera_avalon_jtag_uart_ioctl.c
00000000 l    df *ABS*	00000000 altera_avalon_jtag_uart_read.c
00000000 l    df *ABS*	00000000 altera_avalon_jtag_uart_write.c
00000000 l    df *ABS*	00000000 altera_avalon_timer_sc.c
00017eac l     F .text	0000007c alt_avalon_timer_sc_irq
00000000 l    df *ABS*	00000000 altera_up_avalon_character_lcd.c
00000000 l    df *ABS*	00000000 altera_up_avalon_irda.c
00000000 l    df *ABS*	00000000 altera_up_avalon_ps2.c
00000000 l    df *ABS*	00000000 altera_up_avalon_rs232.c
00000000 l    df *ABS*	00000000 alt_alarm_start.c
00000000 l    df *ABS*	00000000 alt_dcache_flush_all.c
00000000 l    df *ABS*	00000000 alt_dev_llist_insert.c
000193a8 l     F .text	0000003c alt_get_errno
00000000 l    df *ABS*	00000000 alt_do_ctors.c
00000000 l    df *ABS*	00000000 alt_do_dtors.c
00000000 l    df *ABS*	00000000 alt_find_dev.c
00000000 l    df *ABS*	00000000 alt_icache_flush_all.c
00000000 l    df *ABS*	00000000 alt_io_redirect.c
0001960c l     F .text	000000c4 alt_open_fd
00000000 l    df *ABS*	00000000 alt_irq_register.c
00000000 l    df *ABS*	00000000 alt_irq_vars.c
00000000 l    df *ABS*	00000000 alt_open.c
000198cc l     F .text	0000003c alt_get_errno
00019908 l     F .text	000000c4 alt_file_locked
00000000 l    df *ABS*	00000000 alt_tick.c
00000000 l    df *ABS*	00000000 altera_nios2_gen2_irq.c
00000000 l    df *ABS*	00000000 os_cpu_a.o
00000040 l       *ABS*	00000000 OSCtxSw_SWITCH_PC
00000000 l    df *ABS*	00000000 os_cpu_c.c
00000014 l       *ABS*	00000000 OSTCBNext_OFFSET
00000032 l       *ABS*	00000000 OSTCBPrio_OFFSET
00000000 l       *ABS*	00000000 OSTCBStkPtr_OFFSET
00000000 l    df *ABS*	00000000 alt_find_file.c
00000000 l    df *ABS*	00000000 alt_get_fd.c
00000000 l    df *ABS*	00000000 alt_icache_flush.c
00000000 l    df *ABS*	00000000 atexit.c
00000000 l    df *ABS*	00000000 exit.c
00000000 l    df *ABS*	00000000 memcmp.c
00000000 l    df *ABS*	00000000 __atexit.c
00000000 l    df *ABS*	00000000 __call_atexit.c
00000000 l    df *ABS*	00000000 alt_exit.c
0001f3c8 g     O .bss	00000004 alt_instruction_exception_handler
00008780 g     F .text	00000074 _mprec_log10
0001d30e g     O .rwdata	00000002 OSTaskNameSize
0000886c g     F .text	0000008c __any_on
0000ac64 g     F .text	00000054 _isatty_r
0001aee0 g     O .rodata	00000028 __mprec_tinytens
0000e884 g     F .text	000000bc alt_main
00001ad0 g     F .text	000000c0 _puts_r
00032618 g     O .bss	00000100 alt_irq
00018a68 g     F .text	00000060 alt_up_ps2_disable_read_interrupt
0000acb8 g     F .text	00000060 _lseek_r
00012f20 g     F .text	000000cc OS_MemInit
0001d344 g       *ABS*	00000000 __flash_rwdata_start
00016750 g     F .text	00000060 OSTimeSet
00018010 g     F .text	00000040 alt_up_character_lcd_send_cmd
0000ceb0 g     F .text	00000088 .hidden __eqdf2
0000f230 g     F .text	00000610 OSEventPendMulti
00032718 g       *ABS*	00000000 __alt_heap_start
00019f14 g     F .text	00000024 OSTaskCreateHook
0001d2e6 g     O .rwdata	00000002 OSMboxEn
0000f898 g     F .text	0000004c OSIntEnter
0000aed0 g     F .text	0000009c _wcrtomb_r
00008ffc g     F .text	0000005c __sseek
00005ee0 g     F .text	00000010 __sinit
0000ad78 g     F .text	00000140 __swbuf_r
00018880 g     F .text	00000034 read_CE_bit
0001d2f6 g     O .rwdata	00000002 OSQEn
000069a8 g     F .text	0000007c _setlocale_r
00005d48 g     F .text	00000068 __sfmoreglue
0000ef04 g     F .text	000000cc __malloc_unlock
0001f2d4 g     O .bss	00000004 PS2_num
00019f7c g     F .text	00000020 OSTaskStatHook
00018c08 g     F .text	0000009c alt_up_ps2_read_data_byte_timeout
000190fc g     F .text	00000090 alt_up_rs232_read_fd
0001f36c g     O .bss	00000001 OSLockNesting
0001d334 g     O .rwdata	00000002 OSDataSize
0001f36d g     O .bss	00000001 OSRunning
0001f3f4 g     O .bss	00002000 task_state_timer_stk
00007678 g     F .text	0000015c memmove
00019fbc g     F .text	00000020 OSInitHookBegin
0001d32c g     O .rwdata	00000002 OSTmrSize
00005ec8 g     F .text	00000018 _cleanup
000078fc g     F .text	000000a8 _Balloc
0001f370 g     O .bss	00000004 OSIdleCtr
0000cf38 g     F .text	000000dc .hidden __gtdf2
00019cc4 g     F .text	00000024 altera_nios2_gen2_irq_init
00019d94 g       .text	00000000 OSStartTsk
00017f9c g     F .text	00000074 get_DDRAM_addr
00010d20 g     F .text	000002d4 OS_TCBInit
00000000 g     F .entry	0000001c __reset
0001d332 g     O .rwdata	00000002 OSTmrWheelTblSize
00000020 g       *ABS*	00000000 __flash_exceptions_start
0001d2d2 g     O .rwdata	00000002 OSEventSize
0001f374 g     O .bss	00000001 OSPrioHighRdy
0000ac08 g     F .text	0000005c _fstat_r
00019f38 g     F .text	00000024 OSTaskDelHook
0001f348 g     O .bss	00000004 errno
00008f78 g     F .text	00000008 __seofread
00019d74 g       .text	00000000 OSStartHighRdy
000151ec g     F .text	000001e4 OSTaskCreateExt
000018f8 g     F .text	000000e0 Get_state_name
00012008 g     F .text	00000060 OSFlagPendGetFlagsRdy
0001d312 g     O .rwdata	00000002 OSTaskStatStkSize
00011184 g     F .text	00000308 OSFlagAccept
00013558 g     F .text	000000b8 OSQFlush
00012fec g     F .text	00000140 OSQAccept
0001f354 g     O .bss	00000004 alt_argv
00025288 g       *ABS*	00000000 _gp
00015040 g     F .text	000001ac OSTaskCreate
00014b50 g     F .text	000004f0 OSTaskChangePrio
0001f368 g     O .bss	00000004 alt_heapsem
0001f2d8 g     O .bss	00000004 prev_state
00010ff4 g     F .text	00000190 OSDebugInit
000153d0 g     F .text	00000344 OSTaskDel
00000e24 g     F .text	00000260 Task_state_timer
0001bd90 g     O .rwdata	00000180 alt_fd_list
0002f3f4 g     O .bss	00000370 OSFlagTbl
000102bc g     F .text	000000b8 OS_EventTaskRemove
00019548 g     F .text	00000090 alt_find_dev
00007530 g     F .text	00000148 memcpy
0001d2fc g     O .rwdata	00000002 OSRdyTblSize
000181b8 g     F .text	00000050 alt_up_character_lcd_write_fd
00005b98 g     F .text	0000000c _cleanup_r
0000e19c g     F .text	000000dc .hidden __floatsidf
000196d0 g     F .text	0000007c alt_io_redirect
0000d014 g     F .text	000000f4 .hidden __ltdf2
0001a6e4 g       *ABS*	00000000 __DTOR_END__
00018750 g     F .text	00000090 alt_up_irda_write_fd
00019088 g     F .text	00000074 alt_up_rs232_read_data
00001b90 g     F .text	00000014 puts
0001a2b4 g     F .text	0000009c alt_exception_cause_generated_bad_addr
0000efd0 g     F .text	00000120 OSEventNameGet
0001d2e0 g     O .rwdata	00000002 OSFlagMax
00008e5c g     F .text	00000074 __fpclassifyd
000086dc g     F .text	000000a4 __ratio
0000f8e4 g     F .text	000000f8 OSIntExit
0000a6ac g     F .text	0000001c __vfiprintf_internal
0001d31a g     O .rwdata	00000002 OSTCBSize
0001b3c4 g     O .rwdata	00000100 stored_codes
0001f375 g     O .bss	00000001 OSPrioCur
0001f2dc g     O .bss	00000004 KEY2_flag
0001854c g     F .text	00000040 alt_up_irda_get_used_space_in_read_FIFO
0001792c g     F .text	000002bc altera_avalon_jtag_uart_read
0000bc60 g     F .text	00000064 .hidden __udivsi3
0000e5e4 g     F .text	000000a4 isatty
0001d300 g     O .rwdata	00000002 OSStkWidth
0001af30 g     O .rodata	000000c8 __mprec_tens
0001d2f4 g     O .rwdata	00000002 OSPtrSize
00006a24 g     F .text	0000000c __locale_charset
0001d2d4 g     O .rwdata	00000002 OSEventTblSize
000184ec g     F .text	00000060 alt_up_irda_disable_read_interrupt
00019ce8 g       .text	00000000 OSCtxSw
0001a224 g     F .text	00000090 alt_icache_flush
0001f344 g     O .bss	00000004 __malloc_top_pad
0001f2e0 g     O .bss	00000004 flag
000213f4 g     O .bss	00002000 task_add_code_stk
0001f378 g     O .bss	00000004 OSTCBList
0001f34c g     O .bss	00000004 alt_fd_list_lock
0001d290 g     O .rwdata	00000004 __mb_cur_max
00006a54 g     F .text	0000000c _localeconv_r
0001f2e4 g     O .bss	00000004 SEM_delete_code
00007d08 g     F .text	0000003c __i2b
00006364 g     F .text	000004bc __sfvwrite_r
0002f764 g     O .bss	00000c30 OSMemTbl
0001f37c g     O .bss	00000001 OSTickStepState
00008ed0 g     F .text	00000054 _sbrk_r
0001d2f8 g     O .rwdata	00000002 OSQMax
00030394 g     O .bss	00000800 OSTaskStatStk
00012b5c g     F .text	000000f0 OSMemNameGet
0001d2d8 g     O .rwdata	00000002 OSFlagEn
0000ad18 g     F .text	00000060 _read_r
0001d31e g     O .rwdata	00000002 OSTimeTickHookEn
00013a08 g     F .text	00000168 OSQPost
000127f4 g     F .text	000000a4 OS_FlagUnlink
0001d2b0 g     O .rwdata	00000004 alt_max_fd
00019004 g     F .text	00000044 alt_up_rs232_check_parity
000108a8 g     F .text	00000068 OS_MemCopy
00010910 g     F .text	000000d0 OS_Sched
0000a8fc g     F .text	000000f0 _fclose_r
00012a6c g     F .text	000000f0 OSMemGet
000233f4 g     O .bss	00002000 task_flash_fail_stk
0000152c g     F .text	00000088 Task_delete_code
000159fc g     F .text	000001b4 OSTaskNameSet
000188b4 g     F .text	00000030 read_num_bytes_available
0001f2e8 g     O .bss	00000004 state_timer
00005b60 g     F .text	00000030 fflush
0001f340 g     O .bss	00000004 __malloc_max_sbrked_mem
0001f380 g     O .bss	00000004 OSCtxSwCtr
00019f9c g     F .text	00000020 OSTimeTickHook
0001974c g     F .text	00000180 alt_irq_register
0001d2e2 g     O .rwdata	00000002 OSFlagNameSize
0001881c g     F .text	00000034 read_RI_bit
00010374 g     F .text	00000100 OS_EventTaskRemoveMulti
0000bd1c g     F .text	000008ac .hidden __adddf3
0001016c g     F .text	00000150 OS_EventTaskWaitMulti
00008484 g     F .text	0000010c __b2d
0001d2fa g     O .rwdata	00000002 OSQSize
0000b630 g     F .text	00000538 .hidden __umoddi3
0000e7b0 g     F .text	000000d4 lseek
000144b8 g     F .text	0000020c OSSemPend
0001f2ec g     O .bss	00000004 SEM_timer_start
0001d288 g     O .rwdata	00000004 _global_impure_ptr
000088f8 g     F .text	00000564 _realloc_r
0001d2e4 g     O .rwdata	00000002 OSLowestPrio
00032718 g       *ABS*	00000000 __bss_end
0001a01c g     F .text	00000024 OSTCBInitHook
0001d32a g     O .rwdata	00000002 OSTmrCfgTicksPerSec
00019bbc g     F .text	00000108 alt_tick
0000b0b8 g     F .text	00000578 .hidden __udivdi3
0000ab64 g     F .text	00000024 _fputwc_r
0001d2cc g     O .rwdata	00000002 OSEventEn
0001af08 g     O .rodata	00000028 __mprec_bigtens
00007aec g     F .text	00000104 __s2b
0001d326 g     O .rwdata	00000002 OSTmrCfgNameSize
0000e278 g     F .text	000000a8 .hidden __floatunsidf
000081c4 g     F .text	00000060 __mcmp
00018918 g     F .text	0000002c read_data_byte
00005f00 g     F .text	00000018 __fp_lock_all
00012620 g     F .text	000000e0 OS_FlagInit
0001f2f0 g     O .bss	00000004 state
00019b20 g     F .text	0000009c alt_alarm_stop
00018850 g     F .text	00000030 read_RE_bit
0001d308 g     O .rwdata	00000002 OSTaskIdleStkSize
000019d8 g     F .text	000000ac Check_KEYs
0001f3bc g     O .bss	00000004 alt_irq_active
000140f0 g     F .text	000000b0 OSSemAccept
00012d60 g     F .text	000000d8 OSMemPut
0001f2f4 g     O .bss	00000004 SEM_read_PS2_done
00012898 g     F .text	000001d4 OSMemCreate
0001f384 g     O .bss	00000004 OSIdleCtrMax
00001158 g     F .text	000000c4 Task_flash_fail
0001858c g     F .text	0000003c alt_up_irda_get_available_space_in_write_FIFO
000000fc g     F .exceptions	000000d8 alt_irq_handler
0001bd68 g     O .rwdata	00000028 alt_dev_null
0001d31c g     O .rwdata	00000002 OSTicksPerSec
0001f2f8 g     O .bss	00000004 KEY_val
00018458 g     F .text	00000038 alt_up_character_lcd_cursor_blink_on
00019ce8 g       .text	00000000 OSIntCtxSw
00018ac8 g     F .text	00000074 alt_up_ps2_write_data_byte
00019388 g     F .text	00000020 alt_dcache_flush_all
00007bf0 g     F .text	00000068 __hi0bits
000253f4 g     O .bss	00002000 task_flash_success_stk
0000e11c g     F .text	00000080 .hidden __fixdfsi
0001b3b4 g     O .rwdata	00000010 cur_input_code
0001f388 g     O .bss	00000004 OSTCBFreeList
0001d344 g       *ABS*	00000000 __ram_rwdata_end
000146c4 g     F .text	0000016c OSSemPendAbort
000273f4 g     O .bss	00002000 task_read_ps2_stk
0001d2a8 g     O .rwdata	00000008 alt_dev_list
0000ebc8 g     F .text	000000f8 write
0001f2fc g     O .bss	00000004 SEM_flash_success
0001d320 g     O .rwdata	00000002 OSVersionNbr
0001b3b4 g       *ABS*	00000000 __ram_rodata_end
0001f300 g     O .bss	00000004 SEM_add_code
0000e4f8 g     F .text	000000b0 fstat
00001aac g     F .text	00000024 fprintf
0001918c g     F .text	00000094 alt_up_rs232_write_fd
00000000 g       *ABS*	00000000 __alt_mem_SDRAM
0000d014 g     F .text	000000f4 .hidden __ledf2
0001d2c8 g     O .rwdata	00000004 OSEndiannessTest
00007f3c g     F .text	00000140 __pow5mult
00009250 g     F .text	0000145c ___vfiprintf_internal_r
0001f338 g     O .bss	00000004 __nlocale_changed
0000bcc4 g     F .text	00000058 .hidden __umodsi3
0001d2da g     O .rwdata	00000002 OSFlagGrpSize
00032718 g       *ABS*	00000000 end
00018df8 g     F .text	00000098 alt_up_ps2_write_fd
000185c8 g     F .text	00000044 alt_up_irda_check_parity
000172ec g     F .text	0000013c altera_avalon_jtag_uart_init
00010b78 g     F .text	000000dc OS_TaskStat
000001d4 g     F .exceptions	00000074 alt_instruction_exception_entry
0001a6e4 g       *ABS*	00000000 __CTOR_LIST__
04000000 g       *ABS*	00000000 __alt_stack_pointer
00017f28 g     F .text	00000074 alt_avalon_timer_sc_init
0000e320 g     F .text	00000064 .hidden __clzsi2
00017be8 g     F .text	000002c4 altera_avalon_jtag_uart_write
000002e8 g     F .text	000005a0 Task_read_PS2
00005ef0 g     F .text	00000004 __sfp_lock_acquire
0000744c g     F .text	000000e4 memchr
00010854 g     F .text	00000054 OS_MemClr
000180c4 g     F .text	0000007c alt_up_character_lcd_write
00001c3c g     F .text	000021f8 ___vfprintf_internal_r
00019db8 g     F .text	0000015c OSTaskStkInit
00006054 g     F .text	00000310 _free_r
00006a30 g     F .text	00000010 __locale_mb_cur_max
0000fec4 g     F .text	00000198 OS_EventTaskRdy
0001a530 g     F .text	00000180 __call_exitprocs
0001f38c g     O .bss	00000001 OSCPUUsage
0001f334 g     O .bss	00000004 __mlocale_changed
0001d294 g     O .rwdata	00000004 __malloc_sbrk_base
00000248 g     F .text	0000003c _start
0001f3c0 g     O .bss	00000004 _alt_tick_rate
00013610 g     F .text	0000028c OSQPend
000162bc g     F .text	00000104 OSTimeDly
0000807c g     F .text	00000148 __lshift
00000284 g     F .text	00000064 reset_PS2_input
0001f3c4 g     O .bss	00000004 _alt_nticks
0000e97c g     F .text	000000fc read
0001681c g     F .text	0000096c alt_sys_init
00018308 g     F .text	0000008c alt_up_character_lcd_shift_display
0001a418 g     F .text	00000118 __register_exitproc
0001f38d g     O .bss	00000001 OSTaskCtr
00018d14 g     F .text	00000058 alt_up_ps2_clear_fifo
00018fc8 g     F .text	0000003c alt_up_rs232_get_available_space_in_write_FIFO
000163c0 g     F .text	00000160 OSTimeDlyHMSM
00007d44 g     F .text	000001f8 __multiply
00018394 g     F .text	0000008c alt_up_character_lcd_erase_pos
000177d4 g     F .text	00000068 altera_avalon_jtag_uart_close
0001b3b4 g       *ABS*	00000000 __ram_rwdata_start
0001a6e4 g       *ABS*	00000000 __ram_rodata_start
0001f3cc g     O .bss	00000028 __malloc_current_mallinfo
0001d2ce g     O .rwdata	00000002 OSEventMax
00008590 g     F .text	0000014c __d2b
00014830 g     F .text	00000110 OSSemPost
0000fa68 g     F .text	000000dc OSSchedUnlock
00017188 g     F .text	00000060 altera_avalon_jtag_uart_read_fd
0001a148 g     F .text	000000dc alt_get_fd
0001f390 g     O .bss	00000004 OSMemFreeList
0000fbb4 g     F .text	000000b0 OSStatInit
000123fc g     F .text	000000c4 OSFlagQuery
0001f304 g     O .bss	00000004 KEY1_flag
0001d304 g     O .rwdata	00000002 OSTaskCreateExtEn
0000a7e4 g     F .text	00000054 _close_r
0001a39c g     F .text	0000007c memcmp
0000fea4 g     F .text	00000020 OS_Dummy
00017248 g     F .text	00000050 altera_avalon_jtag_uart_close_fd
00032718 g       *ABS*	00000000 __alt_stack_base
00017298 g     F .text	00000054 altera_avalon_jtag_uart_ioctl_fd
00018490 g     F .text	0000005c alt_up_irda_enable_read_interrupt
00003f0c g     F .text	00000154 __swsetup_r
00030b94 g     O .bss	000001e0 OSQTbl
0000c5c8 g     F .text	000008e8 .hidden __divdf3
00005db0 g     F .text	00000118 __sfp
000087f4 g     F .text	00000078 __copybits
0001b960 g     O .rwdata	00000408 __malloc_av_
00005efc g     F .text	00000004 __sinit_lock_release
0001f394 g     O .bss	00000004 OSTCBHighRdy
0000d108 g     F .text	00000718 .hidden __muldf3
00008f24 g     F .text	00000054 __sread
0001f398 g     O .bss	00000004 OSQFreeList
00018f28 g     F .text	00000060 alt_up_rs232_disable_read_interrupt
000293f4 g     O .bss	00002000 task_read_keys_stk
0001a040 g     F .text	00000108 alt_find_file
000193e4 g     F .text	000000a4 alt_dev_llist_insert
0000ede4 g     F .text	00000120 __malloc_lock
00001a84 g     F .text	00000028 _fprintf_r
0000eadc g     F .text	000000b0 sbrk
0000f0f0 g     F .text	00000140 OSEventNameSet
00005b04 g     F .text	0000005c _fflush_r
0000a838 g     F .text	000000c4 _calloc_r
0001f39c g     O .bss	00000001 OSRdyGrp
00000888 g     F .text	0000059c Task_read_KEYs
0001f2d4 g       *ABS*	00000000 __bss_start
000077d4 g     F .text	00000128 memset
0001f308 g     O .bss	00000001 err
000015b4 g     F .text	00000344 main
0001f358 g     O .bss	00000004 alt_envp
0001f33c g     O .bss	00000004 __malloc_max_total_mem
000171e8 g     F .text	00000060 altera_avalon_jtag_uart_write_fd
0000aeb8 g     F .text	00000018 __swbuf
0001b134 g     O .rodata	00000100 OSUnMapTbl
0001d2fe g     O .rwdata	00000002 OSSemEn
0001827c g     F .text	0000008c alt_up_character_lcd_shift_cursor
00012068 g     F .text	00000394 OSFlagPost
0001f30c g     O .bss	00000004 SEM_state_change
00009058 g     F .text	00000008 __sclose
04000000 g       *ABS*	00000000 __alt_heap_limit
0000a9ec g     F .text	00000014 fclose
0001005c g     F .text	00000110 OS_EventTaskWait
00018ca4 g     F .text	00000070 alt_up_ps2_read_data_byte
00010c54 g     F .text	000000cc OS_TaskStatStkChk
00015714 g     F .text	00000150 OSTaskDelReq
00004260 g     F .text	00001688 _dtoa_r
00006c40 g     F .text	0000080c _malloc_r
0000b02c g     F .text	00000030 __ascii_wctomb
0001d2b4 g     O .rwdata	00000004 alt_errno
0000fb44 g     F .text	00000070 OSStart
0000ed84 g     F .text	00000060 __env_unlock
0001f310 g     O .bss	00000004 cur_input_idx
00006820 g     F .text	000000c4 _fwalk
00015bb0 g     F .text	000001d4 OSTaskResume
00012e38 g     F .text	000000e8 OSMemQuery
0001d310 g     O .rwdata	00000002 OSTaskStatEn
0001860c g     F .text	00000040 alt_up_irda_write_data
0001d2ea g     O .rwdata	00000002 OSMemMax
00013b70 g     F .text	00000170 OSQPostFront
00018e90 g     F .text	0000003c alt_up_ps2_open_dev
0000bb68 g     F .text	00000084 .hidden __divsi3
0001f39d g     O .bss	00000003 OSRdyTbl
0001d2c4 g     O .rwdata	00000002 OSDebugEn
0000121c g     F .text	00000310 Task_add_del_code
00018088 g     F .text	0000003c alt_up_character_lcd_open_dev
00005f30 g     F .text	00000124 _malloc_trim_r
00018a0c g     F .text	0000005c alt_up_ps2_enable_read_interrupt
0001a6e4 g       *ABS*	00000000 __CTOR_END__
0001d2dc g     O .rwdata	00000002 OSFlagNodeSize
0001d324 g     O .rwdata	00000002 OSTmrCfgMax
00018050 g     F .text	00000038 alt_up_character_lcd_init
00009060 g     F .text	000000dc strcmp
0001312c g     F .text	000001ac OSQCreate
00015864 g     F .text	00000198 OSTaskNameGet
0001a6e4 g       *ABS*	00000000 __flash_rodata_start
00013ce0 g     F .text	0000020c OSQPostOpt
0000fc64 g     F .text	00000220 OSTimeTick
0001d30c g     O .rwdata	00000002 OSTaskMax
0001a6e4 g       *ABS*	00000000 __DTOR_LIST__
000141a0 g     F .text	000000d8 OSSemCreate
0001d330 g     O .rwdata	00000002 OSTmrWheelSize
0001f314 g     O .bss	00000004 KEY3_flag
00019220 g     F .text	0000003c alt_up_rs232_open_dev
0000ceb0 g     F .text	00000088 .hidden __nedf2
0001d306 g     O .rwdata	00000002 OSTaskDelEn
00014940 g     F .text	00000110 OSSemQuery
000132d8 g     F .text	00000280 OSQDel
0001389c g     F .text	0000016c OSQPendAbort
000167e4 g     F .text	00000038 alt_irq_init
0001f318 g     O .bss	00000004 SEM_timer_code
0000ea78 g     F .text	00000064 alt_release_fd
000188e4 g     F .text	00000034 read_data_valid
00018420 g     F .text	00000038 alt_up_character_lcd_cursor_off
0001b018 g     O .rodata	00000100 .hidden __clz_tab
0001f330 g     O .bss	00000004 _PathLocale
00018ba4 g     F .text	00000064 alt_up_ps2_write_data_byte_with_ack
0001a350 g     F .text	00000014 atexit
0000a784 g     F .text	00000060 _write_r
0000f9dc g     F .text	0000008c OSSchedLock
00006a60 g     F .text	00000018 setlocale
0001148c g     F .text	00000108 OSFlagCreate
0001d28c g     O .rwdata	00000004 _impure_ptr
0001f350 g     O .bss	00000004 alt_argc
000058e8 g     F .text	0000021c __sflush_r
000194e8 g     F .text	00000060 _do_dtors
00006a4c g     F .text	00000008 __locale_cjk_lang
0001d2d6 g     O .rwdata	00000002 OSEventMultiEn
09000000 g       *ABS*	00000000 __alt_mem_VGA_Subsystem_Char_Buf_Subsystem_Onchip_SRAM
00011594 g     F .text	00000248 OSFlagDel
0001f3a0 g     O .bss	00000004 OSEventFreeList
00000020 g       .exceptions	00000000 alt_irq_entry
00008420 g     F .text	00000064 __ulp
00011a50 g     F .text	000005b8 OSFlagPend
0001d322 g     O .rwdata	00000002 OSTmrEn
00005f18 g     F .text	00000018 __fp_unlock_all
0001d2a0 g     O .rwdata	00000008 alt_fs_list
00010a54 g     F .text	00000074 OS_StrCopy
00018ecc g     F .text	0000005c alt_up_rs232_enable_read_interrupt
00019048 g     F .text	00000040 alt_up_rs232_write_data
0001d2ec g     O .rwdata	00000002 OSMemNameSize
00019fdc g     F .text	00000020 OSInitHookEnd
00000020 g       *ABS*	00000000 __ram_exceptions_start
0001d318 g     O .rwdata	00000002 OSTCBPrioTblMax
00006a78 g     F .text	0000000c localeconv
0001d314 g     O .rwdata	00000002 OSTaskStatStkChkEn
0001d2e8 g     O .rwdata	00000002 OSMemEn
0001d2f2 g     O .rwdata	00000002 OSMutexEn
0001d344 g       *ABS*	00000000 _edata
0001f31c g     O .bss	00000004 KEY0_flag
00032718 g       *ABS*	00000000 _end
0001f3a4 g     O .bss	00000001 OSIntNesting
0000aa00 g     F .text	00000164 __fputwc
00000248 g       *ABS*	00000000 __ram_exceptions_end
0001783c g     F .text	000000f0 altera_avalon_jtag_uart_ioctl
00016520 g     F .text	000001d4 OSTimeDlyResume
0001f320 g     O .bss	00000004 SEM_flash_fail
0002b3f4 g     O .bss	00002000 task_verify_access_code
00011904 g     F .text	0000014c OSFlagNameSet
00015d84 g     F .text	000001c0 OSTaskStkChk
0001d2ee g     O .rwdata	00000002 OSMemSize
00008f80 g     F .text	0000007c __swrite
0001d298 g     O .rwdata	00000004 __malloc_trim_threshold
00006a40 g     F .text	0000000c __locale_msgcharset
0001f3a8 g     O .bss	00000004 OSTCBCur
0001f324 g     O .bss	00000004 timer_code
0001a364 g     F .text	00000038 exit
0001864c g     F .text	00000074 alt_up_irda_read_data
0001d2f0 g     O .rwdata	00000002 OSMemTblSize
000068e4 g     F .text	000000c4 _fwalk_reent
00018944 g     F .text	000000c8 alt_up_ps2_init
00008224 g     F .text	000001fc __mdiff
0002d3f4 g     O .bss	00002000 task_delete_code_stk
0000bbec g     F .text	00000074 .hidden __modsi3
04000000 g       *ABS*	00000000 __alt_data_end
00000020 g     F .exceptions	00000000 alt_exception
00005ef4 g     F .text	00000004 __sfp_lock_release
0000f840 g     F .text	00000058 OSInit
00016128 g     F .text	00000124 OSTaskQuery
00018140 g     F .text	00000078 alt_up_character_lcd_string
0001f328 g     O .bss	00000004 SEM_read_PS2
00014048 g     F .text	000000a8 OS_QInit
00010ac8 g     F .text	00000054 OS_StrLen
000187e0 g     F .text	0000003c alt_up_irda_open_dev
00012c4c g     F .text	00000114 OSMemNameSet
0001d30a g     O .rwdata	00000002 OSTaskProfileEn
0001f3ac g     O .bss	00000004 OSTime
00030d74 g     O .bss	00000800 OSTaskIdleStk
0001a6b0 g     F .text	00000034 _exit
0001925c g     F .text	0000012c alt_alarm_start
000117dc g     F .text	00000128 OSFlagNameGet
000166f4 g     F .text	0000005c OSTimeGet
00006a84 g     F .text	000001bc __smakebuf_r
00018b3c g     F .text	00000068 alt_up_ps2_wait_for_ack
00001ba4 g     F .text	00000098 strlen
00019f5c g     F .text	00000020 OSTaskSwHook
000199cc g     F .text	00000154 open
00031574 g     O .bss	00000b40 OSEventTbl
0000cf38 g     F .text	000000dc .hidden __gedf2
000320b4 g     O .bss	00000510 OSTCBTbl
00014a50 g     F .text	00000100 OSSemSet
0001d29c g     O .rwdata	00000004 __wctomb
00009238 g     F .text	00000018 __sprint_r
000195d8 g     F .text	00000034 alt_icache_flush_all
0001f32c g     O .bss	00000004 SEM_read_KEYS
00018208 g     F .text	00000074 alt_up_character_lcd_set_cursor_pos
0001d338 g     O .rwdata	00000004 alt_priority_mask
00014278 g     F .text	00000240 OSSemDel
0001f3b0 g     O .bss	00000004 OSFlagFreeList
0001d2d0 g     O .rwdata	00000002 OSEventNameSize
00003e34 g     F .text	0000001c __vfprintf_internal
0001f3b4 g     O .bss	00000001 OSStatRdy
000325c4 g     O .bss	00000054 OSTCBPrioTbl
0000b05c g     F .text	0000005c _wctomb_r
0000ecc0 g     F .text	000000c4 __env_lock
00018d6c g     F .text	0000008c alt_up_ps2_read_fd
0001d316 g     O .rwdata	00000002 OSTaskSwHookEn
0000d820 g     F .text	000008fc .hidden __subdf3
000186c0 g     F .text	00000090 alt_up_irda_read_fd
00007c58 g     F .text	000000b0 __lo0bits
00001084 g     F .text	000000d4 Task_flash_success
0001d33c g     O .rwdata	00000008 alt_alarm_list
0001d2de g     O .rwdata	00000002 OSFlagWidth
00019488 g     F .text	00000060 _do_ctors
00018f88 g     F .text	00000040 alt_up_rs232_get_used_space_in_read_FIFO
0000af6c g     F .text	000000c0 wcrtomb
0000e3c0 g     F .text	000000d0 close
0001f360 g     O .bss	00000004 alt_envsem
0001f3b8 g     O .bss	00000004 OSIdleCtrRun
0000fe84 g     F .text	00000020 OSVersion
0001d328 g     O .rwdata	00000002 OSTmrCfgWheelSize
0000e6f0 g     F .text	00000084 alt_load
0001624c g     F .text	00000070 OS_TaskStkClr
0001d302 g     O .rwdata	00000002 OSTaskCreateEn
00010474 g     F .text	00000068 OS_EventWaitListInit
0000ab88 g     F .text	00000080 fputwc
00019ffc g     F .text	00000020 OSTaskIdleHook
00005ef8 g     F .text	00000004 __sinit_lock_acquire
000079cc g     F .text	00000120 __multadd
00015f44 g     F .text	000001e4 OSTaskSuspend
000079a4 g     F .text	00000028 _Bfree
00010b1c g     F .text	0000005c OS_TaskIdle
0001d32e g     O .rwdata	00000002 OSTmrTblSize
00013eec g     F .text	0000015c OSQQuery



Disassembly of section .entry:

00000000 <__reset>:
#if NIOS2_ICACHE_SIZE > 0 && defined(ALT_ALLOW_CODE_AT_RESET) && (!defined(ALT_SIM_OPTIMIZE) || defined(NIOS2_ECC_PRESENT))
    /* Assume the instruction cache size is always a power of two. */
#if NIOS2_ICACHE_SIZE > 0x8000
    movhi r2, %hi(NIOS2_ICACHE_SIZE)
#else
    movui r2, NIOS2_ICACHE_SIZE
   0:	00840014 	movui	r2,4096
#endif

0:
    initi r2
   4:	1001483a 	initi	r2
    addi r2, r2, -NIOS2_ICACHE_LINE_SIZE
   8:	10bff804 	addi	r2,r2,-32
    bgt r2, zero, 0b
   c:	00bffd16 	blt	zero,r2,4 <__reset+0x4>
 * Jump to the _start entry point in the .text section if reset code
 * is allowed or if optimizing for RTL simulation.
 */
#if defined(ALT_ALLOW_CODE_AT_RESET) || defined(ALT_SIM_OPTIMIZE)
    /* Jump to the _start entry point in the .text section. */
    movhi r1, %hi(_start)
  10:	00400034 	movhi	at,0
    ori r1, r1, %lo(_start)
  14:	08409214 	ori	at,at,584
    jmp r1
  18:	0800683a 	jmp	at
  1c:	00000000 	call	0 <__reset>

Disassembly of section .exceptions:

00000020 <alt_exception>:

#else /* ALT_EXCEPTION_STACK disabled */
        /* 
         * Reserve space on normal stack for registers about to be pushed.
         */
        addi  sp, sp, -76
  20:	deffed04 	addi	sp,sp,-76
         * documentation for details).
         *
         * Leave a gap in the stack frame at 4(sp) for the muldiv handler to
         * store zero into.
         */
        stw   ra,  0(sp)
  24:	dfc00015 	stw	ra,0(sp)
        stw   r1,   8(sp)
  28:	d8400215 	stw	at,8(sp)
        stw   r2,  12(sp)
  2c:	d8800315 	stw	r2,12(sp)
        stw   r3,  16(sp)
  30:	d8c00415 	stw	r3,16(sp)
        stw   r4,  20(sp)
  34:	d9000515 	stw	r4,20(sp)
        stw   r5,  24(sp)
  38:	d9400615 	stw	r5,24(sp)
        stw   r6,  28(sp)
  3c:	d9800715 	stw	r6,28(sp)
        stw   r7,  32(sp)
  40:	d9c00815 	stw	r7,32(sp)
        rdctl r5, estatus   /* Read early to avoid usage stall */
  44:	000b307a 	rdctl	r5,estatus
        stw   r8,  36(sp)
  48:	da000915 	stw	r8,36(sp)
        stw   r9,  40(sp)
  4c:	da400a15 	stw	r9,40(sp)
        stw   r10, 44(sp)
  50:	da800b15 	stw	r10,44(sp)
        stw   r11, 48(sp)
  54:	dac00c15 	stw	r11,48(sp)
        stw   r12, 52(sp)
  58:	db000d15 	stw	r12,52(sp)
        stw   r13, 56(sp)
  5c:	db400e15 	stw	r13,56(sp)
        stw   r14, 60(sp)
  60:	db800f15 	stw	r14,60(sp)
        stw   r15, 64(sp)
  64:	dbc01015 	stw	r15,64(sp)
        /*
         * ea-4 contains the address of the instruction being executed
         * when the exception occured. For interrupt exceptions, we will
         * will be re-issue the isntruction. Store it in 72(sp)
         */
        stw   r5,  68(sp)  /* estatus */
  68:	d9401115 	stw	r5,68(sp)
        addi  r15, ea, -4  /* instruction that caused exception */
  6c:	ebffff04 	addi	r15,ea,-4
        stw   r15,  72(sp)
  70:	dbc01215 	stw	r15,72(sp)
#else
        /*
         * Test to see if the exception was a software exception or caused 
         * by an external interrupt, and vector accordingly.
         */
        rdctl r4, ipending
  74:	0009313a 	rdctl	r4,ipending
        andi  r2, r5, 1
  78:	2880004c 	andi	r2,r5,1
        beq   r2, zero, .Lnot_irq
  7c:	10000326 	beq	r2,zero,8c <OSCtxSw_SWITCH_PC+0x4c>
        beq   r4, zero, .Lnot_irq
  80:	20000226 	beq	r4,zero,8c <OSCtxSw_SWITCH_PC+0x4c>
        /*
         * Now that all necessary registers have been preserved, call 
         * alt_irq_handler() to process the interrupts.
         */

        call alt_irq_handler
  84:	00000fc0 	call	fc <alt_irq_handler>

        .section .exceptions.irqreturn, "xa"

        br    .Lexception_exit
  88:	00000706 	br	a8 <OSCtxSw_SWITCH_PC+0x68>
         * upon completion, so we write ea (address of instruction *after*
         * the one where the exception occured) into 72(sp). The actual
         * instruction that caused the exception is written in r2, which these
         * handlers will utilize.
         */
        stw ea, 72(sp) /* EA is PC+4 so will skip over instruction causing exception */
  8c:	df401215 	stw	ea,72(sp)
.Lunknown_16bit:
        addi.n r4, r4, 2 /* Need PC+2 to skip over instruction causing exception */
        stw r4, 72(sp)

#else /* CDX is not Enabled and all instructions are 32bits */
        ldw r2, -4(ea) /* Instruction value that caused exception */
  90:	e8bfff17 	ldw	r2,-4(ea)
         * debugger is present) or go into an infinite loop since the
         * handling behavior is undefined; in that case we will not return here.
         */

        /* Load exception-causing address as first argument (r4) */
        addi   r4, ea, -4
  94:	e93fff04 	addi	r4,ea,-4

        /* Call the instruction-exception entry */
        call   alt_instruction_exception_entry
  98:	00001d40 	call	1d4 <alt_instruction_exception_entry>
         * instruction
         *
         * Return code was 0: Skip. The instruction after the exception is
         * already stored in 72(sp).
         */
        bne   r2, r0, .Lexception_exit
  9c:	1000021e 	bne	r2,zero,a8 <OSCtxSw_SWITCH_PC+0x68>

        /*
         * Otherwise, modify 72(sp) to re-issue the instruction that caused the
         * exception.
         */
        addi  r15, ea, -4  /* instruction that caused exception */
  a0:	ebffff04 	addi	r15,ea,-4
        stw   r15,  72(sp)
  a4:	dbc01215 	stw	r15,72(sp)
        /* 
         * Restore the saved registers, so that all general purpose registers 
         * have been restored to their state at the time the interrupt occured.
         */

        ldw   r5,  68(sp)
  a8:	d9401117 	ldw	r5,68(sp)
        ldw   ea,  72(sp)  /* This becomes the PC once eret is executed */
  ac:	df401217 	ldw	ea,72(sp)
        ldw   ra,   0(sp)
  b0:	dfc00017 	ldw	ra,0(sp)

        wrctl estatus, r5
  b4:	2801707a 	wrctl	estatus,r5

        ldw   r1,   8(sp)
  b8:	d8400217 	ldw	at,8(sp)
        ldw   r2,  12(sp)
  bc:	d8800317 	ldw	r2,12(sp)
        ldw   r3,  16(sp)
  c0:	d8c00417 	ldw	r3,16(sp)
        ldw   r4,  20(sp)
  c4:	d9000517 	ldw	r4,20(sp)
        ldw   r5,  24(sp)
  c8:	d9400617 	ldw	r5,24(sp)
        ldw   r6,  28(sp)
  cc:	d9800717 	ldw	r6,28(sp)
        ldw   r7,  32(sp)
  d0:	d9c00817 	ldw	r7,32(sp)

#if defined(ALT_EXCEPTION_STACK) && defined(ALT_STACK_CHECK)
        ldw   et, %gprel(alt_exception_old_stack_limit)(gp)
#endif

        ldw   r8,  36(sp)
  d4:	da000917 	ldw	r8,36(sp)
        ldw   r9,  40(sp)
  d8:	da400a17 	ldw	r9,40(sp)
        ldw   r10, 44(sp)
  dc:	da800b17 	ldw	r10,44(sp)
        ldw   r11, 48(sp)
  e0:	dac00c17 	ldw	r11,48(sp)
        ldw   r12, 52(sp)
  e4:	db000d17 	ldw	r12,52(sp)
        ldw   r13, 56(sp)
  e8:	db400e17 	ldw	r13,56(sp)
        ldw   r14, 60(sp)
  ec:	db800f17 	ldw	r14,60(sp)
        ldw   r15, 64(sp)
  f0:	dbc01017 	ldw	r15,64(sp)
        stw   et, %gprel(alt_stack_limit_value)(gp)
        stw   zero, %gprel(alt_exception_old_stack_limit)(gp)
#endif /* ALT_STACK_CHECK */
        ldw   sp,  76(sp)
#else /* ALT_EXCEPTION_STACK disabled */
        addi  sp, sp, 76
  f4:	dec01304 	addi	sp,sp,76

        /*
         * Return to the interrupted instruction.
         */

        eret
  f8:	ef80083a 	eret

000000fc <alt_irq_handler>:
 * instruction is present if the macro ALT_CI_INTERRUPT_VECTOR defined.
 */

void alt_irq_handler (void) __attribute__ ((section (".exceptions")));
void alt_irq_handler (void)
{
  fc:	defff904 	addi	sp,sp,-28
 100:	dfc00615 	stw	ra,24(sp)
 104:	df000515 	stw	fp,20(sp)
 108:	df000504 	addi	fp,sp,20
  
  /*
   * Notify the operating system that we are at interrupt level.
   */ 
  
  ALT_OS_INT_ENTER();
 10c:	000f8980 	call	f898 <OSIntEnter>
#ifndef NIOS2_EIC_PRESENT
static ALT_INLINE alt_u32 ALT_ALWAYS_INLINE alt_irq_pending (void)
{
  alt_u32 active;

  NIOS2_READ_IPENDING (active);
 110:	0005313a 	rdctl	r2,ipending
 114:	e0bffe15 	stw	r2,-8(fp)

  return active;
 118:	e0bffe17 	ldw	r2,-8(fp)
   * Consider the case where the high priority interupt is asserted during
   * the interrupt entry sequence for a lower priority interrupt to see why
   * this is the case.
   */

  active = alt_irq_pending ();
 11c:	e0bffb15 	stw	r2,-20(fp)

  do
  {
    i = 0;
 120:	e03ffd15 	stw	zero,-12(fp)
    mask = 1;
 124:	00800044 	movi	r2,1
 128:	e0bffc15 	stw	r2,-16(fp)
     * called to clear the interrupt condition.
     */

    do
    {
      if (active & mask)
 12c:	e0fffb17 	ldw	r3,-20(fp)
 130:	e0bffc17 	ldw	r2,-16(fp)
 134:	1884703a 	and	r2,r3,r2
 138:	10001526 	beq	r2,zero,190 <alt_irq_handler+0x94>
      { 
#ifdef ALT_ENHANCED_INTERRUPT_API_PRESENT
        alt_irq[i].handler(alt_irq[i].context); 
#else
        alt_irq[i].handler(alt_irq[i].context, i); 
 13c:	008000f4 	movhi	r2,3
 140:	10898604 	addi	r2,r2,9752
 144:	e0fffd17 	ldw	r3,-12(fp)
 148:	180690fa 	slli	r3,r3,3
 14c:	10c5883a 	add	r2,r2,r3
 150:	10c00017 	ldw	r3,0(r2)
 154:	008000f4 	movhi	r2,3
 158:	10898604 	addi	r2,r2,9752
 15c:	e13ffd17 	ldw	r4,-12(fp)
 160:	200890fa 	slli	r4,r4,3
 164:	1105883a 	add	r2,r2,r4
 168:	10800104 	addi	r2,r2,4
 16c:	10800017 	ldw	r2,0(r2)
 170:	e17ffd17 	ldw	r5,-12(fp)
 174:	1009883a 	mov	r4,r2
 178:	183ee83a 	callr	r3
#endif
        break;
 17c:	0001883a 	nop
#ifndef NIOS2_EIC_PRESENT
static ALT_INLINE alt_u32 ALT_ALWAYS_INLINE alt_irq_pending (void)
{
  alt_u32 active;

  NIOS2_READ_IPENDING (active);
 180:	0005313a 	rdctl	r2,ipending
 184:	e0bfff15 	stw	r2,-4(fp)

  return active;
 188:	e0bfff17 	ldw	r2,-4(fp)
 18c:	00000706 	br	1ac <alt_irq_handler+0xb0>
      }
      mask <<= 1;
 190:	e0bffc17 	ldw	r2,-16(fp)
 194:	1085883a 	add	r2,r2,r2
 198:	e0bffc15 	stw	r2,-16(fp)
      i++;
 19c:	e0bffd17 	ldw	r2,-12(fp)
 1a0:	10800044 	addi	r2,r2,1
 1a4:	e0bffd15 	stw	r2,-12(fp)

    } while (1);
 1a8:	003fe006 	br	12c <alt_irq_handler+0x30>

    active = alt_irq_pending ();
 1ac:	e0bffb15 	stw	r2,-20(fp)
    
  } while (active);
 1b0:	e0bffb17 	ldw	r2,-20(fp)
 1b4:	103fda1e 	bne	r2,zero,120 <alt_irq_handler+0x24>

  /*
   * Notify the operating system that interrupt processing is complete.
   */ 

  ALT_OS_INT_EXIT();
 1b8:	000f8e40 	call	f8e4 <OSIntExit>
}
 1bc:	0001883a 	nop
 1c0:	e037883a 	mov	sp,fp
 1c4:	dfc00117 	ldw	ra,4(sp)
 1c8:	df000017 	ldw	fp,0(sp)
 1cc:	dec00204 	addi	sp,sp,8
 1d0:	f800283a 	ret

000001d4 <alt_instruction_exception_entry>:
 * that handler if it has been registered. Absent a handler, it will
 * break break or hang as discussed below.
 */
int 
alt_instruction_exception_entry (alt_u32 exception_pc)
{
 1d4:	defffb04 	addi	sp,sp,-20
 1d8:	dfc00415 	stw	ra,16(sp)
 1dc:	df000315 	stw	fp,12(sp)
 1e0:	df000304 	addi	fp,sp,12
 1e4:	e13fff15 	stw	r4,-4(fp)
 * NIOS2_EXCEPTION_CAUSE_NOT_PRESENT. Your handling routine should
 * check the validity of the cause argument before proceeding.
 */
#ifdef NIOS2_HAS_EXTRA_EXCEPTION_INFO
  /* Get exception cause & "badaddr" */
  NIOS2_READ_EXCEPTION(cause);
 1e8:	000531fa 	rdctl	r2,exception
 1ec:	e0bffd15 	stw	r2,-12(fp)
  cause = ( (cause & NIOS2_EXCEPTION_REG_CAUSE_MASK) >>
 1f0:	e0bffd17 	ldw	r2,-12(fp)
 1f4:	10801f0c 	andi	r2,r2,124
 1f8:	1004d0ba 	srli	r2,r2,2
 1fc:	e0bffd15 	stw	r2,-12(fp)
              NIOS2_EXCEPTION_REG_CAUSE_OFST );

  NIOS2_READ_BADADDR(badaddr);
 200:	0005333a 	rdctl	r2,badaddr
 204:	e0bffe15 	stw	r2,-8(fp)
#else
  cause = NIOS2_EXCEPTION_CAUSE_NOT_PRESENT;
  badaddr = 0;
#endif /* NIOS2_HAS_EXTRA_EXCEPTION_INFO */

  if(alt_instruction_exception_handler) {
 208:	d0a85017 	ldw	r2,-24256(gp)
 20c:	10000726 	beq	r2,zero,22c <alt_instruction_exception_entry+0x58>
     * Call handler. Its return value indicates whether the exception-causing
     * instruction should be re-issued. The code that called us,
     * alt_eceptions_entry.S, will look at this value and adjust the ea
     * register as necessary
     */
    return alt_instruction_exception_handler(cause, exception_pc, badaddr);
 210:	d0a85017 	ldw	r2,-24256(gp)
 214:	e0fffd17 	ldw	r3,-12(fp)
 218:	e1bffe17 	ldw	r6,-8(fp)
 21c:	e17fff17 	ldw	r5,-4(fp)
 220:	1809883a 	mov	r4,r3
 224:	103ee83a 	callr	r2
 228:	00000206 	br	234 <alt_instruction_exception_entry+0x60>
   *    (a peripheral which negates its interrupt output before its
   *    interrupt handler has been executed will cause spurious interrupts)
   */
  else {
#ifdef NIOS2_HAS_DEBUG_STUB
    NIOS2_BREAK();
 22c:	003da03a 	break	0
      ;
#endif /* NIOS2_HAS_DEBUG_STUB */
  }

  /* We should not get here. Remove compiler warning. */
  return NIOS2_EXCEPTION_RETURN_REISSUE_INST;
 230:	0005883a 	mov	r2,zero
}
 234:	e037883a 	mov	sp,fp
 238:	dfc00117 	ldw	ra,4(sp)
 23c:	df000017 	ldw	fp,0(sp)
 240:	dec00204 	addi	sp,sp,8
 244:	f800283a 	ret

Disassembly of section .text:

00000248 <_start>:

    /*
     * Now that the caches are initialized, set up the stack pointer and global pointer.
     * The values provided by the linker are assumed to be correctly aligned.
     */
    movhi sp, %hi(__alt_stack_pointer)
     248:	06c10034 	movhi	sp,1024
    ori sp, sp, %lo(__alt_stack_pointer)
     24c:	dec00014 	ori	sp,sp,0
    movhi gp, %hi(_gp)
     250:	068000b4 	movhi	gp,2
    ori gp, gp, %lo(_gp)
     254:	d694a214 	ori	gp,gp,21128
 */
#ifndef ALT_SIM_OPTIMIZE
    /* Log that the BSS is about to be cleared. */
    ALT_LOG_PUTS(alt_log_msg_bss)

    movhi r2, %hi(__bss_start)
     258:	00800074 	movhi	r2,1
    ori r2, r2, %lo(__bss_start)
     25c:	10bcb514 	ori	r2,r2,62164

    movhi r3, %hi(__bss_end)
     260:	00c000f4 	movhi	r3,3
    ori r3, r3, %lo(__bss_end)
     264:	18c9c614 	ori	r3,r3,10008

    beq r2, r3, 1f
     268:	10c00326 	beq	r2,r3,278 <_start+0x30>

0:
    stw zero, (r2)
     26c:	10000015 	stw	zero,0(r2)
    addi r2, r2, 4
     270:	10800104 	addi	r2,r2,4
    bltu r2, r3, 0b
     274:	10fffd36 	bltu	r2,r3,26c <_start+0x24>
     * section aren't defined until alt_load() has been called).
     */
    mov   et, zero
#endif

    call alt_load
     278:	000e6f00 	call	e6f0 <alt_load>

    /* Log that alt_main is about to be called. */
    ALT_LOG_PUTS(alt_log_msg_alt_main)

    /* Call the C entry point. It should never return. */
    call alt_main
     27c:	000e8840 	call	e884 <alt_main>

00000280 <alt_after_alt_main>:

    /* Wait in infinite loop in case alt_main does return. */
alt_after_alt_main:
    br alt_after_alt_main
     280:	003fff06 	br	280 <alt_after_alt_main>

00000284 <reset_PS2_input>:
void
Task_delete_code(void*);

void
reset_PS2_input()
{
     284:	defffe04 	addi	sp,sp,-8
     288:	df000115 	stw	fp,4(sp)
     28c:	df000104 	addi	fp,sp,4
  for (int i = 0; i < MAX_DIGITS; i++)
     290:	e03fff15 	stw	zero,-4(fp)
     294:	00000b06 	br	2c4 <reset_PS2_input+0x40>
    cur_input_code[i] = -1;
     298:	008000b4 	movhi	r2,2
     29c:	10aced04 	addi	r2,r2,-19532
     2a0:	e0ffff17 	ldw	r3,-4(fp)
     2a4:	18c7883a 	add	r3,r3,r3
     2a8:	18c7883a 	add	r3,r3,r3
     2ac:	10c5883a 	add	r2,r2,r3
     2b0:	00ffffc4 	movi	r3,-1
     2b4:	10c00015 	stw	r3,0(r2)
Task_delete_code(void*);

void
reset_PS2_input()
{
  for (int i = 0; i < MAX_DIGITS; i++)
     2b8:	e0bfff17 	ldw	r2,-4(fp)
     2bc:	10800044 	addi	r2,r2,1
     2c0:	e0bfff15 	stw	r2,-4(fp)
     2c4:	e0bfff17 	ldw	r2,-4(fp)
     2c8:	10800110 	cmplti	r2,r2,4
     2cc:	103ff21e 	bne	r2,zero,298 <reset_PS2_input+0x14>
    cur_input_code[i] = -1;
  cur_input_idx = 0;
     2d0:	d0282215 	stw	zero,-24440(gp)
}
     2d4:	0001883a 	nop
     2d8:	e037883a 	mov	sp,fp
     2dc:	df000017 	ldw	fp,0(sp)
     2e0:	dec00104 	addi	sp,sp,4
     2e4:	f800283a 	ret

000002e8 <Task_read_PS2>:

/* Tasks Implementation */
void
Task_read_PS2(void* pdata)
{
     2e8:	defffa04 	addi	sp,sp,-24
     2ec:	dfc00515 	stw	ra,20(sp)
     2f0:	df000415 	stw	fp,16(sp)
     2f4:	df000404 	addi	fp,sp,16
     2f8:	e13fff15 	stw	r4,-4(fp)

  debug("Started: Task_read_PS2");
     2fc:	d0a00117 	ldw	r2,-32764(gp)
     300:	10800317 	ldw	r2,12(r2)
     304:	01c019c4 	movi	r7,103
     308:	018000b4 	movhi	r6,2
     30c:	31a9b904 	addi	r6,r6,-22812
     310:	014000b4 	movhi	r5,2
     314:	2969bd04 	addi	r5,r5,-22796
     318:	1009883a 	mov	r4,r2
     31c:	0001aac0 	call	1aac <fprintf>

  int PS2_data, RAVAIL;
  *(PS2_ptr) = 0xFF; // reset PS/2
     320:	00bfc834 	movhi	r2,65312
     324:	10804004 	addi	r2,r2,256
     328:	00c03fc4 	movi	r3,255
     32c:	10c00015 	stw	r3,0(r2)

  flag = 0;
     330:	d0281615 	stw	zero,-24488(gp)

  while (1) {
    PS2_data = *(PS2_ptr); /* read the Data register in the PS/2 port */
     334:	00bfc834 	movhi	r2,65312
     338:	10804004 	addi	r2,r2,256
     33c:	10800017 	ldw	r2,0(r2)
     340:	e0bffc15 	stw	r2,-16(fp)
    RAVAIL = (PS2_data & 0xFFFF0000) >> 16; /* extract the RAVAIL field */
     344:	e0bffc17 	ldw	r2,-16(fp)
     348:	1004d43a 	srli	r2,r2,16
     34c:	e0bffd15 	stw	r2,-12(fp)

    if (RAVAIL > 0) {
     350:	e0bffd17 	ldw	r2,-12(fp)
     354:	0081000e 	bge	zero,r2,758 <Task_read_PS2+0x470>
      char PS2_val = PS2_data & 0xFF;
     358:	e0bffc17 	ldw	r2,-16(fp)
     35c:	e0bffe05 	stb	r2,-8(fp)
      if (PS2_val == -16) {
     360:	e0bffe07 	ldb	r2,-8(fp)
     364:	10bffc18 	cmpnei	r2,r2,-16
     368:	1000051e 	bne	r2,zero,380 <Task_read_PS2+0x98>
        flag = 1;
     36c:	00800044 	movi	r2,1
     370:	d0a81615 	stw	r2,-24488(gp)
        PS2_num = -1; /* resetting PS2 num press */
     374:	00bfffc4 	movi	r2,-1
     378:	d0a81315 	stw	r2,-24500(gp)
     37c:	0000f606 	br	758 <Task_read_PS2+0x470>
      } else if (flag == 1) {
     380:	d0a81617 	ldw	r2,-24488(gp)
     384:	10800058 	cmpnei	r2,r2,1
     388:	1000f31e 	bne	r2,zero,758 <Task_read_PS2+0x470>
        flag = 0;
     38c:	d0281615 	stw	zero,-24488(gp)

        switch (PS2_val) {
     390:	e0bffe07 	ldb	r2,-8(fp)
     394:	10bffa84 	addi	r2,r2,-22
     398:	10c01a28 	cmpgeui	r3,r2,104
     39c:	1800e51e 	bne	r3,zero,734 <Task_read_PS2+0x44c>
     3a0:	100690ba 	slli	r3,r2,2
     3a4:	00800034 	movhi	r2,0
     3a8:	1080ee04 	addi	r2,r2,952
     3ac:	1885883a 	add	r2,r3,r2
     3b0:	10800017 	ldw	r2,0(r2)
     3b4:	1000683a 	jmp	r2
     3b8:	00000584 	movi	zero,22
     3bc:	00000734 	movhi	zero,28
     3c0:	00000734 	movhi	zero,28
     3c4:	00000734 	movhi	zero,28
     3c8:	00000734 	movhi	zero,28
     3cc:	00000734 	movhi	zero,28
     3d0:	00000734 	movhi	zero,28
     3d4:	00000734 	movhi	zero,28
     3d8:	000005b4 	movhi	zero,22
     3dc:	00000734 	movhi	zero,28
     3e0:	00000734 	movhi	zero,28
     3e4:	00000734 	movhi	zero,28
     3e8:	00000734 	movhi	zero,28
     3ec:	00000734 	movhi	zero,28
     3f0:	00000734 	movhi	zero,28
     3f4:	00000614 	movui	zero,24
     3f8:	000005e4 	muli	zero,zero,23
     3fc:	00000734 	movhi	zero,28
     400:	00000734 	movhi	zero,28
     404:	00000734 	movhi	zero,28
     408:	00000734 	movhi	zero,28
     40c:	00000734 	movhi	zero,28
     410:	00000734 	movhi	zero,28
     414:	00000734 	movhi	zero,28
     418:	00000644 	movi	zero,25
     41c:	00000734 	movhi	zero,28
     420:	00000734 	movhi	zero,28
     424:	00000734 	movhi	zero,28
     428:	00000734 	movhi	zero,28
     42c:	00000734 	movhi	zero,28
     430:	00000734 	movhi	zero,28
     434:	00000734 	movhi	zero,28
     438:	00000674 	movhi	zero,25
     43c:	00000734 	movhi	zero,28
     440:	00000734 	movhi	zero,28
     444:	00000734 	movhi	zero,28
     448:	00000734 	movhi	zero,28
     44c:	00000734 	movhi	zero,28
     450:	00000734 	movhi	zero,28
     454:	000006a4 	muli	zero,zero,26
     458:	000006d4 	movui	zero,27
     45c:	00000734 	movhi	zero,28
     460:	00000734 	movhi	zero,28
     464:	00000734 	movhi	zero,28
     468:	00000734 	movhi	zero,28
     46c:	00000734 	movhi	zero,28
     470:	00000734 	movhi	zero,28
     474:	00000558 	cmpnei	zero,zero,21
     478:	00000704 	movi	zero,28
     47c:	00000734 	movhi	zero,28
     480:	00000734 	movhi	zero,28
     484:	00000734 	movhi	zero,28
     488:	00000734 	movhi	zero,28
     48c:	00000734 	movhi	zero,28
     490:	00000734 	movhi	zero,28
     494:	00000734 	movhi	zero,28
     498:	00000734 	movhi	zero,28
     49c:	00000734 	movhi	zero,28
     4a0:	00000734 	movhi	zero,28
     4a4:	00000734 	movhi	zero,28
     4a8:	00000734 	movhi	zero,28
     4ac:	00000734 	movhi	zero,28
     4b0:	00000734 	movhi	zero,28
     4b4:	00000734 	movhi	zero,28
     4b8:	00000734 	movhi	zero,28
     4bc:	00000734 	movhi	zero,28
     4c0:	00000734 	movhi	zero,28
     4c4:	00000734 	movhi	zero,28
     4c8:	00000734 	movhi	zero,28
     4cc:	00000734 	movhi	zero,28
     4d0:	00000734 	movhi	zero,28
     4d4:	00000734 	movhi	zero,28
     4d8:	00000734 	movhi	zero,28
     4dc:	00000734 	movhi	zero,28
     4e0:	00000734 	movhi	zero,28
     4e4:	00000734 	movhi	zero,28
     4e8:	00000734 	movhi	zero,28
     4ec:	00000734 	movhi	zero,28
     4f0:	00000734 	movhi	zero,28
     4f4:	00000734 	movhi	zero,28
     4f8:	00000734 	movhi	zero,28
     4fc:	00000734 	movhi	zero,28
     500:	00000734 	movhi	zero,28
     504:	00000584 	movi	zero,22
     508:	00000734 	movhi	zero,28
     50c:	00000614 	movui	zero,24
     510:	000006a4 	muli	zero,zero,26
     514:	00000734 	movhi	zero,28
     518:	00000734 	movhi	zero,28
     51c:	00000734 	movhi	zero,28
     520:	00000558 	cmpnei	zero,zero,21
     524:	00000734 	movhi	zero,28
     528:	000005b4 	movhi	zero,22
     52c:	00000644 	movi	zero,25
     530:	00000674 	movhi	zero,25
     534:	000006d4 	movui	zero,27
     538:	00000734 	movhi	zero,28
     53c:	00000734 	movhi	zero,28
     540:	00000734 	movhi	zero,28
     544:	00000734 	movhi	zero,28
     548:	000005e4 	muli	zero,zero,23
     54c:	00000734 	movhi	zero,28
     550:	00000734 	movhi	zero,28
     554:	00000704 	movi	zero,28
          case 69:
          case 112:
            PS2_num = 0;
     558:	d0281315 	stw	zero,-24500(gp)
            debug("0 pressed");
     55c:	d0a00117 	ldw	r2,-32764(gp)
     560:	10800317 	ldw	r2,12(r2)
     564:	01c01f84 	movi	r7,126
     568:	018000b4 	movhi	r6,2
     56c:	31a9b904 	addi	r6,r6,-22812
     570:	014000b4 	movhi	r5,2
     574:	2969c704 	addi	r5,r5,-22756
     578:	1009883a 	mov	r4,r2
     57c:	0001aac0 	call	1aac <fprintf>
            break;
     580:	00007506 	br	758 <Task_read_PS2+0x470>
          case 22:
          case 105:
            PS2_num = 1;
     584:	00800044 	movi	r2,1
     588:	d0a81315 	stw	r2,-24500(gp)
            debug("1 pressed");
     58c:	d0a00117 	ldw	r2,-32764(gp)
     590:	10800317 	ldw	r2,12(r2)
     594:	01c020c4 	movi	r7,131
     598:	018000b4 	movhi	r6,2
     59c:	31a9b904 	addi	r6,r6,-22812
     5a0:	014000b4 	movhi	r5,2
     5a4:	2969cd04 	addi	r5,r5,-22732
     5a8:	1009883a 	mov	r4,r2
     5ac:	0001aac0 	call	1aac <fprintf>
            break;
     5b0:	00006906 	br	758 <Task_read_PS2+0x470>
          case 30:
          case 114:
            PS2_num = 2;
     5b4:	00800084 	movi	r2,2
     5b8:	d0a81315 	stw	r2,-24500(gp)
            debug("2 pressed");
     5bc:	d0a00117 	ldw	r2,-32764(gp)
     5c0:	10800317 	ldw	r2,12(r2)
     5c4:	01c02204 	movi	r7,136
     5c8:	018000b4 	movhi	r6,2
     5cc:	31a9b904 	addi	r6,r6,-22812
     5d0:	014000b4 	movhi	r5,2
     5d4:	2969d304 	addi	r5,r5,-22708
     5d8:	1009883a 	mov	r4,r2
     5dc:	0001aac0 	call	1aac <fprintf>
            break;
     5e0:	00005d06 	br	758 <Task_read_PS2+0x470>
          case 38:
          case 122:
            PS2_num = 3;
     5e4:	008000c4 	movi	r2,3
     5e8:	d0a81315 	stw	r2,-24500(gp)
            debug("3 pressed");
     5ec:	d0a00117 	ldw	r2,-32764(gp)
     5f0:	10800317 	ldw	r2,12(r2)
     5f4:	01c02344 	movi	r7,141
     5f8:	018000b4 	movhi	r6,2
     5fc:	31a9b904 	addi	r6,r6,-22812
     600:	014000b4 	movhi	r5,2
     604:	2969d904 	addi	r5,r5,-22684
     608:	1009883a 	mov	r4,r2
     60c:	0001aac0 	call	1aac <fprintf>
            break;
     610:	00005106 	br	758 <Task_read_PS2+0x470>
          case 37:
          case 107:
            PS2_num = 4;
     614:	00800104 	movi	r2,4
     618:	d0a81315 	stw	r2,-24500(gp)
            debug("4 pressed");
     61c:	d0a00117 	ldw	r2,-32764(gp)
     620:	10800317 	ldw	r2,12(r2)
     624:	01c02484 	movi	r7,146
     628:	018000b4 	movhi	r6,2
     62c:	31a9b904 	addi	r6,r6,-22812
     630:	014000b4 	movhi	r5,2
     634:	2969df04 	addi	r5,r5,-22660
     638:	1009883a 	mov	r4,r2
     63c:	0001aac0 	call	1aac <fprintf>
            break;
     640:	00004506 	br	758 <Task_read_PS2+0x470>
          case 46:
          case 115:
            PS2_num = 5;
     644:	00800144 	movi	r2,5
     648:	d0a81315 	stw	r2,-24500(gp)
            debug("5 pressed");
     64c:	d0a00117 	ldw	r2,-32764(gp)
     650:	10800317 	ldw	r2,12(r2)
     654:	01c025c4 	movi	r7,151
     658:	018000b4 	movhi	r6,2
     65c:	31a9b904 	addi	r6,r6,-22812
     660:	014000b4 	movhi	r5,2
     664:	2969e504 	addi	r5,r5,-22636
     668:	1009883a 	mov	r4,r2
     66c:	0001aac0 	call	1aac <fprintf>
            break;
     670:	00003906 	br	758 <Task_read_PS2+0x470>
          case 54:
          case 116:
            PS2_num = 6;
     674:	00800184 	movi	r2,6
     678:	d0a81315 	stw	r2,-24500(gp)
            debug("6 pressed");
     67c:	d0a00117 	ldw	r2,-32764(gp)
     680:	10800317 	ldw	r2,12(r2)
     684:	01c02704 	movi	r7,156
     688:	018000b4 	movhi	r6,2
     68c:	31a9b904 	addi	r6,r6,-22812
     690:	014000b4 	movhi	r5,2
     694:	2969eb04 	addi	r5,r5,-22612
     698:	1009883a 	mov	r4,r2
     69c:	0001aac0 	call	1aac <fprintf>
            break;
     6a0:	00002d06 	br	758 <Task_read_PS2+0x470>
          case 61:
          case 108:
            PS2_num = 7;
     6a4:	008001c4 	movi	r2,7
     6a8:	d0a81315 	stw	r2,-24500(gp)
            debug("7 pressed");
     6ac:	d0a00117 	ldw	r2,-32764(gp)
     6b0:	10800317 	ldw	r2,12(r2)
     6b4:	01c02844 	movi	r7,161
     6b8:	018000b4 	movhi	r6,2
     6bc:	31a9b904 	addi	r6,r6,-22812
     6c0:	014000b4 	movhi	r5,2
     6c4:	2969f104 	addi	r5,r5,-22588
     6c8:	1009883a 	mov	r4,r2
     6cc:	0001aac0 	call	1aac <fprintf>
            break;
     6d0:	00002106 	br	758 <Task_read_PS2+0x470>
          case 62:
          case 117:
            PS2_num = 8;
     6d4:	00800204 	movi	r2,8
     6d8:	d0a81315 	stw	r2,-24500(gp)
            debug("8 pressed");
     6dc:	d0a00117 	ldw	r2,-32764(gp)
     6e0:	10800317 	ldw	r2,12(r2)
     6e4:	01c02984 	movi	r7,166
     6e8:	018000b4 	movhi	r6,2
     6ec:	31a9b904 	addi	r6,r6,-22812
     6f0:	014000b4 	movhi	r5,2
     6f4:	2969f704 	addi	r5,r5,-22564
     6f8:	1009883a 	mov	r4,r2
     6fc:	0001aac0 	call	1aac <fprintf>
            break;
     700:	00001506 	br	758 <Task_read_PS2+0x470>
          case 70:
          case 125:
            PS2_num = 9;
     704:	00800244 	movi	r2,9
     708:	d0a81315 	stw	r2,-24500(gp)
            debug("9 pressed");
     70c:	d0a00117 	ldw	r2,-32764(gp)
     710:	10800317 	ldw	r2,12(r2)
     714:	01c02ac4 	movi	r7,171
     718:	018000b4 	movhi	r6,2
     71c:	31a9b904 	addi	r6,r6,-22812
     720:	014000b4 	movhi	r5,2
     724:	2969fd04 	addi	r5,r5,-22540
     728:	1009883a 	mov	r4,r2
     72c:	0001aac0 	call	1aac <fprintf>
            break;
     730:	00000906 	br	758 <Task_read_PS2+0x470>
          default:
            debug("Nothing Pressed");
     734:	d0a00117 	ldw	r2,-32764(gp)
     738:	10800317 	ldw	r2,12(r2)
     73c:	01c02b84 	movi	r7,174
     740:	018000b4 	movhi	r6,2
     744:	31a9b904 	addi	r6,r6,-22812
     748:	014000b4 	movhi	r5,2
     74c:	296a0304 	addi	r5,r5,-22516
     750:	1009883a 	mov	r4,r2
     754:	0001aac0 	call	1aac <fprintf>
        }
      }
    }

    if ((state == CODE || state == PROG) && PS2_num != -1) {
     758:	d0a81a17 	ldw	r2,-24472(gp)
     75c:	10800120 	cmpeqi	r2,r2,4
     760:	1000031e 	bne	r2,zero,770 <Task_read_PS2+0x488>
     764:	d0a81a17 	ldw	r2,-24472(gp)
     768:	10800158 	cmpnei	r2,r2,5
     76c:	10002f1e 	bne	r2,zero,82c <Task_read_PS2+0x544>
     770:	d0a81317 	ldw	r2,-24500(gp)
     774:	10bfffe0 	cmpeqi	r2,r2,-1
     778:	10002c1e 	bne	r2,zero,82c <Task_read_PS2+0x544>

      OSSemPend(SEM_timer_code, 0, &err);
     77c:	d0a82417 	ldw	r2,-24432(gp)
     780:	d1a82004 	addi	r6,gp,-24448
     784:	000b883a 	mov	r5,zero
     788:	1009883a 	mov	r4,r2
     78c:	00144b80 	call	144b8 <OSSemPend>

      if (cur_input_idx % 2 == 1)
     790:	d0e82217 	ldw	r3,-24440(gp)
     794:	00a00034 	movhi	r2,32768
     798:	10800044 	addi	r2,r2,1
     79c:	1884703a 	and	r2,r3,r2
     7a0:	1000040e 	bge	r2,zero,7b4 <Task_read_PS2+0x4cc>
     7a4:	10bfffc4 	addi	r2,r2,-1
     7a8:	00ffff84 	movi	r3,-2
     7ac:	10c4b03a 	or	r2,r2,r3
     7b0:	10800044 	addi	r2,r2,1
     7b4:	10800058 	cmpnei	r2,r2,1
     7b8:	10000a1e 	bne	r2,zero,7e4 <Task_read_PS2+0x4fc>
        cur_input_code[cur_input_idx++] = timer_code;
     7bc:	d0e82217 	ldw	r3,-24440(gp)
     7c0:	18800044 	addi	r2,r3,1
     7c4:	d0a82215 	stw	r2,-24440(gp)
     7c8:	d1282717 	ldw	r4,-24420(gp)
     7cc:	008000b4 	movhi	r2,2
     7d0:	10aced04 	addi	r2,r2,-19532
     7d4:	18c7883a 	add	r3,r3,r3
     7d8:	18c7883a 	add	r3,r3,r3
     7dc:	10c5883a 	add	r2,r2,r3
     7e0:	11000015 	stw	r4,0(r2)

      state_timer = 0;
     7e4:	d0281815 	stw	zero,-24480(gp)
      timer_code = -1;
     7e8:	00bfffc4 	movi	r2,-1
     7ec:	d0a82715 	stw	r2,-24420(gp)

      OSSemPost(SEM_timer_code);
     7f0:	d0a82417 	ldw	r2,-24432(gp)
     7f4:	1009883a 	mov	r4,r2
     7f8:	00148300 	call	14830 <OSSemPost>

      cur_input_code[cur_input_idx++] = PS2_num;
     7fc:	d0e82217 	ldw	r3,-24440(gp)
     800:	18800044 	addi	r2,r3,1
     804:	d0a82215 	stw	r2,-24440(gp)
     808:	d1281317 	ldw	r4,-24500(gp)
     80c:	008000b4 	movhi	r2,2
     810:	10aced04 	addi	r2,r2,-19532
     814:	18c7883a 	add	r3,r3,r3
     818:	18c7883a 	add	r3,r3,r3
     81c:	10c5883a 	add	r2,r2,r3
     820:	11000015 	stw	r4,0(r2)
      PS2_num = -1; /* resetting PS2_num */
     824:	00bfffc4 	movi	r2,-1
     828:	d0a81315 	stw	r2,-24500(gp)
    }

    if (cur_input_idx >= MAX_DIGITS)
     82c:	d0a82217 	ldw	r2,-24440(gp)
     830:	10800110 	cmplti	r2,r2,4
     834:	1000011e 	bne	r2,zero,83c <Task_read_PS2+0x554>
      cur_input_idx = 0;
     838:	d0282215 	stw	zero,-24440(gp)

    if (state == PROG && KEY1_flag && cur_input_code[MIN_DIGITS - 1] != -1)
     83c:	d0a81a17 	ldw	r2,-24472(gp)
     840:	10800158 	cmpnei	r2,r2,5
     844:	10000a1e 	bne	r2,zero,870 <Task_read_PS2+0x588>
     848:	d0a81f17 	ldw	r2,-24452(gp)
     84c:	10000826 	beq	r2,zero,870 <Task_read_PS2+0x588>
     850:	008000b4 	movhi	r2,2
     854:	10aced04 	addi	r2,r2,-19532
     858:	10800317 	ldw	r2,12(r2)
     85c:	10bfffe0 	cmpeqi	r2,r2,-1
     860:	1000031e 	bne	r2,zero,870 <Task_read_PS2+0x588>
      OSSemPost(SEM_read_PS2_done);
     864:	d0a81b17 	ldw	r2,-24468(gp)
     868:	1009883a 	mov	r4,r2
     86c:	00148300 	call	14830 <OSSemPost>

    OSTimeDlyHMSM(0, 0, 0, 100);
     870:	01c01904 	movi	r7,100
     874:	000d883a 	mov	r6,zero
     878:	000b883a 	mov	r5,zero
     87c:	0009883a 	mov	r4,zero
     880:	00163c00 	call	163c0 <OSTimeDlyHMSM>
  }
     884:	003eab06 	br	334 <Task_read_PS2+0x4c>

00000888 <Task_read_KEYs>:
}

void
Task_read_KEYs(void* pdata)
{
     888:	defff904 	addi	sp,sp,-28
     88c:	dfc00615 	stw	ra,24(sp)
     890:	df000515 	stw	fp,20(sp)
     894:	df000504 	addi	fp,sp,20
     898:	e13fff15 	stw	r4,-4(fp)
  debug("Started: Task_read_KEYs");
     89c:	d0a00117 	ldw	r2,-32764(gp)
     8a0:	10800317 	ldw	r2,12(r2)
     8a4:	01c03404 	movi	r7,208
     8a8:	018000b4 	movhi	r6,2
     8ac:	31a9b904 	addi	r6,r6,-22812
     8b0:	014000b4 	movhi	r5,2
     8b4:	296a0b04 	addi	r5,r5,-22484
     8b8:	1009883a 	mov	r4,r2
     8bc:	0001aac0 	call	1aac <fprintf>

  while (1) {
    OSSemPend(SEM_read_KEYS, 0, &err);
     8c0:	d0a82917 	ldw	r2,-24412(gp)
     8c4:	d1a82004 	addi	r6,gp,-24448
     8c8:	000b883a 	mov	r5,zero
     8cc:	1009883a 	mov	r4,r2
     8d0:	00144b80 	call	144b8 <OSSemPend>
    // debug("%u: \tState: %s", OSTime, Get_state_name(state));
    /***************************************************/
    /* Signaling Semaphores used for Activity Control */
    /***************************************************/
    if (state == LOCK || state == CODE)
     8d4:	d0a81a17 	ldw	r2,-24472(gp)
     8d8:	108000e0 	cmpeqi	r2,r2,3
     8dc:	1000031e 	bne	r2,zero,8ec <Task_read_KEYs+0x64>
     8e0:	d0a81a17 	ldw	r2,-24472(gp)
     8e4:	10800118 	cmpnei	r2,r2,4
     8e8:	1000031e 	bne	r2,zero,8f8 <Task_read_KEYs+0x70>
      OSSemPost(SEM_read_PS2);
     8ec:	d0a82817 	ldw	r2,-24416(gp)
     8f0:	1009883a 	mov	r4,r2
     8f4:	00148300 	call	14830 <OSSemPost>

    if (state == CODE || state == PROG || state == CLOSE || state || VERIFIED)
      OSSemPost(SEM_timer_start);
     8f8:	d0a81917 	ldw	r2,-24476(gp)
     8fc:	1009883a 	mov	r4,r2
     900:	00148300 	call	14830 <OSSemPost>

    /* OPEN & CLOSE STATE LED */
    if (state == CLOSE) {
     904:	d0a81a17 	ldw	r2,-24472(gp)
     908:	10800098 	cmpnei	r2,r2,2
     90c:	10000e1e 	bne	r2,zero,948 <Task_read_KEYs+0xc0>
      *(LEDG_ptr) |= 0x01;
     910:	00bfc834 	movhi	r2,65312
     914:	10800404 	addi	r2,r2,16
     918:	00ffc834 	movhi	r3,65312
     91c:	18c00404 	addi	r3,r3,16
     920:	18c00017 	ldw	r3,0(r3)
     924:	18c00054 	ori	r3,r3,1
     928:	10c00015 	stw	r3,0(r2)
      *(LEDR_ptr) &= ~0x01;
     92c:	00bfc834 	movhi	r2,65312
     930:	00ffc834 	movhi	r3,65312
     934:	19000017 	ldw	r4,0(r3)
     938:	00ffff84 	movi	r3,-2
     93c:	20c6703a 	and	r3,r4,r3
     940:	10c00015 	stw	r3,0(r2)
     944:	00001006 	br	988 <Task_read_KEYs+0x100>
    } else if (state == OPEN) {
     948:	d0a81a17 	ldw	r2,-24472(gp)
     94c:	10800058 	cmpnei	r2,r2,1
     950:	10000d1e 	bne	r2,zero,988 <Task_read_KEYs+0x100>
      *(LEDG_ptr) &= ~0x01;
     954:	00bfc834 	movhi	r2,65312
     958:	10800404 	addi	r2,r2,16
     95c:	00ffc834 	movhi	r3,65312
     960:	18c00404 	addi	r3,r3,16
     964:	19000017 	ldw	r4,0(r3)
     968:	00ffff84 	movi	r3,-2
     96c:	20c6703a 	and	r3,r4,r3
     970:	10c00015 	stw	r3,0(r2)
      *(LEDR_ptr) |= 0x01;
     974:	00bfc834 	movhi	r2,65312
     978:	00ffc834 	movhi	r3,65312
     97c:	18c00017 	ldw	r3,0(r3)
     980:	18c00054 	ori	r3,r3,1
     984:	10c00015 	stw	r3,0(r2)
    }

    /**************************************************/
    /**************************************************/

    if (KEY1_flag)
     988:	d0a81f17 	ldw	r2,-24452(gp)
     98c:	10000126 	beq	r2,zero,994 <Task_read_KEYs+0x10c>
      KEY1_flag = 0;
     990:	d0281f15 	stw	zero,-24452(gp)

    Check_KEYs(0, &KEY1_flag, 0, 0);
     994:	000f883a 	mov	r7,zero
     998:	000d883a 	mov	r6,zero
     99c:	d1681f04 	addi	r5,gp,-24452
     9a0:	0009883a 	mov	r4,zero
     9a4:	00019d80 	call	19d8 <Check_KEYs>

    if (KEY1_flag)
     9a8:	d0a81f17 	ldw	r2,-24452(gp)
     9ac:	10000b26 	beq	r2,zero,9dc <Task_read_KEYs+0x154>
      debug("KEY1_flag: %d", KEY1_flag);
     9b0:	d0a00117 	ldw	r2,-32764(gp)
     9b4:	10c00317 	ldw	r3,12(r2)
     9b8:	d0a81f17 	ldw	r2,-24452(gp)
     9bc:	d8800015 	stw	r2,0(sp)
     9c0:	01c03c04 	movi	r7,240
     9c4:	018000b4 	movhi	r6,2
     9c8:	31a9b904 	addi	r6,r6,-22812
     9cc:	014000b4 	movhi	r5,2
     9d0:	296a1504 	addi	r5,r5,-22444
     9d4:	1809883a 	mov	r4,r3
     9d8:	0001aac0 	call	1aac <fprintf>

    /* Logic for getting to Open State */
    if ((state == INIT && SW0_VALUE == 1) || (state == ADD_CODE && KEY1_flag) ||
     9dc:	d0a81a17 	ldw	r2,-24472(gp)
     9e0:	1000051e 	bne	r2,zero,9f8 <Task_read_KEYs+0x170>
     9e4:	00bfc834 	movhi	r2,65312
     9e8:	10801004 	addi	r2,r2,64
     9ec:	10800017 	ldw	r2,0(r2)
     9f0:	1080004c 	andi	r2,r2,1
     9f4:	10001a1e 	bne	r2,zero,a60 <Task_read_KEYs+0x1d8>
     9f8:	d0a81a17 	ldw	r2,-24472(gp)
     9fc:	108001d8 	cmpnei	r2,r2,7
     a00:	1000021e 	bne	r2,zero,a0c <Task_read_KEYs+0x184>
     a04:	d0a81f17 	ldw	r2,-24452(gp)
     a08:	1000151e 	bne	r2,zero,a60 <Task_read_KEYs+0x1d8>

        ((state == VERIFIED) && (state_timer < 10) && (SW0_VALUE == 1)) ||
     a0c:	d0a81a17 	ldw	r2,-24472(gp)

    if (KEY1_flag)
      debug("KEY1_flag: %d", KEY1_flag);

    /* Logic for getting to Open State */
    if ((state == INIT && SW0_VALUE == 1) || (state == ADD_CODE && KEY1_flag) ||
     a10:	10800198 	cmpnei	r2,r2,6
     a14:	1000081e 	bne	r2,zero,a38 <Task_read_KEYs+0x1b0>

        ((state == VERIFIED) && (state_timer < 10) && (SW0_VALUE == 1)) ||
     a18:	d0a81817 	ldw	r2,-24480(gp)
     a1c:	10800288 	cmpgei	r2,r2,10
     a20:	1000051e 	bne	r2,zero,a38 <Task_read_KEYs+0x1b0>
     a24:	00bfc834 	movhi	r2,65312
     a28:	10801004 	addi	r2,r2,64
     a2c:	10800017 	ldw	r2,0(r2)
     a30:	1080004c 	andi	r2,r2,1
     a34:	10000a1e 	bne	r2,zero,a60 <Task_read_KEYs+0x1d8>

        (state == PROG && KEY1_flag && cur_input_code[MIN_DIGITS - 1] == -1)) {
     a38:	d0a81a17 	ldw	r2,-24472(gp)
      debug("KEY1_flag: %d", KEY1_flag);

    /* Logic for getting to Open State */
    if ((state == INIT && SW0_VALUE == 1) || (state == ADD_CODE && KEY1_flag) ||

        ((state == VERIFIED) && (state_timer < 10) && (SW0_VALUE == 1)) ||
     a3c:	10800158 	cmpnei	r2,r2,5
     a40:	1000121e 	bne	r2,zero,a8c <Task_read_KEYs+0x204>

        (state == PROG && KEY1_flag && cur_input_code[MIN_DIGITS - 1] == -1)) {
     a44:	d0a81f17 	ldw	r2,-24452(gp)
     a48:	10001026 	beq	r2,zero,a8c <Task_read_KEYs+0x204>
     a4c:	008000b4 	movhi	r2,2
     a50:	10aced04 	addi	r2,r2,-19532
     a54:	10800317 	ldw	r2,12(r2)
     a58:	10bfffd8 	cmpnei	r2,r2,-1
     a5c:	10000b1e 	bne	r2,zero,a8c <Task_read_KEYs+0x204>

      OSSemPend(SEM_state_change, 0, &err);
     a60:	d0a82117 	ldw	r2,-24444(gp)
     a64:	d1a82004 	addi	r6,gp,-24448
     a68:	000b883a 	mov	r5,zero
     a6c:	1009883a 	mov	r4,r2
     a70:	00144b80 	call	144b8 <OSSemPend>
      state = OPEN;
     a74:	00800044 	movi	r2,1
     a78:	d0a81a15 	stw	r2,-24472(gp)
      state_timer = 0;
     a7c:	d0281815 	stw	zero,-24480(gp)
      OSSemPost(SEM_state_change);
     a80:	d0a82117 	ldw	r2,-24444(gp)
     a84:	1009883a 	mov	r4,r2
     a88:	00148300 	call	14830 <OSSemPost>
    }

    /* Logic for moving to CLOSE State */
    if ((state == INIT && SW0_VALUE == 0) ||
     a8c:	d0a81a17 	ldw	r2,-24472(gp)
     a90:	1000051e 	bne	r2,zero,aa8 <Task_read_KEYs+0x220>
     a94:	00bfc834 	movhi	r2,65312
     a98:	10801004 	addi	r2,r2,64
     a9c:	10800017 	ldw	r2,0(r2)
     aa0:	1080004c 	andi	r2,r2,1
     aa4:	10000b26 	beq	r2,zero,ad4 <Task_read_KEYs+0x24c>
        (state == VERIFIED && state_timer >= 10 && SW0_VALUE == 0)) {
     aa8:	d0a81a17 	ldw	r2,-24472(gp)
      state_timer = 0;
      OSSemPost(SEM_state_change);
    }

    /* Logic for moving to CLOSE State */
    if ((state == INIT && SW0_VALUE == 0) ||
     aac:	10800198 	cmpnei	r2,r2,6
     ab0:	1000131e 	bne	r2,zero,b00 <Task_read_KEYs+0x278>
        (state == VERIFIED && state_timer >= 10 && SW0_VALUE == 0)) {
     ab4:	d0a81817 	ldw	r2,-24480(gp)
     ab8:	10800290 	cmplti	r2,r2,10
     abc:	1000101e 	bne	r2,zero,b00 <Task_read_KEYs+0x278>
     ac0:	00bfc834 	movhi	r2,65312
     ac4:	10801004 	addi	r2,r2,64
     ac8:	10800017 	ldw	r2,0(r2)
     acc:	1080004c 	andi	r2,r2,1
     ad0:	10000b1e 	bne	r2,zero,b00 <Task_read_KEYs+0x278>

      OSSemPend(SEM_state_change, 0, &err);
     ad4:	d0a82117 	ldw	r2,-24444(gp)
     ad8:	d1a82004 	addi	r6,gp,-24448
     adc:	000b883a 	mov	r5,zero
     ae0:	1009883a 	mov	r4,r2
     ae4:	00144b80 	call	144b8 <OSSemPend>
      state = CLOSE;
     ae8:	00800084 	movi	r2,2
     aec:	d0a81a15 	stw	r2,-24472(gp)
      state_timer = 0;
     af0:	d0281815 	stw	zero,-24480(gp)
      OSSemPost(SEM_state_change);
     af4:	d0a82117 	ldw	r2,-24444(gp)
     af8:	1009883a 	mov	r4,r2
     afc:	00148300 	call	14830 <OSSemPost>
    }

    /* Logics for Transitioning to PROG State */
    if (state == OPEN && SW0_VALUE == 1 && KEY1_flag == 1) {
     b00:	d0a81a17 	ldw	r2,-24472(gp)
     b04:	10800058 	cmpnei	r2,r2,1
     b08:	1000131e 	bne	r2,zero,b58 <Task_read_KEYs+0x2d0>
     b0c:	00bfc834 	movhi	r2,65312
     b10:	10801004 	addi	r2,r2,64
     b14:	10800017 	ldw	r2,0(r2)
     b18:	1080004c 	andi	r2,r2,1
     b1c:	10000e26 	beq	r2,zero,b58 <Task_read_KEYs+0x2d0>
     b20:	d0a81f17 	ldw	r2,-24452(gp)
     b24:	10800058 	cmpnei	r2,r2,1
     b28:	10000b1e 	bne	r2,zero,b58 <Task_read_KEYs+0x2d0>

      OSSemPend(SEM_state_change, 0, &err);
     b2c:	d0a82117 	ldw	r2,-24444(gp)
     b30:	d1a82004 	addi	r6,gp,-24448
     b34:	000b883a 	mov	r5,zero
     b38:	1009883a 	mov	r4,r2
     b3c:	00144b80 	call	144b8 <OSSemPend>
      state = PROG;
     b40:	00800144 	movi	r2,5
     b44:	d0a81a15 	stw	r2,-24472(gp)
      state_timer = 0;
     b48:	d0281815 	stw	zero,-24480(gp)
      OSSemPost(SEM_state_change);
     b4c:	d0a82117 	ldw	r2,-24444(gp)
     b50:	1009883a 	mov	r4,r2
     b54:	00148300 	call	14830 <OSSemPost>
    }

    /* Signalling tasks associated with PROG State */
    if (state == PROG && KEY1_flag && cur_input_code[MIN_DIGITS - 1] != -1)
     b58:	d0a81a17 	ldw	r2,-24472(gp)
     b5c:	10800158 	cmpnei	r2,r2,5
     b60:	10000a1e 	bne	r2,zero,b8c <Task_read_KEYs+0x304>
     b64:	d0a81f17 	ldw	r2,-24452(gp)
     b68:	10000826 	beq	r2,zero,b8c <Task_read_KEYs+0x304>
     b6c:	008000b4 	movhi	r2,2
     b70:	10aced04 	addi	r2,r2,-19532
     b74:	10800317 	ldw	r2,12(r2)
     b78:	10bfffe0 	cmpeqi	r2,r2,-1
     b7c:	1000031e 	bne	r2,zero,b8c <Task_read_KEYs+0x304>
      OSSemPost(SEM_add_code);
     b80:	d0a81e17 	ldw	r2,-24456(gp)
     b84:	1009883a 	mov	r4,r2
     b88:	00148300 	call	14830 <OSSemPost>

    /* Logics for Transitioning to LOCK State */
    if ((state == CLOSE && state_timer >= 5) ||
     b8c:	d0a81a17 	ldw	r2,-24472(gp)
     b90:	10800098 	cmpnei	r2,r2,2
     b94:	1000031e 	bne	r2,zero,ba4 <Task_read_KEYs+0x31c>
     b98:	d0a81817 	ldw	r2,-24480(gp)
     b9c:	10800148 	cmpgei	r2,r2,5
     ba0:	1000081e 	bne	r2,zero,bc4 <Task_read_KEYs+0x33c>
        (SW0_VALUE == 0 && state == OPEN)) {
     ba4:	00bfc834 	movhi	r2,65312
     ba8:	10801004 	addi	r2,r2,64
     bac:	10800017 	ldw	r2,0(r2)
     bb0:	1080004c 	andi	r2,r2,1
    /* Signalling tasks associated with PROG State */
    if (state == PROG && KEY1_flag && cur_input_code[MIN_DIGITS - 1] != -1)
      OSSemPost(SEM_add_code);

    /* Logics for Transitioning to LOCK State */
    if ((state == CLOSE && state_timer >= 5) ||
     bb4:	1000131e 	bne	r2,zero,c04 <Task_read_KEYs+0x37c>
        (SW0_VALUE == 0 && state == OPEN)) {
     bb8:	d0a81a17 	ldw	r2,-24472(gp)
     bbc:	10800058 	cmpnei	r2,r2,1
     bc0:	1000101e 	bne	r2,zero,c04 <Task_read_KEYs+0x37c>

      OSSemPend(SEM_state_change, 0, &err);
     bc4:	d0a82117 	ldw	r2,-24444(gp)
     bc8:	d1a82004 	addi	r6,gp,-24448
     bcc:	000b883a 	mov	r5,zero
     bd0:	1009883a 	mov	r4,r2
     bd4:	00144b80 	call	144b8 <OSSemPend>
      state = LOCK;
     bd8:	008000c4 	movi	r2,3
     bdc:	d0a81a15 	stw	r2,-24472(gp)
      state_timer = 0;
     be0:	d0281815 	stw	zero,-24480(gp)
      OSSemPend(SEM_timer_start, 0, &err); /* pausing state timer task here */
     be4:	d0a81917 	ldw	r2,-24476(gp)
     be8:	d1a82004 	addi	r6,gp,-24448
     bec:	000b883a 	mov	r5,zero
     bf0:	1009883a 	mov	r4,r2
     bf4:	00144b80 	call	144b8 <OSSemPend>
      OSSemPost(SEM_state_change);
     bf8:	d0a82117 	ldw	r2,-24444(gp)
     bfc:	1009883a 	mov	r4,r2
     c00:	00148300 	call	14830 <OSSemPost>
    }

    /* Logics for Transitioning to CODE State */
    if (state == LOCK && PS2_num != -1) {
     c04:	d0a81a17 	ldw	r2,-24472(gp)
     c08:	108000d8 	cmpnei	r2,r2,3
     c0c:	10000e1e 	bne	r2,zero,c48 <Task_read_KEYs+0x3c0>
     c10:	d0a81317 	ldw	r2,-24500(gp)
     c14:	10bfffe0 	cmpeqi	r2,r2,-1
     c18:	10000b1e 	bne	r2,zero,c48 <Task_read_KEYs+0x3c0>
      OSSemPend(SEM_state_change, 0, &err);
     c1c:	d0a82117 	ldw	r2,-24444(gp)
     c20:	d1a82004 	addi	r6,gp,-24448
     c24:	000b883a 	mov	r5,zero
     c28:	1009883a 	mov	r4,r2
     c2c:	00144b80 	call	144b8 <OSSemPend>
      state = CODE;
     c30:	00800104 	movi	r2,4
     c34:	d0a81a15 	stw	r2,-24472(gp)
      state_timer = 0;
     c38:	d0281815 	stw	zero,-24480(gp)
      OSSemPost(SEM_state_change);
     c3c:	d0a82117 	ldw	r2,-24444(gp)
     c40:	1009883a 	mov	r4,r2
     c44:	00148300 	call	14830 <OSSemPost>
    }

    /* Logics for transitioning to VERIFIED State */
    int matched = 0;
     c48:	e03ffc15 	stw	zero,-16(fp)

    if (state == CODE && KEY1_flag) {
     c4c:	d0a81a17 	ldw	r2,-24472(gp)
     c50:	10800118 	cmpnei	r2,r2,4
     c54:	10006a1e 	bne	r2,zero,e00 <Task_read_KEYs+0x578>
     c58:	d0a81f17 	ldw	r2,-24452(gp)
     c5c:	10006826 	beq	r2,zero,e00 <Task_read_KEYs+0x578>

      for (int i = 0; i < MAX_CODES; i++) {
     c60:	e03ffd15 	stw	zero,-12(fp)
     c64:	00005906 	br	dcc <Task_read_KEYs+0x544>
        for (int j = 0; j < MAX_DIGITS; j++) {
     c68:	e03ffe15 	stw	zero,-8(fp)
     c6c:	00004906 	br	d94 <Task_read_KEYs+0x50c>
          if (stored_codes[i][j] != cur_input_code[j] && i >= MAX_CODES &&
     c70:	008000b4 	movhi	r2,2
     c74:	10acf104 	addi	r2,r2,-19516
     c78:	e0fffd17 	ldw	r3,-12(fp)
     c7c:	18c7883a 	add	r3,r3,r3
     c80:	18c9883a 	add	r4,r3,r3
     c84:	e0fffe17 	ldw	r3,-8(fp)
     c88:	20c7883a 	add	r3,r4,r3
     c8c:	18c7883a 	add	r3,r3,r3
     c90:	18c7883a 	add	r3,r3,r3
     c94:	10c5883a 	add	r2,r2,r3
     c98:	11000017 	ldw	r4,0(r2)
     c9c:	008000b4 	movhi	r2,2
     ca0:	10aced04 	addi	r2,r2,-19532
     ca4:	e0fffe17 	ldw	r3,-8(fp)
     ca8:	18c7883a 	add	r3,r3,r3
     cac:	18c7883a 	add	r3,r3,r3
     cb0:	10c5883a 	add	r2,r2,r3
     cb4:	10800017 	ldw	r2,0(r2)
     cb8:	20800626 	beq	r4,r2,cd4 <Task_read_KEYs+0x44c>
     cbc:	e0bffd17 	ldw	r2,-12(fp)
     cc0:	10800410 	cmplti	r2,r2,16
     cc4:	1000031e 	bne	r2,zero,cd4 <Task_read_KEYs+0x44c>
     cc8:	e0bffe17 	ldw	r2,-8(fp)
     ccc:	108000d0 	cmplti	r2,r2,3
     cd0:	10004226 	beq	r2,zero,ddc <Task_read_KEYs+0x554>
              j >= MAX_DIGITS - 1)
            goto fail;

          if (stored_codes[i][j] != cur_input_code[j])
     cd4:	008000b4 	movhi	r2,2
     cd8:	10acf104 	addi	r2,r2,-19516
     cdc:	e0fffd17 	ldw	r3,-12(fp)
     ce0:	18c7883a 	add	r3,r3,r3
     ce4:	18c9883a 	add	r4,r3,r3
     ce8:	e0fffe17 	ldw	r3,-8(fp)
     cec:	20c7883a 	add	r3,r4,r3
     cf0:	18c7883a 	add	r3,r3,r3
     cf4:	18c7883a 	add	r3,r3,r3
     cf8:	10c5883a 	add	r2,r2,r3
     cfc:	11000017 	ldw	r4,0(r2)
     d00:	008000b4 	movhi	r2,2
     d04:	10aced04 	addi	r2,r2,-19532
     d08:	e0fffe17 	ldw	r3,-8(fp)
     d0c:	18c7883a 	add	r3,r3,r3
     d10:	18c7883a 	add	r3,r3,r3
     d14:	10c5883a 	add	r2,r2,r3
     d18:	10800017 	ldw	r2,0(r2)
     d1c:	2080191e 	bne	r4,r2,d84 <Task_read_KEYs+0x4fc>
            continue;

          /* if we have reached the last element of the array */
          /* and and all digits matched */
          if (j >= MAX_DIGITS - 1) {
     d20:	e0bffe17 	ldw	r2,-8(fp)
     d24:	108000d0 	cmplti	r2,r2,3
     d28:	1000171e 	bne	r2,zero,d88 <Task_read_KEYs+0x500>
            debug("ACCESS CODE MATCHED!!!");
     d2c:	d0a00117 	ldw	r2,-32764(gp)
     d30:	10800317 	ldw	r2,12(r2)
     d34:	01c04e84 	movi	r7,314
     d38:	018000b4 	movhi	r6,2
     d3c:	31a9b904 	addi	r6,r6,-22812
     d40:	014000b4 	movhi	r5,2
     d44:	296a1c04 	addi	r5,r5,-22416
     d48:	1009883a 	mov	r4,r2
     d4c:	0001aac0 	call	1aac <fprintf>
            OSSemPend(SEM_state_change, 0, &err);
     d50:	d0a82117 	ldw	r2,-24444(gp)
     d54:	d1a82004 	addi	r6,gp,-24448
     d58:	000b883a 	mov	r5,zero
     d5c:	1009883a 	mov	r4,r2
     d60:	00144b80 	call	144b8 <OSSemPend>
            state = VERIFIED;
     d64:	00800184 	movi	r2,6
     d68:	d0a81a15 	stw	r2,-24472(gp)
            OSSemPost(SEM_state_change);
     d6c:	d0a82117 	ldw	r2,-24444(gp)
     d70:	1009883a 	mov	r4,r2
     d74:	00148300 	call	14830 <OSSemPost>
            matched = 1;
     d78:	00800044 	movi	r2,1
     d7c:	e0bffc15 	stw	r2,-16(fp)
            break;
     d80:	00000706 	br	da0 <Task_read_KEYs+0x518>
          if (stored_codes[i][j] != cur_input_code[j] && i >= MAX_CODES &&
              j >= MAX_DIGITS - 1)
            goto fail;

          if (stored_codes[i][j] != cur_input_code[j])
            continue;
     d84:	0001883a 	nop
    int matched = 0;

    if (state == CODE && KEY1_flag) {

      for (int i = 0; i < MAX_CODES; i++) {
        for (int j = 0; j < MAX_DIGITS; j++) {
     d88:	e0bffe17 	ldw	r2,-8(fp)
     d8c:	10800044 	addi	r2,r2,1
     d90:	e0bffe15 	stw	r2,-8(fp)
     d94:	e0bffe17 	ldw	r2,-8(fp)
     d98:	10800110 	cmplti	r2,r2,4
     d9c:	103fb41e 	bne	r2,zero,c70 <Task_read_KEYs+0x3e8>
            matched = 1;
            break;
          }
        }

        if (matched == 1) {
     da0:	e0bffc17 	ldw	r2,-16(fp)
     da4:	10800058 	cmpnei	r2,r2,1
     da8:	1000051e 	bne	r2,zero,dc0 <Task_read_KEYs+0x538>
          OSSemPost(SEM_flash_success); /* Signal flash fail if not matched! */
     dac:	d0a81d17 	ldw	r2,-24460(gp)
     db0:	1009883a 	mov	r4,r2
     db4:	00148300 	call	14830 <OSSemPost>
          /* resetting input digits */
          reset_PS2_input();
     db8:	00002840 	call	284 <reset_PS2_input>
          break;
     dbc:	00000806 	br	de0 <Task_read_KEYs+0x558>
    /* Logics for transitioning to VERIFIED State */
    int matched = 0;

    if (state == CODE && KEY1_flag) {

      for (int i = 0; i < MAX_CODES; i++) {
     dc0:	e0bffd17 	ldw	r2,-12(fp)
     dc4:	10800044 	addi	r2,r2,1
     dc8:	e0bffd15 	stw	r2,-12(fp)
     dcc:	e0bffd17 	ldw	r2,-12(fp)
     dd0:	10800410 	cmplti	r2,r2,16
     dd4:	103fa41e 	bne	r2,zero,c68 <Task_read_KEYs+0x3e0>
     dd8:	00000106 	br	de0 <Task_read_KEYs+0x558>
        for (int j = 0; j < MAX_DIGITS; j++) {
          if (stored_codes[i][j] != cur_input_code[j] && i >= MAX_CODES &&
              j >= MAX_DIGITS - 1)
            goto fail;
     ddc:	0001883a 	nop
          break;
        }
      }

    fail:
      if (matched == 0)
     de0:	e0bffc17 	ldw	r2,-16(fp)
     de4:	1000031e 	bne	r2,zero,df4 <Task_read_KEYs+0x56c>
        OSSemPost(SEM_flash_fail); /* Signal flash fail if not matched! */
     de8:	d0a82617 	ldw	r2,-24424(gp)
     dec:	1009883a 	mov	r4,r2
     df0:	00148300 	call	14830 <OSSemPost>

      matched = 1; /* Initializing rest of the array elements to -1 */
     df4:	00800044 	movi	r2,1
     df8:	e0bffc15 	stw	r2,-16(fp)
      reset_PS2_input();
     dfc:	00002840 	call	284 <reset_PS2_input>
    }

    OSSemPost(SEM_read_KEYS);
     e00:	d0a82917 	ldw	r2,-24412(gp)
     e04:	1009883a 	mov	r4,r2
     e08:	00148300 	call	14830 <OSSemPost>
    OSTimeDlyHMSM(0, 0, 0, 300); /* Delay */
     e0c:	01c04b04 	movi	r7,300
     e10:	000d883a 	mov	r6,zero
     e14:	000b883a 	mov	r5,zero
     e18:	0009883a 	mov	r4,zero
     e1c:	00163c00 	call	163c0 <OSTimeDlyHMSM>
  }
     e20:	003ea706 	br	8c0 <Task_read_KEYs+0x38>

00000e24 <Task_state_timer>:
}

void
Task_state_timer(void* pdata)
{
     e24:	defff704 	addi	sp,sp,-36
     e28:	dfc00815 	stw	ra,32(sp)
     e2c:	df000715 	stw	fp,28(sp)
     e30:	dc400615 	stw	r17,24(sp)
     e34:	dc000515 	stw	r16,20(sp)
     e38:	df000704 	addi	fp,sp,28
     e3c:	e13ffd15 	stw	r4,-12(fp)
  debug("Started: Task_state_timer");
     e40:	d0a00117 	ldw	r2,-32764(gp)
     e44:	10800317 	ldw	r2,12(r2)
     e48:	01c056c4 	movi	r7,347
     e4c:	018000b4 	movhi	r6,2
     e50:	31a9b904 	addi	r6,r6,-22812
     e54:	014000b4 	movhi	r5,2
     e58:	296a2604 	addi	r5,r5,-22376
     e5c:	1009883a 	mov	r4,r2
     e60:	0001aac0 	call	1aac <fprintf>
  while (1) {
    log_info("%u: \tState: %s\t State Time: %ds",
     e64:	d0a00117 	ldw	r2,-32764(gp)
     e68:	14400317 	ldw	r17,12(r2)
     e6c:	d4284917 	ldw	r16,-24284(gp)
     e70:	d0a81a17 	ldw	r2,-24472(gp)
     e74:	1009883a 	mov	r4,r2
     e78:	00018f80 	call	18f8 <Get_state_name>
     e7c:	1007883a 	mov	r3,r2
     e80:	d0a81817 	ldw	r2,-24480(gp)
     e84:	d8800215 	stw	r2,8(sp)
     e88:	d8c00115 	stw	r3,4(sp)
     e8c:	dc000015 	stw	r16,0(sp)
     e90:	01c05804 	movi	r7,352
     e94:	018000b4 	movhi	r6,2
     e98:	31a9b904 	addi	r6,r6,-22812
     e9c:	014000b4 	movhi	r5,2
     ea0:	296a3004 	addi	r5,r5,-22336
     ea4:	8809883a 	mov	r4,r17
     ea8:	0001aac0 	call	1aac <fprintf>
             OSTime,
             Get_state_name(state),
             state_timer);
    if (prev_state != state) {
     eac:	d0e81417 	ldw	r3,-24496(gp)
     eb0:	d0a81a17 	ldw	r2,-24472(gp)
     eb4:	18800b26 	beq	r3,r2,ee4 <Task_state_timer+0xc0>
      OSSemPend(SEM_state_change, 0, &err);
     eb8:	d0a82117 	ldw	r2,-24444(gp)
     ebc:	d1a82004 	addi	r6,gp,-24448
     ec0:	000b883a 	mov	r5,zero
     ec4:	1009883a 	mov	r4,r2
     ec8:	00144b80 	call	144b8 <OSSemPend>
      prev_state = state;
     ecc:	d0a81a17 	ldw	r2,-24472(gp)
     ed0:	d0a81415 	stw	r2,-24496(gp)
      state_timer = 0;
     ed4:	d0281815 	stw	zero,-24480(gp)
      OSSemPost(SEM_state_change);
     ed8:	d0a82117 	ldw	r2,-24444(gp)
     edc:	1009883a 	mov	r4,r2
     ee0:	00148300 	call	14830 <OSSemPost>
    }

    state_timer++;
     ee4:	d0a81817 	ldw	r2,-24480(gp)
     ee8:	10800044 	addi	r2,r2,1
     eec:	d0a81815 	stw	r2,-24480(gp)

    if (state == CODE && timer_code > 5) {
     ef0:	d0a81a17 	ldw	r2,-24472(gp)
     ef4:	10800118 	cmpnei	r2,r2,4
     ef8:	1000121e 	bne	r2,zero,f44 <Task_state_timer+0x120>
     efc:	d0a82717 	ldw	r2,-24420(gp)
     f00:	10800190 	cmplti	r2,r2,6
     f04:	10000f1e 	bne	r2,zero,f44 <Task_state_timer+0x120>
      log_info("Time Out!");
     f08:	d0a00117 	ldw	r2,-32764(gp)
     f0c:	10800317 	ldw	r2,12(r2)
     f10:	01c05ac4 	movi	r7,363
     f14:	018000b4 	movhi	r6,2
     f18:	31a9b904 	addi	r6,r6,-22812
     f1c:	014000b4 	movhi	r5,2
     f20:	296a3c04 	addi	r5,r5,-22288
     f24:	1009883a 	mov	r4,r2
     f28:	0001aac0 	call	1aac <fprintf>
      reset_PS2_input();
     f2c:	00002840 	call	284 <reset_PS2_input>
      OSSemPost(SEM_flash_fail);
     f30:	d0a82617 	ldw	r2,-24424(gp)
     f34:	1009883a 	mov	r4,r2
     f38:	00148300 	call	14830 <OSSemPost>
      state == PROG;
      state_timer = 0;
     f3c:	d0281815 	stw	zero,-24480(gp)
      timer_code = 0;
     f40:	d0282715 	stw	zero,-24420(gp)
    }

    if ((state == CODE || state == PROG) && timer_code < 5)
     f44:	d0a81a17 	ldw	r2,-24472(gp)
     f48:	10800120 	cmpeqi	r2,r2,4
     f4c:	1000031e 	bne	r2,zero,f5c <Task_state_timer+0x138>
     f50:	d0a81a17 	ldw	r2,-24472(gp)
     f54:	10800158 	cmpnei	r2,r2,5
     f58:	1000071e 	bne	r2,zero,f78 <Task_state_timer+0x154>
     f5c:	d0a82717 	ldw	r2,-24420(gp)
     f60:	10800148 	cmpgei	r2,r2,5
     f64:	1000041e 	bne	r2,zero,f78 <Task_state_timer+0x154>
      timer_code++;
     f68:	d0a82717 	ldw	r2,-24420(gp)
     f6c:	10800044 	addi	r2,r2,1
     f70:	d0a82715 	stw	r2,-24420(gp)
     f74:	00000106 	br	f7c <Task_state_timer+0x158>
    else
      timer_code = 0;
     f78:	d0282715 	stw	zero,-24420(gp)

    if (state == PROG &&
     f7c:	d0a81a17 	ldw	r2,-24472(gp)
     f80:	10800158 	cmpnei	r2,r2,5
     f84:	1000151e 	bne	r2,zero,fdc <Task_state_timer+0x1b8>
        ((state_timer >= 30) || ((cur_input_code[0] == -1) && KEY1_flag))) {
     f88:	d0a81817 	ldw	r2,-24480(gp)
    if ((state == CODE || state == PROG) && timer_code < 5)
      timer_code++;
    else
      timer_code = 0;

    if (state == PROG &&
     f8c:	10800788 	cmpgei	r2,r2,30
     f90:	1000071e 	bne	r2,zero,fb0 <Task_state_timer+0x18c>
        ((state_timer >= 30) || ((cur_input_code[0] == -1) && KEY1_flag))) {
     f94:	008000b4 	movhi	r2,2
     f98:	10aced04 	addi	r2,r2,-19532
     f9c:	10800017 	ldw	r2,0(r2)
     fa0:	10bfffd8 	cmpnei	r2,r2,-1
     fa4:	10000d1e 	bne	r2,zero,fdc <Task_state_timer+0x1b8>
     fa8:	d0a81f17 	ldw	r2,-24452(gp)
     fac:	10000b26 	beq	r2,zero,fdc <Task_state_timer+0x1b8>
      OSSemPend(SEM_state_change, 0, &err);
     fb0:	d0a82117 	ldw	r2,-24444(gp)
     fb4:	d1a82004 	addi	r6,gp,-24448
     fb8:	000b883a 	mov	r5,zero
     fbc:	1009883a 	mov	r4,r2
     fc0:	00144b80 	call	144b8 <OSSemPend>
      state = OPEN;
     fc4:	00800044 	movi	r2,1
     fc8:	d0a81a15 	stw	r2,-24472(gp)
      state_timer = 0;
     fcc:	d0281815 	stw	zero,-24480(gp)
      OSSemPost(SEM_state_change);
     fd0:	d0a82117 	ldw	r2,-24444(gp)
     fd4:	1009883a 	mov	r4,r2
     fd8:	00148300 	call	14830 <OSSemPost>
    }

    debug("Current Input Array: %d %d %d %d",
     fdc:	d0a00117 	ldw	r2,-32764(gp)
     fe0:	12000317 	ldw	r8,12(r2)
     fe4:	008000b4 	movhi	r2,2
     fe8:	10aced04 	addi	r2,r2,-19532
     fec:	10c00017 	ldw	r3,0(r2)
     ff0:	008000b4 	movhi	r2,2
     ff4:	10aced04 	addi	r2,r2,-19532
     ff8:	11000117 	ldw	r4,4(r2)
     ffc:	008000b4 	movhi	r2,2
    1000:	10aced04 	addi	r2,r2,-19532
    1004:	11400217 	ldw	r5,8(r2)
    1008:	008000b4 	movhi	r2,2
    100c:	10aced04 	addi	r2,r2,-19532
    1010:	10800317 	ldw	r2,12(r2)
    1014:	d8800315 	stw	r2,12(sp)
    1018:	d9400215 	stw	r5,8(sp)
    101c:	d9000115 	stw	r4,4(sp)
    1020:	d8c00015 	stw	r3,0(sp)
    1024:	01c06104 	movi	r7,388
    1028:	018000b4 	movhi	r6,2
    102c:	31a9b904 	addi	r6,r6,-22812
    1030:	014000b4 	movhi	r5,2
    1034:	296a4304 	addi	r5,r5,-22260
    1038:	4009883a 	mov	r4,r8
    103c:	0001aac0 	call	1aac <fprintf>
          cur_input_code[0],
          cur_input_code[1],
          cur_input_code[2],
          cur_input_code[3]);

    debug("Timer Code: %d", timer_code);
    1040:	d0a00117 	ldw	r2,-32764(gp)
    1044:	10c00317 	ldw	r3,12(r2)
    1048:	d0a82717 	ldw	r2,-24420(gp)
    104c:	d8800015 	stw	r2,0(sp)
    1050:	01c06184 	movi	r7,390
    1054:	018000b4 	movhi	r6,2
    1058:	31a9b904 	addi	r6,r6,-22812
    105c:	014000b4 	movhi	r5,2
    1060:	296a4f04 	addi	r5,r5,-22212
    1064:	1809883a 	mov	r4,r3
    1068:	0001aac0 	call	1aac <fprintf>

    OSTimeDlyHMSM(0, 0, 1, 0);
    106c:	000f883a 	mov	r7,zero
    1070:	01800044 	movi	r6,1
    1074:	000b883a 	mov	r5,zero
    1078:	0009883a 	mov	r4,zero
    107c:	00163c00 	call	163c0 <OSTimeDlyHMSM>
  }
    1080:	003f7806 	br	e64 <Task_state_timer+0x40>

00001084 <Task_flash_success>:
}

void
Task_flash_success(void* pdata)
{
    1084:	defffc04 	addi	sp,sp,-16
    1088:	dfc00315 	stw	ra,12(sp)
    108c:	df000215 	stw	fp,8(sp)
    1090:	df000204 	addi	fp,sp,8
    1094:	e13fff15 	stw	r4,-4(fp)
  debug("Started: Task_flash_success");
    1098:	d0a00117 	ldw	r2,-32764(gp)
    109c:	10800317 	ldw	r2,12(r2)
    10a0:	01c063c4 	movi	r7,399
    10a4:	018000b4 	movhi	r6,2
    10a8:	31a9b904 	addi	r6,r6,-22812
    10ac:	014000b4 	movhi	r5,2
    10b0:	296a5704 	addi	r5,r5,-22180
    10b4:	1009883a 	mov	r4,r2
    10b8:	0001aac0 	call	1aac <fprintf>

  while (1) {
    OSSemPend(SEM_flash_success, 0, &err);
    10bc:	d0a81d17 	ldw	r2,-24460(gp)
    10c0:	d1a82004 	addi	r6,gp,-24448
    10c4:	000b883a 	mov	r5,zero
    10c8:	1009883a 	mov	r4,r2
    10cc:	00144b80 	call	144b8 <OSSemPend>
    int pattern = 0xE;
    10d0:	00800384 	movi	r2,14
    10d4:	e0bffe15 	stw	r2,-8(fp)
    debug("Flashing SUCCESS");
    10d8:	d0a00117 	ldw	r2,-32764(gp)
    10dc:	10800317 	ldw	r2,12(r2)
    10e0:	01c06504 	movi	r7,404
    10e4:	018000b4 	movhi	r6,2
    10e8:	31a9b904 	addi	r6,r6,-22812
    10ec:	014000b4 	movhi	r5,2
    10f0:	296a6204 	addi	r5,r5,-22136
    10f4:	1009883a 	mov	r4,r2
    10f8:	0001aac0 	call	1aac <fprintf>

    *(LEDG_ptr) |= pattern;
    10fc:	00bfc834 	movhi	r2,65312
    1100:	10800404 	addi	r2,r2,16
    1104:	00ffc834 	movhi	r3,65312
    1108:	18c00404 	addi	r3,r3,16
    110c:	19000017 	ldw	r4,0(r3)
    1110:	e0fffe17 	ldw	r3,-8(fp)
    1114:	20c6b03a 	or	r3,r4,r3
    1118:	10c00015 	stw	r3,0(r2)
    OSTimeDlyHMSM(0, 0, 3, 0);
    111c:	000f883a 	mov	r7,zero
    1120:	018000c4 	movi	r6,3
    1124:	000b883a 	mov	r5,zero
    1128:	0009883a 	mov	r4,zero
    112c:	00163c00 	call	163c0 <OSTimeDlyHMSM>
    *(LEDG_ptr) &= ~pattern;
    1130:	00bfc834 	movhi	r2,65312
    1134:	10800404 	addi	r2,r2,16
    1138:	00ffc834 	movhi	r3,65312
    113c:	18c00404 	addi	r3,r3,16
    1140:	18c00017 	ldw	r3,0(r3)
    1144:	e13ffe17 	ldw	r4,-8(fp)
    1148:	0108303a 	nor	r4,zero,r4
    114c:	1906703a 	and	r3,r3,r4
    1150:	10c00015 	stw	r3,0(r2)
  }
    1154:	003fd906 	br	10bc <Task_flash_success+0x38>

00001158 <Task_flash_fail>:
}

void
Task_flash_fail(void* pdata)
{
    1158:	defffc04 	addi	sp,sp,-16
    115c:	dfc00315 	stw	ra,12(sp)
    1160:	df000215 	stw	fp,8(sp)
    1164:	df000204 	addi	fp,sp,8
    1168:	e13fff15 	stw	r4,-4(fp)
  debug("Started: Task_flash_fail");
    116c:	d0a00117 	ldw	r2,-32764(gp)
    1170:	10800317 	ldw	r2,12(r2)
    1174:	01c067c4 	movi	r7,415
    1178:	018000b4 	movhi	r6,2
    117c:	31a9b904 	addi	r6,r6,-22812
    1180:	014000b4 	movhi	r5,2
    1184:	296a6a04 	addi	r5,r5,-22104
    1188:	1009883a 	mov	r4,r2
    118c:	0001aac0 	call	1aac <fprintf>
  while (1) {
    int pattern = 0xE;
    1190:	00800384 	movi	r2,14
    1194:	e0bffe15 	stw	r2,-8(fp)
    OSSemPend(SEM_flash_fail, 0, &err);
    1198:	d0a82617 	ldw	r2,-24424(gp)
    119c:	d1a82004 	addi	r6,gp,-24448
    11a0:	000b883a 	mov	r5,zero
    11a4:	1009883a 	mov	r4,r2
    11a8:	00144b80 	call	144b8 <OSSemPend>
    debug("Flashing FAIL");
    11ac:	d0a00117 	ldw	r2,-32764(gp)
    11b0:	10800317 	ldw	r2,12(r2)
    11b4:	01c068c4 	movi	r7,419
    11b8:	018000b4 	movhi	r6,2
    11bc:	31a9b904 	addi	r6,r6,-22812
    11c0:	014000b4 	movhi	r5,2
    11c4:	296a7404 	addi	r5,r5,-22064
    11c8:	1009883a 	mov	r4,r2
    11cc:	0001aac0 	call	1aac <fprintf>

    *(LEDR_ptr) |= pattern;
    11d0:	00bfc834 	movhi	r2,65312
    11d4:	00ffc834 	movhi	r3,65312
    11d8:	19000017 	ldw	r4,0(r3)
    11dc:	e0fffe17 	ldw	r3,-8(fp)
    11e0:	20c6b03a 	or	r3,r4,r3
    11e4:	10c00015 	stw	r3,0(r2)
    OSTimeDlyHMSM(0, 0, 3, 0);
    11e8:	000f883a 	mov	r7,zero
    11ec:	018000c4 	movi	r6,3
    11f0:	000b883a 	mov	r5,zero
    11f4:	0009883a 	mov	r4,zero
    11f8:	00163c00 	call	163c0 <OSTimeDlyHMSM>
    *(LEDR_ptr) &= ~pattern;
    11fc:	00bfc834 	movhi	r2,65312
    1200:	00ffc834 	movhi	r3,65312
    1204:	18c00017 	ldw	r3,0(r3)
    1208:	e13ffe17 	ldw	r4,-8(fp)
    120c:	0108303a 	nor	r4,zero,r4
    1210:	1906703a 	and	r3,r3,r4
    1214:	10c00015 	stw	r3,0(r2)
  }
    1218:	003fdd06 	br	1190 <Task_flash_fail+0x38>

0000121c <Task_add_del_code>:
}

void
Task_add_del_code(void* pdata)
{
    121c:	defff604 	addi	sp,sp,-40
    1220:	dfc00915 	stw	ra,36(sp)
    1224:	df000815 	stw	fp,32(sp)
    1228:	df000804 	addi	fp,sp,32
    122c:	e13fff15 	stw	r4,-4(fp)
  debug("Started: Task_add_del_code");
    1230:	d0a00117 	ldw	r2,-32764(gp)
    1234:	10800317 	ldw	r2,12(r2)
    1238:	01c06b84 	movi	r7,430
    123c:	018000b4 	movhi	r6,2
    1240:	31a9b904 	addi	r6,r6,-22812
    1244:	014000b4 	movhi	r5,2
    1248:	296a7b04 	addi	r5,r5,-22036
    124c:	1009883a 	mov	r4,r2
    1250:	0001aac0 	call	1aac <fprintf>

  while (1) {

    OSSemPend(SEM_add_code, 0, &err);
    1254:	d0a81e17 	ldw	r2,-24456(gp)
    1258:	d1a82004 	addi	r6,gp,-24448
    125c:	000b883a 	mov	r5,zero
    1260:	1009883a 	mov	r4,r2
    1264:	00144b80 	call	144b8 <OSSemPend>
    debug("Running Task_add_del_code");
    1268:	d0a00117 	ldw	r2,-32764(gp)
    126c:	10800317 	ldw	r2,12(r2)
    1270:	01c06cc4 	movi	r7,435
    1274:	018000b4 	movhi	r6,2
    1278:	31a9b904 	addi	r6,r6,-22812
    127c:	014000b4 	movhi	r5,2
    1280:	296a8604 	addi	r5,r5,-21992
    1284:	1009883a 	mov	r4,r2
    1288:	0001aac0 	call	1aac <fprintf>

    /* signaling the read ps2 input into cur_input_code array */
    OSSemPost(SEM_timer_start);
    128c:	d0a81917 	ldw	r2,-24476(gp)
    1290:	1009883a 	mov	r4,r2
    1294:	00148300 	call	14830 <OSSemPost>

    /* signaling the read ps2 input into cur_input_code array */
    debug("Signalling read_PS2");
    1298:	d0a00117 	ldw	r2,-32764(gp)
    129c:	10800317 	ldw	r2,12(r2)
    12a0:	01c06e44 	movi	r7,441
    12a4:	018000b4 	movhi	r6,2
    12a8:	31a9b904 	addi	r6,r6,-22812
    12ac:	014000b4 	movhi	r5,2
    12b0:	296a9004 	addi	r5,r5,-21952
    12b4:	1009883a 	mov	r4,r2
    12b8:	0001aac0 	call	1aac <fprintf>
    OSSemPost(SEM_read_PS2);
    12bc:	d0a82817 	ldw	r2,-24416(gp)
    12c0:	1009883a 	mov	r4,r2
    12c4:	00148300 	call	14830 <OSSemPost>

    /* wait for Task read PS input to populate the global array */
    debug("Waiting for PS2 Key to read");
    12c8:	d0a00117 	ldw	r2,-32764(gp)
    12cc:	10800317 	ldw	r2,12(r2)
    12d0:	01c06f44 	movi	r7,445
    12d4:	018000b4 	movhi	r6,2
    12d8:	31a9b904 	addi	r6,r6,-22812
    12dc:	014000b4 	movhi	r5,2
    12e0:	296a9904 	addi	r5,r5,-21916
    12e4:	1009883a 	mov	r4,r2
    12e8:	0001aac0 	call	1aac <fprintf>
    OSSemPend(SEM_read_PS2_done, 0, &err);
    12ec:	d0a81b17 	ldw	r2,-24468(gp)
    12f0:	d1a82004 	addi	r6,gp,-24448
    12f4:	000b883a 	mov	r5,zero
    12f8:	1009883a 	mov	r4,r2
    12fc:	00144b80 	call	144b8 <OSSemPend>

    debug("Add Delete Operation Invoked");
    1300:	d0a00117 	ldw	r2,-32764(gp)
    1304:	10800317 	ldw	r2,12(r2)
    1308:	01c07004 	movi	r7,448
    130c:	018000b4 	movhi	r6,2
    1310:	31a9b904 	addi	r6,r6,-22812
    1314:	014000b4 	movhi	r5,2
    1318:	296aa404 	addi	r5,r5,-21872
    131c:	1009883a 	mov	r4,r2
    1320:	0001aac0 	call	1aac <fprintf>
    int all_matched = 0;
    1324:	e03ff815 	stw	zero,-32(fp)
    int add_new_code = 0;
    1328:	e03ff915 	stw	zero,-28(fp)

    for (int i = 0; i < MAX_CODES; i++) {
    132c:	e03ffa15 	stw	zero,-24(fp)
    1330:	00007406 	br	1504 <Task_add_del_code+0x2e8>
      /* When storage is full */
      if (stored_codes[MAX_CODES - 1][0] != -1) {
    1334:	008000b4 	movhi	r2,2
    1338:	10acf104 	addi	r2,r2,-19516
    133c:	10803c17 	ldw	r2,240(r2)
    1340:	10bfffe0 	cmpeqi	r2,r2,-1
    1344:	1000041e 	bne	r2,zero,1358 <Task_add_del_code+0x13c>
        OSSemPost(SEM_flash_fail);
    1348:	d0a82617 	ldw	r2,-24424(gp)
    134c:	1009883a 	mov	r4,r2
    1350:	00148300 	call	14830 <OSSemPost>
        break;
    1354:	00006e06 	br	1510 <Task_add_del_code+0x2f4>
      }

      int matched = 0;
    1358:	e03ffb15 	stw	zero,-20(fp)
      for (int j = 0; j < MAX_DIGITS; j++) {
    135c:	e03ffc15 	stw	zero,-16(fp)
    1360:	00002a06 	br	140c <Task_add_del_code+0x1f0>
        // Add the code and post Success
        if (stored_codes[i][0] == -1) {
    1364:	008000b4 	movhi	r2,2
    1368:	10acf104 	addi	r2,r2,-19516
    136c:	e0fffa17 	ldw	r3,-24(fp)
    1370:	1806913a 	slli	r3,r3,4
    1374:	10c5883a 	add	r2,r2,r3
    1378:	10800017 	ldw	r2,0(r2)
    137c:	10bfffd8 	cmpnei	r2,r2,-1
    1380:	1000031e 	bne	r2,zero,1390 <Task_add_del_code+0x174>
          add_new_code = 1;
    1384:	00800044 	movi	r2,1
    1388:	e0bff915 	stw	r2,-28(fp)
          break;
    138c:	00002206 	br	1418 <Task_add_del_code+0x1fc>
        }

        if (stored_codes[i][j] == cur_input_code[j])
    1390:	008000b4 	movhi	r2,2
    1394:	10acf104 	addi	r2,r2,-19516
    1398:	e0fffa17 	ldw	r3,-24(fp)
    139c:	18c7883a 	add	r3,r3,r3
    13a0:	18c9883a 	add	r4,r3,r3
    13a4:	e0fffc17 	ldw	r3,-16(fp)
    13a8:	20c7883a 	add	r3,r4,r3
    13ac:	18c7883a 	add	r3,r3,r3
    13b0:	18c7883a 	add	r3,r3,r3
    13b4:	10c5883a 	add	r2,r2,r3
    13b8:	11000017 	ldw	r4,0(r2)
    13bc:	008000b4 	movhi	r2,2
    13c0:	10aced04 	addi	r2,r2,-19532
    13c4:	e0fffc17 	ldw	r3,-16(fp)
    13c8:	18c7883a 	add	r3,r3,r3
    13cc:	18c7883a 	add	r3,r3,r3
    13d0:	10c5883a 	add	r2,r2,r3
    13d4:	10800017 	ldw	r2,0(r2)
    13d8:	2080031e 	bne	r4,r2,13e8 <Task_add_del_code+0x1cc>
          matched++;
    13dc:	e0bffb17 	ldw	r2,-20(fp)
    13e0:	10800044 	addi	r2,r2,1
    13e4:	e0bffb15 	stw	r2,-20(fp)

        if (matched == MAX_DIGITS) {
    13e8:	e0bffb17 	ldw	r2,-20(fp)
    13ec:	10800118 	cmpnei	r2,r2,4
    13f0:	1000031e 	bne	r2,zero,1400 <Task_add_del_code+0x1e4>
          all_matched = 1;
    13f4:	00800044 	movi	r2,1
    13f8:	e0bff815 	stw	r2,-32(fp)
          break;
    13fc:	00000606 	br	1418 <Task_add_del_code+0x1fc>
        OSSemPost(SEM_flash_fail);
        break;
      }

      int matched = 0;
      for (int j = 0; j < MAX_DIGITS; j++) {
    1400:	e0bffc17 	ldw	r2,-16(fp)
    1404:	10800044 	addi	r2,r2,1
    1408:	e0bffc15 	stw	r2,-16(fp)
    140c:	e0bffc17 	ldw	r2,-16(fp)
    1410:	10800110 	cmplti	r2,r2,4
    1414:	103fd31e 	bne	r2,zero,1364 <Task_add_del_code+0x148>
          all_matched = 1;
          break;
        }
      }

      if (all_matched) {
    1418:	e0bff817 	ldw	r2,-32(fp)
    141c:	10001826 	beq	r2,zero,1480 <Task_add_del_code+0x264>
        // delete code
        for (int k = 0; k < MAX_DIGITS; k++)
    1420:	e03ffd15 	stw	zero,-12(fp)
    1424:	00000e06 	br	1460 <Task_add_del_code+0x244>
          stored_codes[i][k] = 0;
    1428:	008000b4 	movhi	r2,2
    142c:	10acf104 	addi	r2,r2,-19516
    1430:	e0fffa17 	ldw	r3,-24(fp)
    1434:	18c7883a 	add	r3,r3,r3
    1438:	18c9883a 	add	r4,r3,r3
    143c:	e0fffd17 	ldw	r3,-12(fp)
    1440:	20c7883a 	add	r3,r4,r3
    1444:	18c7883a 	add	r3,r3,r3
    1448:	18c7883a 	add	r3,r3,r3
    144c:	10c5883a 	add	r2,r2,r3
    1450:	10000015 	stw	zero,0(r2)
        }
      }

      if (all_matched) {
        // delete code
        for (int k = 0; k < MAX_DIGITS; k++)
    1454:	e0bffd17 	ldw	r2,-12(fp)
    1458:	10800044 	addi	r2,r2,1
    145c:	e0bffd15 	stw	r2,-12(fp)
    1460:	e0bffd17 	ldw	r2,-12(fp)
    1464:	10800110 	cmplti	r2,r2,4
    1468:	103fef1e 	bne	r2,zero,1428 <Task_add_del_code+0x20c>
          stored_codes[i][k] = 0;

        OSSemPost(SEM_flash_success);
    146c:	d0a81d17 	ldw	r2,-24460(gp)
    1470:	1009883a 	mov	r4,r2
    1474:	00148300 	call	14830 <OSSemPost>
        all_matched = 0;
    1478:	e03ff815 	stw	zero,-32(fp)
        break;
    147c:	00002406 	br	1510 <Task_add_del_code+0x2f4>
      }

      if (add_new_code) {
    1480:	e0bff917 	ldw	r2,-28(fp)
    1484:	10001c26 	beq	r2,zero,14f8 <Task_add_del_code+0x2dc>
        for (int j = 0; j < MAX_DIGITS; j++) {
    1488:	e03ffe15 	stw	zero,-8(fp)
    148c:	00001206 	br	14d8 <Task_add_del_code+0x2bc>
          stored_codes[1][j] = cur_input_code[j];
    1490:	008000b4 	movhi	r2,2
    1494:	10aced04 	addi	r2,r2,-19532
    1498:	e0fffe17 	ldw	r3,-8(fp)
    149c:	18c7883a 	add	r3,r3,r3
    14a0:	18c7883a 	add	r3,r3,r3
    14a4:	10c5883a 	add	r2,r2,r3
    14a8:	11000017 	ldw	r4,0(r2)
    14ac:	008000b4 	movhi	r2,2
    14b0:	10acf104 	addi	r2,r2,-19516
    14b4:	e0fffe17 	ldw	r3,-8(fp)
    14b8:	18c00104 	addi	r3,r3,4
    14bc:	18c7883a 	add	r3,r3,r3
    14c0:	18c7883a 	add	r3,r3,r3
    14c4:	10c5883a 	add	r2,r2,r3
    14c8:	11000015 	stw	r4,0(r2)
        all_matched = 0;
        break;
      }

      if (add_new_code) {
        for (int j = 0; j < MAX_DIGITS; j++) {
    14cc:	e0bffe17 	ldw	r2,-8(fp)
    14d0:	10800044 	addi	r2,r2,1
    14d4:	e0bffe15 	stw	r2,-8(fp)
    14d8:	e0bffe17 	ldw	r2,-8(fp)
    14dc:	10800110 	cmplti	r2,r2,4
    14e0:	103feb1e 	bne	r2,zero,1490 <Task_add_del_code+0x274>
          stored_codes[1][j] = cur_input_code[j];
        }
        OSSemPost(SEM_flash_success);
    14e4:	d0a81d17 	ldw	r2,-24460(gp)
    14e8:	1009883a 	mov	r4,r2
    14ec:	00148300 	call	14830 <OSSemPost>
        add_new_code = 0;
    14f0:	e03ff915 	stw	zero,-28(fp)
        break;
    14f4:	00000606 	br	1510 <Task_add_del_code+0x2f4>

    debug("Add Delete Operation Invoked");
    int all_matched = 0;
    int add_new_code = 0;

    for (int i = 0; i < MAX_CODES; i++) {
    14f8:	e0bffa17 	ldw	r2,-24(fp)
    14fc:	10800044 	addi	r2,r2,1
    1500:	e0bffa15 	stw	r2,-24(fp)
    1504:	e0bffa17 	ldw	r2,-24(fp)
    1508:	10800410 	cmplti	r2,r2,16
    150c:	103f891e 	bne	r2,zero,1334 <Task_add_del_code+0x118>
        add_new_code = 0;
        break;
      }
    }

    reset_PS2_input();
    1510:	00002840 	call	284 <reset_PS2_input>
    OSTimeDlyHMSM(0, 0, 0, 300);
    1514:	01c04b04 	movi	r7,300
    1518:	000d883a 	mov	r6,zero
    151c:	000b883a 	mov	r5,zero
    1520:	0009883a 	mov	r4,zero
    1524:	00163c00 	call	163c0 <OSTimeDlyHMSM>
  }
    1528:	003f4a06 	br	1254 <Task_add_del_code+0x38>

0000152c <Task_delete_code>:
}

void
Task_delete_code(void* pdata)
{
    152c:	defffd04 	addi	sp,sp,-12
    1530:	dfc00215 	stw	ra,8(sp)
    1534:	df000115 	stw	fp,4(sp)
    1538:	df000104 	addi	fp,sp,4
    153c:	e13fff15 	stw	r4,-4(fp)
  debug("Started: Task_delete_code");
    1540:	d0a00117 	ldw	r2,-32764(gp)
    1544:	10800317 	ldw	r2,12(r2)
    1548:	01c07e04 	movi	r7,504
    154c:	018000b4 	movhi	r6,2
    1550:	31a9b904 	addi	r6,r6,-22812
    1554:	014000b4 	movhi	r5,2
    1558:	296aaf04 	addi	r5,r5,-21828
    155c:	1009883a 	mov	r4,r2
    1560:	0001aac0 	call	1aac <fprintf>

  while (1) {
    OSSemPend(SEM_delete_code, 0, &err);
    1564:	d0a81717 	ldw	r2,-24484(gp)
    1568:	d1a82004 	addi	r6,gp,-24448
    156c:	000b883a 	mov	r5,zero
    1570:	1009883a 	mov	r4,r2
    1574:	00144b80 	call	144b8 <OSSemPend>
    debug("Within Task Delete Code");
    1578:	d0a00117 	ldw	r2,-32764(gp)
    157c:	10800317 	ldw	r2,12(r2)
    1580:	01c07f04 	movi	r7,508
    1584:	018000b4 	movhi	r6,2
    1588:	31a9b904 	addi	r6,r6,-22812
    158c:	014000b4 	movhi	r5,2
    1590:	296ab904 	addi	r5,r5,-21788
    1594:	1009883a 	mov	r4,r2
    1598:	0001aac0 	call	1aac <fprintf>
    OSTimeDlyHMSM(0, 0, 0, 300);
    159c:	01c04b04 	movi	r7,300
    15a0:	000d883a 	mov	r6,zero
    15a4:	000b883a 	mov	r5,zero
    15a8:	0009883a 	mov	r4,zero
    15ac:	00163c00 	call	163c0 <OSTimeDlyHMSM>
  }
    15b0:	003fec06 	br	1564 <Task_delete_code+0x38>

000015b4 <main>:
}

/* The main function creates two task and starts multi-tasking */
int
main(void)
{
    15b4:	defff704 	addi	sp,sp,-36
    15b8:	dfc00815 	stw	ra,32(sp)
    15bc:	df000715 	stw	fp,28(sp)
    15c0:	df000704 	addi	fp,sp,28
  printf("MicroC/OS-II Licensing Terms\n");
    15c4:	010000b4 	movhi	r4,2
    15c8:	212ac304 	addi	r4,r4,-21748
    15cc:	0001b900 	call	1b90 <puts>
  printf("============================\n");
    15d0:	010000b4 	movhi	r4,2
    15d4:	212acb04 	addi	r4,r4,-21716
    15d8:	0001b900 	call	1b90 <puts>
  printf("Micrium\'s uC/OS-II is a real-time operating system (RTOS) available "
    15dc:	010000b4 	movhi	r4,2
    15e0:	212ad304 	addi	r4,r4,-21684
    15e4:	0001b900 	call	1b90 <puts>
         "in source code.\n");
  printf("This is not open-source software.\n");
    15e8:	010000b4 	movhi	r4,2
    15ec:	212ae804 	addi	r4,r4,-21600
    15f0:	0001b900 	call	1b90 <puts>
  printf("This RTOS can be used free of charge only for non-commercial "
    15f4:	010000b4 	movhi	r4,2
    15f8:	212af104 	addi	r4,r4,-21564
    15fc:	0001b900 	call	1b90 <puts>
         "purposes and academic projects,\n");
  printf("any other use of the code is subject to the terms of an end-user "
    1600:	010000b4 	movhi	r4,2
    1604:	212b0904 	addi	r4,r4,-21468
    1608:	0001b900 	call	1b90 <puts>
         "license agreement\n");
  printf("for more information please see the license files included in the "
    160c:	010000b4 	movhi	r4,2
    1610:	212b1e04 	addi	r4,r4,-21384
    1614:	0001b900 	call	1b90 <puts>
         "BSP project or contact Micrium.\n");
  printf("Anyone planning to use a Micrium RTOS in a commercial product must "
    1618:	010000b4 	movhi	r4,2
    161c:	212b3704 	addi	r4,r4,-21284
    1620:	0001b900 	call	1b90 <puts>
         "purchase a commercial license\n");
  printf("from the owner of the software, Silicon Laboratories Inc.\n");
    1624:	010000b4 	movhi	r4,2
    1628:	212b5004 	addi	r4,r4,-21184
    162c:	0001b900 	call	1b90 <puts>
  printf("Licensing information is available at:\n");
    1630:	010000b4 	movhi	r4,2
    1634:	212b5f04 	addi	r4,r4,-21124
    1638:	0001b900 	call	1b90 <puts>
  printf("Phone: +1 954-217-2036\n");
    163c:	010000b4 	movhi	r4,2
    1640:	212b6904 	addi	r4,r4,-21084
    1644:	0001b900 	call	1b90 <puts>
  printf("Email: sales@micrium.com\n");
    1648:	010000b4 	movhi	r4,2
    164c:	212b6f04 	addi	r4,r4,-21060
    1650:	0001b900 	call	1b90 <puts>
  printf("URL: www.micrium.com\n\n\n");
    1654:	010000b4 	movhi	r4,2
    1658:	212b7604 	addi	r4,r4,-21032
    165c:	0001b900 	call	1b90 <puts>

  KEY0_flag, KEY1_flag, KEY2_flag, KEY3_flag = 0, 0, 0, 0;
    1660:	d0282315 	stw	zero,-24436(gp)
  PS2_num = -1;
    1664:	00bfffc4 	movi	r2,-1
    1668:	d0a81315 	stw	r2,-24500(gp)
  timer_code = 0;
    166c:	d0282715 	stw	zero,-24420(gp)
  cur_input_idx = 0;
    1670:	d0282215 	stw	zero,-24440(gp)
  state_timer = 0;
    1674:	d0281815 	stw	zero,-24480(gp)
  /* Initialization Code */
  // state = INIT;

  // TODO: Uncomment this code in Production
  /* For Debugging Purpose */
  state = INIT;
    1678:	d0281a15 	stw	zero,-24472(gp)
  /************************/

  /* Semaphore for activity/sequence control */
  SEM_read_PS2 = OSSemCreate(0);      /* Blocking initially */
    167c:	0009883a 	mov	r4,zero
    1680:	00141a00 	call	141a0 <OSSemCreate>
    1684:	d0a82815 	stw	r2,-24416(gp)
  SEM_read_PS2_done = OSSemCreate(0); /* Blocking initially */
    1688:	0009883a 	mov	r4,zero
    168c:	00141a00 	call	141a0 <OSSemCreate>
    1690:	d0a81b15 	stw	r2,-24468(gp)
  SEM_timer_start = OSSemCreate(0);   /* Blocking initially */
    1694:	0009883a 	mov	r4,zero
    1698:	00141a00 	call	141a0 <OSSemCreate>
    169c:	d0a81915 	stw	r2,-24476(gp)
  SEM_flash_success = OSSemCreate(0); /* Blocking initially */
    16a0:	0009883a 	mov	r4,zero
    16a4:	00141a00 	call	141a0 <OSSemCreate>
    16a8:	d0a81d15 	stw	r2,-24460(gp)
  SEM_flash_fail = OSSemCreate(0);    /* Blocking initially */
    16ac:	0009883a 	mov	r4,zero
    16b0:	00141a00 	call	141a0 <OSSemCreate>
    16b4:	d0a82615 	stw	r2,-24424(gp)
  SEM_add_code = OSSemCreate(0);      /* Blocking initially */
    16b8:	0009883a 	mov	r4,zero
    16bc:	00141a00 	call	141a0 <OSSemCreate>
    16c0:	d0a81e15 	stw	r2,-24456(gp)

  SEM_read_KEYS = OSSemCreate(1);
    16c4:	01000044 	movi	r4,1
    16c8:	00141a00 	call	141a0 <OSSemCreate>
    16cc:	d0a82915 	stw	r2,-24412(gp)
  SEM_state_change = OSSemCreate(1);
    16d0:	01000044 	movi	r4,1
    16d4:	00141a00 	call	141a0 <OSSemCreate>
    16d8:	d0a82115 	stw	r2,-24444(gp)
  SEM_timer_code = OSSemCreate(1);
    16dc:	01000044 	movi	r4,1
    16e0:	00141a00 	call	141a0 <OSSemCreate>
    16e4:	d0a82415 	stw	r2,-24432(gp)

  /* Initializing rest of the array elements to -1 */
  for (int i = 1; i < MAX_CODES; i++)
    16e8:	00800044 	movi	r2,1
    16ec:	e0bffe15 	stw	r2,-8(fp)
    16f0:	00001706 	br	1750 <main+0x19c>
    for (int j = 0; j < MAX_DIGITS; j++)
    16f4:	e03fff15 	stw	zero,-4(fp)
    16f8:	00000f06 	br	1738 <main+0x184>
      stored_codes[i][j] = -1;
    16fc:	008000b4 	movhi	r2,2
    1700:	10acf104 	addi	r2,r2,-19516
    1704:	e0fffe17 	ldw	r3,-8(fp)
    1708:	18c7883a 	add	r3,r3,r3
    170c:	18c9883a 	add	r4,r3,r3
    1710:	e0ffff17 	ldw	r3,-4(fp)
    1714:	20c7883a 	add	r3,r4,r3
    1718:	18c7883a 	add	r3,r3,r3
    171c:	18c7883a 	add	r3,r3,r3
    1720:	10c5883a 	add	r2,r2,r3
    1724:	00ffffc4 	movi	r3,-1
    1728:	10c00015 	stw	r3,0(r2)
  SEM_state_change = OSSemCreate(1);
  SEM_timer_code = OSSemCreate(1);

  /* Initializing rest of the array elements to -1 */
  for (int i = 1; i < MAX_CODES; i++)
    for (int j = 0; j < MAX_DIGITS; j++)
    172c:	e0bfff17 	ldw	r2,-4(fp)
    1730:	10800044 	addi	r2,r2,1
    1734:	e0bfff15 	stw	r2,-4(fp)
    1738:	e0bfff17 	ldw	r2,-4(fp)
    173c:	10800110 	cmplti	r2,r2,4
    1740:	103fee1e 	bne	r2,zero,16fc <main+0x148>
  SEM_read_KEYS = OSSemCreate(1);
  SEM_state_change = OSSemCreate(1);
  SEM_timer_code = OSSemCreate(1);

  /* Initializing rest of the array elements to -1 */
  for (int i = 1; i < MAX_CODES; i++)
    1744:	e0bffe17 	ldw	r2,-8(fp)
    1748:	10800044 	addi	r2,r2,1
    174c:	e0bffe15 	stw	r2,-8(fp)
    1750:	e0bffe17 	ldw	r2,-8(fp)
    1754:	10800410 	cmplti	r2,r2,16
    1758:	103fe61e 	bne	r2,zero,16f4 <main+0x140>
    for (int j = 0; j < MAX_DIGITS; j++)
      stored_codes[i][j] = -1;

  /* Task creation */
  OSTaskCreateExt(Task_read_KEYs,
    175c:	d8000415 	stw	zero,16(sp)
    1760:	d8000315 	stw	zero,12(sp)
    1764:	00820004 	movi	r2,2048
    1768:	d8800215 	stw	r2,8(sp)
    176c:	008000f4 	movhi	r2,3
    1770:	10a4fd04 	addi	r2,r2,-27660
    1774:	d8800115 	stw	r2,4(sp)
    1778:	00800044 	movi	r2,1
    177c:	d8800015 	stw	r2,0(sp)
    1780:	01c00044 	movi	r7,1
    1784:	018000f4 	movhi	r6,3
    1788:	31acfc04 	addi	r6,r6,-19472
    178c:	000b883a 	mov	r5,zero
    1790:	01000034 	movhi	r4,0
    1794:	21022204 	addi	r4,r4,2184
    1798:	00151ec0 	call	151ec <OSTaskCreateExt>
                  task_read_keys_stk,
                  TASK_STACKSIZE,
                  NULL,
                  0);

  OSTaskCreateExt(Task_state_timer,
    179c:	d8000415 	stw	zero,16(sp)
    17a0:	d8000315 	stw	zero,12(sp)
    17a4:	00820004 	movi	r2,2048
    17a8:	d8800215 	stw	r2,8(sp)
    17ac:	008000b4 	movhi	r2,2
    17b0:	10bcfd04 	addi	r2,r2,-3084
    17b4:	d8800115 	stw	r2,4(sp)
    17b8:	00800084 	movi	r2,2
    17bc:	d8800015 	stw	r2,0(sp)
    17c0:	01c00084 	movi	r7,2
    17c4:	018000b4 	movhi	r6,2
    17c8:	3184fc04 	addi	r6,r6,5104
    17cc:	000b883a 	mov	r5,zero
    17d0:	01000034 	movhi	r4,0
    17d4:	21038904 	addi	r4,r4,3620
    17d8:	00151ec0 	call	151ec <OSTaskCreateExt>
                  task_state_timer_stk,
                  TASK_STACKSIZE,
                  NULL,
                  0);

  OSTaskCreateExt(Task_read_PS2,
    17dc:	d8000415 	stw	zero,16(sp)
    17e0:	d8000315 	stw	zero,12(sp)
    17e4:	00820004 	movi	r2,2048
    17e8:	d8800215 	stw	r2,8(sp)
    17ec:	008000b4 	movhi	r2,2
    17f0:	109cfd04 	addi	r2,r2,29684
    17f4:	d8800115 	stw	r2,4(sp)
    17f8:	008000c4 	movi	r2,3
    17fc:	d8800015 	stw	r2,0(sp)
    1800:	01c000c4 	movi	r7,3
    1804:	018000f4 	movhi	r6,3
    1808:	31a4fc04 	addi	r6,r6,-27664
    180c:	000b883a 	mov	r5,zero
    1810:	01000034 	movhi	r4,0
    1814:	2100ba04 	addi	r4,r4,744
    1818:	00151ec0 	call	151ec <OSTaskCreateExt>
                  task_read_ps2_stk,
                  TASK_STACKSIZE,
                  NULL,
                  0);

  OSTaskCreateExt(Task_flash_success,
    181c:	d8000415 	stw	zero,16(sp)
    1820:	d8000315 	stw	zero,12(sp)
    1824:	00820004 	movi	r2,2048
    1828:	d8800215 	stw	r2,8(sp)
    182c:	008000b4 	movhi	r2,2
    1830:	1094fd04 	addi	r2,r2,21492
    1834:	d8800115 	stw	r2,4(sp)
    1838:	00800104 	movi	r2,4
    183c:	d8800015 	stw	r2,0(sp)
    1840:	01c00104 	movi	r7,4
    1844:	018000b4 	movhi	r6,2
    1848:	319cfc04 	addi	r6,r6,29680
    184c:	000b883a 	mov	r5,zero
    1850:	01000034 	movhi	r4,0
    1854:	21042104 	addi	r4,r4,4228
    1858:	00151ec0 	call	151ec <OSTaskCreateExt>
                  task_flash_success_stk,
                  TASK_STACKSIZE,
                  NULL,
                  0);

  OSTaskCreateExt(Task_flash_fail,
    185c:	d8000415 	stw	zero,16(sp)
    1860:	d8000315 	stw	zero,12(sp)
    1864:	00820004 	movi	r2,2048
    1868:	d8800215 	stw	r2,8(sp)
    186c:	008000b4 	movhi	r2,2
    1870:	108cfd04 	addi	r2,r2,13300
    1874:	d8800115 	stw	r2,4(sp)
    1878:	00800144 	movi	r2,5
    187c:	d8800015 	stw	r2,0(sp)
    1880:	01c00144 	movi	r7,5
    1884:	018000b4 	movhi	r6,2
    1888:	3194fc04 	addi	r6,r6,21488
    188c:	000b883a 	mov	r5,zero
    1890:	01000034 	movhi	r4,0
    1894:	21045604 	addi	r4,r4,4440
    1898:	00151ec0 	call	151ec <OSTaskCreateExt>
                  task_flash_fail_stk,
                  TASK_STACKSIZE,
                  NULL,
                  0);

  OSTaskCreateExt(Task_add_del_code,
    189c:	d8000415 	stw	zero,16(sp)
    18a0:	d8000315 	stw	zero,12(sp)
    18a4:	00820004 	movi	r2,2048
    18a8:	d8800215 	stw	r2,8(sp)
    18ac:	008000b4 	movhi	r2,2
    18b0:	1084fd04 	addi	r2,r2,5108
    18b4:	d8800115 	stw	r2,4(sp)
    18b8:	00800184 	movi	r2,6
    18bc:	d8800015 	stw	r2,0(sp)
    18c0:	01c00184 	movi	r7,6
    18c4:	018000b4 	movhi	r6,2
    18c8:	318cfc04 	addi	r6,r6,13296
    18cc:	000b883a 	mov	r5,zero
    18d0:	01000034 	movhi	r4,0
    18d4:	21048704 	addi	r4,r4,4636
    18d8:	00151ec0 	call	151ec <OSTaskCreateExt>
                  task_add_code_stk,
                  TASK_STACKSIZE,
                  NULL,
                  0);

  OSStart();
    18dc:	000fb440 	call	fb44 <OSStart>

  return 0;
    18e0:	0005883a 	mov	r2,zero
}
    18e4:	e037883a 	mov	sp,fp
    18e8:	dfc00117 	ldw	ra,4(sp)
    18ec:	df000017 	ldw	fp,0(sp)
    18f0:	dec00204 	addi	sp,sp,8
    18f4:	f800283a 	ret

000018f8 <Get_state_name>:

#include "globals.h"
#include "debug.h"

const char *Get_state_name(DoorState door_state)
{
    18f8:	defffe04 	addi	sp,sp,-8
    18fc:	df000115 	stw	fp,4(sp)
    1900:	df000104 	addi	fp,sp,4
    1904:	e13fff15 	stw	r4,-4(fp)
    switch (door_state)
    1908:	e0bfff17 	ldw	r2,-4(fp)
    190c:	10800268 	cmpgeui	r2,r2,9
    1910:	10002b1e 	bne	r2,zero,19c0 <Get_state_name+0xc8>
    1914:	e0bfff17 	ldw	r2,-4(fp)
    1918:	100690ba 	slli	r3,r2,2
    191c:	00800034 	movhi	r2,0
    1920:	10864c04 	addi	r2,r2,6448
    1924:	1885883a 	add	r2,r3,r2
    1928:	10800017 	ldw	r2,0(r2)
    192c:	1000683a 	jmp	r2
    1930:	00001954 	movui	zero,101
    1934:	00001960 	cmpeqi	zero,zero,101
    1938:	0000196c 	andhi	zero,zero,101
    193c:	00001978 	rdprs	zero,zero,101
    1940:	00001984 	movi	zero,102
    1944:	00001990 	cmplti	zero,zero,102
    1948:	0000199c 	xori	zero,zero,102
    194c:	000019a8 	cmpgeui	zero,zero,102
    1950:	000019b4 	movhi	zero,102
    {
    case INIT:
        return "INIT";
    1954:	008000b4 	movhi	r2,2
    1958:	10ab7c04 	addi	r2,r2,-21008
    195c:	00001a06 	br	19c8 <Get_state_name+0xd0>
    case OPEN:
        return "OPEN";
    1960:	008000b4 	movhi	r2,2
    1964:	10ab7e04 	addi	r2,r2,-21000
    1968:	00001706 	br	19c8 <Get_state_name+0xd0>
    case CLOSE:
        return "CLOSE";
    196c:	008000b4 	movhi	r2,2
    1970:	10ab8004 	addi	r2,r2,-20992
    1974:	00001406 	br	19c8 <Get_state_name+0xd0>
    case LOCK:
        return "LOCK";
    1978:	008000b4 	movhi	r2,2
    197c:	10ab8204 	addi	r2,r2,-20984
    1980:	00001106 	br	19c8 <Get_state_name+0xd0>
    case CODE:
        return "CODE";
    1984:	008000b4 	movhi	r2,2
    1988:	10ab8404 	addi	r2,r2,-20976
    198c:	00000e06 	br	19c8 <Get_state_name+0xd0>
    case PROG:
        return "PROG";
    1990:	008000b4 	movhi	r2,2
    1994:	10ab8604 	addi	r2,r2,-20968
    1998:	00000b06 	br	19c8 <Get_state_name+0xd0>
    case VERIFIED:
        return "VERIFIED";
    199c:	008000b4 	movhi	r2,2
    19a0:	10ab8804 	addi	r2,r2,-20960
    19a4:	00000806 	br	19c8 <Get_state_name+0xd0>
    case ADD_CODE:
        return "ADD_CODE";
    19a8:	008000b4 	movhi	r2,2
    19ac:	10ab8b04 	addi	r2,r2,-20948
    19b0:	00000506 	br	19c8 <Get_state_name+0xd0>
    case DELETE_CODE:
        return "DELETE_CODE";
    19b4:	008000b4 	movhi	r2,2
    19b8:	10ab8e04 	addi	r2,r2,-20936
    19bc:	00000206 	br	19c8 <Get_state_name+0xd0>
    default:
        return "INVALID";
    19c0:	008000b4 	movhi	r2,2
    19c4:	10ab9104 	addi	r2,r2,-20924
    }
}
    19c8:	e037883a 	mov	sp,fp
    19cc:	df000017 	ldw	fp,0(sp)
    19d0:	dec00104 	addi	sp,sp,4
    19d4:	f800283a 	ret

000019d8 <Check_KEYs>:

void Check_KEYs(int *KEY0_ptr, int *KEY1_ptr, int *KEY2_ptr, int *KEY3_ptr)
{
    19d8:	defffb04 	addi	sp,sp,-20
    19dc:	df000415 	stw	fp,16(sp)
    19e0:	df000404 	addi	fp,sp,16
    19e4:	e13ffc15 	stw	r4,-16(fp)
    19e8:	e17ffd15 	stw	r5,-12(fp)
    19ec:	e1bffe15 	stw	r6,-8(fp)
    19f0:	e1ffff15 	stw	r7,-4(fp)

    KEY_val = *(KEY_ptr);
    19f4:	00bfc834 	movhi	r2,65312
    19f8:	10801404 	addi	r2,r2,80
    19fc:	10800017 	ldw	r2,0(r2)
    1a00:	d0a81c15 	stw	r2,-24464(gp)

    if (KEY_val == KEY0)
    1a04:	d0a81c17 	ldw	r2,-24464(gp)
    1a08:	10800058 	cmpnei	r2,r2,1
    1a0c:	1000041e 	bne	r2,zero,1a20 <Check_KEYs+0x48>
    {
        debug("KEY0 Pressed!"); // check KEY0
        *KEY0_ptr = 1;
    1a10:	e0bffc17 	ldw	r2,-16(fp)
    1a14:	00c00044 	movi	r3,1
    1a18:	10c00015 	stw	r3,0(r2)
    1a1c:	00001406 	br	1a70 <Check_KEYs+0x98>
    }
    else if (KEY_val == KEY1) // check KEY1
    1a20:	d0a81c17 	ldw	r2,-24464(gp)
    1a24:	10800098 	cmpnei	r2,r2,2
    1a28:	1000041e 	bne	r2,zero,1a3c <Check_KEYs+0x64>
    {
        debug("KEY1 Pressed!");
        *KEY1_ptr = 1;
    1a2c:	e0bffd17 	ldw	r2,-12(fp)
    1a30:	00c00044 	movi	r3,1
    1a34:	10c00015 	stw	r3,0(r2)
    1a38:	00000d06 	br	1a70 <Check_KEYs+0x98>
    }
    else if (KEY_val == KEY2) // check KEY2
    1a3c:	d0a81c17 	ldw	r2,-24464(gp)
    1a40:	10800118 	cmpnei	r2,r2,4
    1a44:	1000041e 	bne	r2,zero,1a58 <Check_KEYs+0x80>
    {
        debug("KEY2 Pressed!");
        *KEY2_ptr = 1;
    1a48:	e0bffe17 	ldw	r2,-8(fp)
    1a4c:	00c00044 	movi	r3,1
    1a50:	10c00015 	stw	r3,0(r2)
    1a54:	00000606 	br	1a70 <Check_KEYs+0x98>
    }
    else if (KEY_val == KEY3) // check KEY3
    1a58:	d0a81c17 	ldw	r2,-24464(gp)
    1a5c:	10800218 	cmpnei	r2,r2,8
    1a60:	1000031e 	bne	r2,zero,1a70 <Check_KEYs+0x98>
    {
        debug("KEY3 Pressed!");
        *KEY3_ptr = 1;
    1a64:	e0bfff17 	ldw	r2,-4(fp)
    1a68:	00c00044 	movi	r3,1
    1a6c:	10c00015 	stw	r3,0(r2)
    }

    if (KEY_val)
        debug("KEY_value: %d", KEY_val);
    1a70:	0001883a 	nop
    1a74:	e037883a 	mov	sp,fp
    1a78:	df000017 	ldw	fp,0(sp)
    1a7c:	dec00104 	addi	sp,sp,4
    1a80:	f800283a 	ret

00001a84 <_fprintf_r>:
    1a84:	defffe04 	addi	sp,sp,-8
    1a88:	2809883a 	mov	r4,r5
    1a8c:	300b883a 	mov	r5,r6
    1a90:	dfc00015 	stw	ra,0(sp)
    1a94:	d9c00115 	stw	r7,4(sp)
    1a98:	d9800104 	addi	r6,sp,4
    1a9c:	0003e340 	call	3e34 <__vfprintf_internal>
    1aa0:	dfc00017 	ldw	ra,0(sp)
    1aa4:	dec00204 	addi	sp,sp,8
    1aa8:	f800283a 	ret

00001aac <fprintf>:
    1aac:	defffd04 	addi	sp,sp,-12
    1ab0:	dfc00015 	stw	ra,0(sp)
    1ab4:	d9800115 	stw	r6,4(sp)
    1ab8:	d9c00215 	stw	r7,8(sp)
    1abc:	d9800104 	addi	r6,sp,4
    1ac0:	0003e340 	call	3e34 <__vfprintf_internal>
    1ac4:	dfc00017 	ldw	ra,0(sp)
    1ac8:	dec00304 	addi	sp,sp,12
    1acc:	f800283a 	ret

00001ad0 <_puts_r>:
    1ad0:	defff604 	addi	sp,sp,-40
    1ad4:	dc000715 	stw	r16,28(sp)
    1ad8:	2021883a 	mov	r16,r4
    1adc:	2809883a 	mov	r4,r5
    1ae0:	dc400815 	stw	r17,32(sp)
    1ae4:	dfc00915 	stw	ra,36(sp)
    1ae8:	2823883a 	mov	r17,r5
    1aec:	0001ba40 	call	1ba4 <strlen>
    1af0:	10c00044 	addi	r3,r2,1
    1af4:	d8800115 	stw	r2,4(sp)
    1af8:	008000b4 	movhi	r2,2
    1afc:	10ab9404 	addi	r2,r2,-20912
    1b00:	d8800215 	stw	r2,8(sp)
    1b04:	00800044 	movi	r2,1
    1b08:	d8800315 	stw	r2,12(sp)
    1b0c:	00800084 	movi	r2,2
    1b10:	dc400015 	stw	r17,0(sp)
    1b14:	d8c00615 	stw	r3,24(sp)
    1b18:	dec00415 	stw	sp,16(sp)
    1b1c:	d8800515 	stw	r2,20(sp)
    1b20:	80000226 	beq	r16,zero,1b2c <_puts_r+0x5c>
    1b24:	80800e17 	ldw	r2,56(r16)
    1b28:	10001426 	beq	r2,zero,1b7c <_puts_r+0xac>
    1b2c:	81400217 	ldw	r5,8(r16)
    1b30:	2880030b 	ldhu	r2,12(r5)
    1b34:	10c8000c 	andi	r3,r2,8192
    1b38:	1800061e 	bne	r3,zero,1b54 <_puts_r+0x84>
    1b3c:	29001917 	ldw	r4,100(r5)
    1b40:	00f7ffc4 	movi	r3,-8193
    1b44:	10880014 	ori	r2,r2,8192
    1b48:	20c6703a 	and	r3,r4,r3
    1b4c:	2880030d 	sth	r2,12(r5)
    1b50:	28c01915 	stw	r3,100(r5)
    1b54:	d9800404 	addi	r6,sp,16
    1b58:	8009883a 	mov	r4,r16
    1b5c:	00063640 	call	6364 <__sfvwrite_r>
    1b60:	1000091e 	bne	r2,zero,1b88 <_puts_r+0xb8>
    1b64:	00800284 	movi	r2,10
    1b68:	dfc00917 	ldw	ra,36(sp)
    1b6c:	dc400817 	ldw	r17,32(sp)
    1b70:	dc000717 	ldw	r16,28(sp)
    1b74:	dec00a04 	addi	sp,sp,40
    1b78:	f800283a 	ret
    1b7c:	8009883a 	mov	r4,r16
    1b80:	0005ee00 	call	5ee0 <__sinit>
    1b84:	003fe906 	br	1b2c <_puts_r+0x5c>
    1b88:	00bfffc4 	movi	r2,-1
    1b8c:	003ff606 	br	1b68 <_puts_r+0x98>

00001b90 <puts>:
    1b90:	008000b4 	movhi	r2,2
    1b94:	10b4a304 	addi	r2,r2,-11636
    1b98:	200b883a 	mov	r5,r4
    1b9c:	11000017 	ldw	r4,0(r2)
    1ba0:	0001ad01 	jmpi	1ad0 <_puts_r>

00001ba4 <strlen>:
    1ba4:	208000cc 	andi	r2,r4,3
    1ba8:	10002026 	beq	r2,zero,1c2c <strlen+0x88>
    1bac:	20800007 	ldb	r2,0(r4)
    1bb0:	10002026 	beq	r2,zero,1c34 <strlen+0x90>
    1bb4:	2005883a 	mov	r2,r4
    1bb8:	00000206 	br	1bc4 <strlen+0x20>
    1bbc:	10c00007 	ldb	r3,0(r2)
    1bc0:	18001826 	beq	r3,zero,1c24 <strlen+0x80>
    1bc4:	10800044 	addi	r2,r2,1
    1bc8:	10c000cc 	andi	r3,r2,3
    1bcc:	183ffb1e 	bne	r3,zero,1bbc <strlen+0x18>
    1bd0:	10c00017 	ldw	r3,0(r2)
    1bd4:	01ffbff4 	movhi	r7,65279
    1bd8:	39ffbfc4 	addi	r7,r7,-257
    1bdc:	00ca303a 	nor	r5,zero,r3
    1be0:	01a02074 	movhi	r6,32897
    1be4:	19c7883a 	add	r3,r3,r7
    1be8:	31a02004 	addi	r6,r6,-32640
    1bec:	1946703a 	and	r3,r3,r5
    1bf0:	1986703a 	and	r3,r3,r6
    1bf4:	1800091e 	bne	r3,zero,1c1c <strlen+0x78>
    1bf8:	10800104 	addi	r2,r2,4
    1bfc:	10c00017 	ldw	r3,0(r2)
    1c00:	19cb883a 	add	r5,r3,r7
    1c04:	00c6303a 	nor	r3,zero,r3
    1c08:	28c6703a 	and	r3,r5,r3
    1c0c:	1986703a 	and	r3,r3,r6
    1c10:	183ff926 	beq	r3,zero,1bf8 <strlen+0x54>
    1c14:	00000106 	br	1c1c <strlen+0x78>
    1c18:	10800044 	addi	r2,r2,1
    1c1c:	10c00007 	ldb	r3,0(r2)
    1c20:	183ffd1e 	bne	r3,zero,1c18 <strlen+0x74>
    1c24:	1105c83a 	sub	r2,r2,r4
    1c28:	f800283a 	ret
    1c2c:	2005883a 	mov	r2,r4
    1c30:	003fe706 	br	1bd0 <strlen+0x2c>
    1c34:	0005883a 	mov	r2,zero
    1c38:	f800283a 	ret

00001c3c <___vfprintf_internal_r>:
    1c3c:	deffb804 	addi	sp,sp,-288
    1c40:	dfc04715 	stw	ra,284(sp)
    1c44:	ddc04515 	stw	r23,276(sp)
    1c48:	dd404315 	stw	r21,268(sp)
    1c4c:	d9002c15 	stw	r4,176(sp)
    1c50:	282f883a 	mov	r23,r5
    1c54:	302b883a 	mov	r21,r6
    1c58:	d9c02d15 	stw	r7,180(sp)
    1c5c:	df004615 	stw	fp,280(sp)
    1c60:	dd804415 	stw	r22,272(sp)
    1c64:	dd004215 	stw	r20,264(sp)
    1c68:	dcc04115 	stw	r19,260(sp)
    1c6c:	dc804015 	stw	r18,256(sp)
    1c70:	dc403f15 	stw	r17,252(sp)
    1c74:	dc003e15 	stw	r16,248(sp)
    1c78:	0006a540 	call	6a54 <_localeconv_r>
    1c7c:	10800017 	ldw	r2,0(r2)
    1c80:	1009883a 	mov	r4,r2
    1c84:	d8803415 	stw	r2,208(sp)
    1c88:	0001ba40 	call	1ba4 <strlen>
    1c8c:	d8803715 	stw	r2,220(sp)
    1c90:	d8802c17 	ldw	r2,176(sp)
    1c94:	10000226 	beq	r2,zero,1ca0 <___vfprintf_internal_r+0x64>
    1c98:	10800e17 	ldw	r2,56(r2)
    1c9c:	1000f926 	beq	r2,zero,2084 <___vfprintf_internal_r+0x448>
    1ca0:	b880030b 	ldhu	r2,12(r23)
    1ca4:	10c8000c 	andi	r3,r2,8192
    1ca8:	1800061e 	bne	r3,zero,1cc4 <___vfprintf_internal_r+0x88>
    1cac:	b9001917 	ldw	r4,100(r23)
    1cb0:	00f7ffc4 	movi	r3,-8193
    1cb4:	10880014 	ori	r2,r2,8192
    1cb8:	20c6703a 	and	r3,r4,r3
    1cbc:	b880030d 	sth	r2,12(r23)
    1cc0:	b8c01915 	stw	r3,100(r23)
    1cc4:	10c0020c 	andi	r3,r2,8
    1cc8:	1800c126 	beq	r3,zero,1fd0 <___vfprintf_internal_r+0x394>
    1ccc:	b8c00417 	ldw	r3,16(r23)
    1cd0:	1800bf26 	beq	r3,zero,1fd0 <___vfprintf_internal_r+0x394>
    1cd4:	1080068c 	andi	r2,r2,26
    1cd8:	00c00284 	movi	r3,10
    1cdc:	10c0c426 	beq	r2,r3,1ff0 <___vfprintf_internal_r+0x3b4>
    1ce0:	d8c00404 	addi	r3,sp,16
    1ce4:	050000b4 	movhi	r20,2
    1ce8:	d9001e04 	addi	r4,sp,120
    1cec:	a52ba584 	addi	r20,r20,-20842
    1cf0:	d8c01e15 	stw	r3,120(sp)
    1cf4:	d8002015 	stw	zero,128(sp)
    1cf8:	d8001f15 	stw	zero,124(sp)
    1cfc:	d8003315 	stw	zero,204(sp)
    1d00:	d8003615 	stw	zero,216(sp)
    1d04:	d8003815 	stw	zero,224(sp)
    1d08:	1811883a 	mov	r8,r3
    1d0c:	d8003915 	stw	zero,228(sp)
    1d10:	d8003a15 	stw	zero,232(sp)
    1d14:	d8002f15 	stw	zero,188(sp)
    1d18:	d9002815 	stw	r4,160(sp)
    1d1c:	a8800007 	ldb	r2,0(r21)
    1d20:	10027b26 	beq	r2,zero,2710 <___vfprintf_internal_r+0xad4>
    1d24:	00c00944 	movi	r3,37
    1d28:	a821883a 	mov	r16,r21
    1d2c:	10c0021e 	bne	r2,r3,1d38 <___vfprintf_internal_r+0xfc>
    1d30:	00001406 	br	1d84 <___vfprintf_internal_r+0x148>
    1d34:	10c00326 	beq	r2,r3,1d44 <___vfprintf_internal_r+0x108>
    1d38:	84000044 	addi	r16,r16,1
    1d3c:	80800007 	ldb	r2,0(r16)
    1d40:	103ffc1e 	bne	r2,zero,1d34 <___vfprintf_internal_r+0xf8>
    1d44:	8563c83a 	sub	r17,r16,r21
    1d48:	88000e26 	beq	r17,zero,1d84 <___vfprintf_internal_r+0x148>
    1d4c:	d8c02017 	ldw	r3,128(sp)
    1d50:	d8801f17 	ldw	r2,124(sp)
    1d54:	45400015 	stw	r21,0(r8)
    1d58:	1c47883a 	add	r3,r3,r17
    1d5c:	10800044 	addi	r2,r2,1
    1d60:	d8c02015 	stw	r3,128(sp)
    1d64:	44400115 	stw	r17,4(r8)
    1d68:	d8801f15 	stw	r2,124(sp)
    1d6c:	00c001c4 	movi	r3,7
    1d70:	1880a716 	blt	r3,r2,2010 <___vfprintf_internal_r+0x3d4>
    1d74:	42000204 	addi	r8,r8,8
    1d78:	d9402f17 	ldw	r5,188(sp)
    1d7c:	2c4b883a 	add	r5,r5,r17
    1d80:	d9402f15 	stw	r5,188(sp)
    1d84:	80800007 	ldb	r2,0(r16)
    1d88:	1000a826 	beq	r2,zero,202c <___vfprintf_internal_r+0x3f0>
    1d8c:	84400047 	ldb	r17,1(r16)
    1d90:	00bfffc4 	movi	r2,-1
    1d94:	85400044 	addi	r21,r16,1
    1d98:	d8002785 	stb	zero,158(sp)
    1d9c:	0007883a 	mov	r3,zero
    1da0:	000f883a 	mov	r7,zero
    1da4:	d8802915 	stw	r2,164(sp)
    1da8:	d8003115 	stw	zero,196(sp)
    1dac:	0025883a 	mov	r18,zero
    1db0:	01401604 	movi	r5,88
    1db4:	01800244 	movi	r6,9
    1db8:	02800a84 	movi	r10,42
    1dbc:	02401b04 	movi	r9,108
    1dc0:	ad400044 	addi	r21,r21,1
    1dc4:	88bff804 	addi	r2,r17,-32
    1dc8:	28830436 	bltu	r5,r2,29dc <___vfprintf_internal_r+0xda0>
    1dcc:	100490ba 	slli	r2,r2,2
    1dd0:	01000034 	movhi	r4,0
    1dd4:	21077904 	addi	r4,r4,7652
    1dd8:	1105883a 	add	r2,r2,r4
    1ddc:	10800017 	ldw	r2,0(r2)
    1de0:	1000683a 	jmp	r2
    1de4:	000028fc 	xorhi	zero,zero,163
    1de8:	000029dc 	xori	zero,zero,167
    1dec:	000029dc 	xori	zero,zero,167
    1df0:	0000291c 	xori	zero,zero,164
    1df4:	000029dc 	xori	zero,zero,167
    1df8:	000029dc 	xori	zero,zero,167
    1dfc:	000029dc 	xori	zero,zero,167
    1e00:	000029dc 	xori	zero,zero,167
    1e04:	000029dc 	xori	zero,zero,167
    1e08:	000029dc 	xori	zero,zero,167
    1e0c:	00002090 	cmplti	zero,zero,130
    1e10:	00002838 	rdprs	zero,zero,160
    1e14:	000029dc 	xori	zero,zero,167
    1e18:	00001f58 	cmpnei	zero,zero,125
    1e1c:	000020b8 	rdprs	zero,zero,130
    1e20:	000029dc 	xori	zero,zero,167
    1e24:	000020f8 	rdprs	zero,zero,131
    1e28:	00002104 	movi	zero,132
    1e2c:	00002104 	movi	zero,132
    1e30:	00002104 	movi	zero,132
    1e34:	00002104 	movi	zero,132
    1e38:	00002104 	movi	zero,132
    1e3c:	00002104 	movi	zero,132
    1e40:	00002104 	movi	zero,132
    1e44:	00002104 	movi	zero,132
    1e48:	00002104 	movi	zero,132
    1e4c:	000029dc 	xori	zero,zero,167
    1e50:	000029dc 	xori	zero,zero,167
    1e54:	000029dc 	xori	zero,zero,167
    1e58:	000029dc 	xori	zero,zero,167
    1e5c:	000029dc 	xori	zero,zero,167
    1e60:	000029dc 	xori	zero,zero,167
    1e64:	000029dc 	xori	zero,zero,167
    1e68:	000029dc 	xori	zero,zero,167
    1e6c:	000029dc 	xori	zero,zero,167
    1e70:	000029dc 	xori	zero,zero,167
    1e74:	00002138 	rdprs	zero,zero,132
    1e78:	000021f4 	movhi	zero,135
    1e7c:	000029dc 	xori	zero,zero,167
    1e80:	000021f4 	movhi	zero,135
    1e84:	000029dc 	xori	zero,zero,167
    1e88:	000029dc 	xori	zero,zero,167
    1e8c:	000029dc 	xori	zero,zero,167
    1e90:	000029dc 	xori	zero,zero,167
    1e94:	00002294 	movui	zero,138
    1e98:	000029dc 	xori	zero,zero,167
    1e9c:	000029dc 	xori	zero,zero,167
    1ea0:	000022a0 	cmpeqi	zero,zero,138
    1ea4:	000029dc 	xori	zero,zero,167
    1ea8:	000029dc 	xori	zero,zero,167
    1eac:	000029dc 	xori	zero,zero,167
    1eb0:	000029dc 	xori	zero,zero,167
    1eb4:	000029dc 	xori	zero,zero,167
    1eb8:	00002718 	cmpnei	zero,zero,156
    1ebc:	000029dc 	xori	zero,zero,167
    1ec0:	000029dc 	xori	zero,zero,167
    1ec4:	00002778 	rdprs	zero,zero,157
    1ec8:	000029dc 	xori	zero,zero,167
    1ecc:	000029dc 	xori	zero,zero,167
    1ed0:	000029dc 	xori	zero,zero,167
    1ed4:	000029dc 	xori	zero,zero,167
    1ed8:	000029dc 	xori	zero,zero,167
    1edc:	000029dc 	xori	zero,zero,167
    1ee0:	000029dc 	xori	zero,zero,167
    1ee4:	000029dc 	xori	zero,zero,167
    1ee8:	000029dc 	xori	zero,zero,167
    1eec:	000029dc 	xori	zero,zero,167
    1ef0:	00002988 	cmpgei	zero,zero,166
    1ef4:	00002928 	cmpgeui	zero,zero,164
    1ef8:	000021f4 	movhi	zero,135
    1efc:	000021f4 	movhi	zero,135
    1f00:	000021f4 	movhi	zero,135
    1f04:	00002938 	rdprs	zero,zero,164
    1f08:	00002928 	cmpgeui	zero,zero,164
    1f0c:	000029dc 	xori	zero,zero,167
    1f10:	000029dc 	xori	zero,zero,167
    1f14:	00002944 	movi	zero,165
    1f18:	000029dc 	xori	zero,zero,167
    1f1c:	00002954 	movui	zero,165
    1f20:	00002828 	cmpgeui	zero,zero,160
    1f24:	00001f64 	muli	zero,zero,125
    1f28:	00002848 	cmpgei	zero,zero,161
    1f2c:	000029dc 	xori	zero,zero,167
    1f30:	00002854 	movui	zero,161
    1f34:	000029dc 	xori	zero,zero,167
    1f38:	000028b0 	cmpltui	zero,zero,162
    1f3c:	000029dc 	xori	zero,zero,167
    1f40:	000029dc 	xori	zero,zero,167
    1f44:	000028c0 	call	28c <reset_PS2_input+0x8>
    1f48:	d9003117 	ldw	r4,196(sp)
    1f4c:	d8802d15 	stw	r2,180(sp)
    1f50:	0109c83a 	sub	r4,zero,r4
    1f54:	d9003115 	stw	r4,196(sp)
    1f58:	94800114 	ori	r18,r18,4
    1f5c:	ac400007 	ldb	r17,0(r21)
    1f60:	003f9706 	br	1dc0 <___vfprintf_internal_r+0x184>
    1f64:	00800c04 	movi	r2,48
    1f68:	d9002d17 	ldw	r4,180(sp)
    1f6c:	d9402917 	ldw	r5,164(sp)
    1f70:	d8802705 	stb	r2,156(sp)
    1f74:	00801e04 	movi	r2,120
    1f78:	d8802745 	stb	r2,157(sp)
    1f7c:	d8002785 	stb	zero,158(sp)
    1f80:	20c00104 	addi	r3,r4,4
    1f84:	24c00017 	ldw	r19,0(r4)
    1f88:	002d883a 	mov	r22,zero
    1f8c:	90800094 	ori	r2,r18,2
    1f90:	28029a16 	blt	r5,zero,29fc <___vfprintf_internal_r+0xdc0>
    1f94:	00bfdfc4 	movi	r2,-129
    1f98:	90a4703a 	and	r18,r18,r2
    1f9c:	d8c02d15 	stw	r3,180(sp)
    1fa0:	94800094 	ori	r18,r18,2
    1fa4:	9802871e 	bne	r19,zero,29c4 <___vfprintf_internal_r+0xd88>
    1fa8:	008000b4 	movhi	r2,2
    1fac:	10ab9e04 	addi	r2,r2,-20872
    1fb0:	d8803915 	stw	r2,228(sp)
    1fb4:	04401e04 	movi	r17,120
    1fb8:	d8802917 	ldw	r2,164(sp)
    1fbc:	0039883a 	mov	fp,zero
    1fc0:	1001e926 	beq	r2,zero,2768 <___vfprintf_internal_r+0xb2c>
    1fc4:	0027883a 	mov	r19,zero
    1fc8:	002d883a 	mov	r22,zero
    1fcc:	00020506 	br	27e4 <___vfprintf_internal_r+0xba8>
    1fd0:	d9002c17 	ldw	r4,176(sp)
    1fd4:	b80b883a 	mov	r5,r23
    1fd8:	0003f0c0 	call	3f0c <__swsetup_r>
    1fdc:	1005ac1e 	bne	r2,zero,3690 <___vfprintf_internal_r+0x1a54>
    1fe0:	b880030b 	ldhu	r2,12(r23)
    1fe4:	00c00284 	movi	r3,10
    1fe8:	1080068c 	andi	r2,r2,26
    1fec:	10ff3c1e 	bne	r2,r3,1ce0 <___vfprintf_internal_r+0xa4>
    1ff0:	b880038f 	ldh	r2,14(r23)
    1ff4:	103f3a16 	blt	r2,zero,1ce0 <___vfprintf_internal_r+0xa4>
    1ff8:	d9c02d17 	ldw	r7,180(sp)
    1ffc:	d9002c17 	ldw	r4,176(sp)
    2000:	a80d883a 	mov	r6,r21
    2004:	b80b883a 	mov	r5,r23
    2008:	0003e500 	call	3e50 <__sbprintf>
    200c:	00001106 	br	2054 <___vfprintf_internal_r+0x418>
    2010:	d9002c17 	ldw	r4,176(sp)
    2014:	d9801e04 	addi	r6,sp,120
    2018:	b80b883a 	mov	r5,r23
    201c:	00092380 	call	9238 <__sprint_r>
    2020:	1000081e 	bne	r2,zero,2044 <___vfprintf_internal_r+0x408>
    2024:	da000404 	addi	r8,sp,16
    2028:	003f5306 	br	1d78 <___vfprintf_internal_r+0x13c>
    202c:	d8802017 	ldw	r2,128(sp)
    2030:	10000426 	beq	r2,zero,2044 <___vfprintf_internal_r+0x408>
    2034:	d9002c17 	ldw	r4,176(sp)
    2038:	d9801e04 	addi	r6,sp,120
    203c:	b80b883a 	mov	r5,r23
    2040:	00092380 	call	9238 <__sprint_r>
    2044:	b880030b 	ldhu	r2,12(r23)
    2048:	1080100c 	andi	r2,r2,64
    204c:	1005901e 	bne	r2,zero,3690 <___vfprintf_internal_r+0x1a54>
    2050:	d8802f17 	ldw	r2,188(sp)
    2054:	dfc04717 	ldw	ra,284(sp)
    2058:	df004617 	ldw	fp,280(sp)
    205c:	ddc04517 	ldw	r23,276(sp)
    2060:	dd804417 	ldw	r22,272(sp)
    2064:	dd404317 	ldw	r21,268(sp)
    2068:	dd004217 	ldw	r20,264(sp)
    206c:	dcc04117 	ldw	r19,260(sp)
    2070:	dc804017 	ldw	r18,256(sp)
    2074:	dc403f17 	ldw	r17,252(sp)
    2078:	dc003e17 	ldw	r16,248(sp)
    207c:	dec04804 	addi	sp,sp,288
    2080:	f800283a 	ret
    2084:	d9002c17 	ldw	r4,176(sp)
    2088:	0005ee00 	call	5ee0 <__sinit>
    208c:	003f0406 	br	1ca0 <___vfprintf_internal_r+0x64>
    2090:	d8802d17 	ldw	r2,180(sp)
    2094:	d9002d17 	ldw	r4,180(sp)
    2098:	10800017 	ldw	r2,0(r2)
    209c:	d8803115 	stw	r2,196(sp)
    20a0:	20800104 	addi	r2,r4,4
    20a4:	d9003117 	ldw	r4,196(sp)
    20a8:	203fa716 	blt	r4,zero,1f48 <___vfprintf_internal_r+0x30c>
    20ac:	d8802d15 	stw	r2,180(sp)
    20b0:	ac400007 	ldb	r17,0(r21)
    20b4:	003f4206 	br	1dc0 <___vfprintf_internal_r+0x184>
    20b8:	ac400007 	ldb	r17,0(r21)
    20bc:	aac00044 	addi	r11,r21,1
    20c0:	8a872826 	beq	r17,r10,3d64 <___vfprintf_internal_r+0x2128>
    20c4:	88bff404 	addi	r2,r17,-48
    20c8:	0009883a 	mov	r4,zero
    20cc:	30867d36 	bltu	r6,r2,3ac4 <___vfprintf_internal_r+0x1e88>
    20d0:	5c400007 	ldb	r17,0(r11)
    20d4:	210002a4 	muli	r4,r4,10
    20d8:	5d400044 	addi	r21,r11,1
    20dc:	a817883a 	mov	r11,r21
    20e0:	2089883a 	add	r4,r4,r2
    20e4:	88bff404 	addi	r2,r17,-48
    20e8:	30bff92e 	bgeu	r6,r2,20d0 <___vfprintf_internal_r+0x494>
    20ec:	2005c916 	blt	r4,zero,3814 <___vfprintf_internal_r+0x1bd8>
    20f0:	d9002915 	stw	r4,164(sp)
    20f4:	003f3306 	br	1dc4 <___vfprintf_internal_r+0x188>
    20f8:	94802014 	ori	r18,r18,128
    20fc:	ac400007 	ldb	r17,0(r21)
    2100:	003f2f06 	br	1dc0 <___vfprintf_internal_r+0x184>
    2104:	a809883a 	mov	r4,r21
    2108:	d8003115 	stw	zero,196(sp)
    210c:	88bff404 	addi	r2,r17,-48
    2110:	0017883a 	mov	r11,zero
    2114:	24400007 	ldb	r17,0(r4)
    2118:	5ac002a4 	muli	r11,r11,10
    211c:	ad400044 	addi	r21,r21,1
    2120:	a809883a 	mov	r4,r21
    2124:	12d7883a 	add	r11,r2,r11
    2128:	88bff404 	addi	r2,r17,-48
    212c:	30bff92e 	bgeu	r6,r2,2114 <___vfprintf_internal_r+0x4d8>
    2130:	dac03115 	stw	r11,196(sp)
    2134:	003f2306 	br	1dc4 <___vfprintf_internal_r+0x188>
    2138:	18c03fcc 	andi	r3,r3,255
    213c:	18072b1e 	bne	r3,zero,3dec <___vfprintf_internal_r+0x21b0>
    2140:	94800414 	ori	r18,r18,16
    2144:	9080080c 	andi	r2,r18,32
    2148:	10037b26 	beq	r2,zero,2f38 <___vfprintf_internal_r+0x12fc>
    214c:	d9402d17 	ldw	r5,180(sp)
    2150:	28800117 	ldw	r2,4(r5)
    2154:	2cc00017 	ldw	r19,0(r5)
    2158:	29400204 	addi	r5,r5,8
    215c:	d9402d15 	stw	r5,180(sp)
    2160:	102d883a 	mov	r22,r2
    2164:	10044b16 	blt	r2,zero,3294 <___vfprintf_internal_r+0x1658>
    2168:	d9402917 	ldw	r5,164(sp)
    216c:	df002783 	ldbu	fp,158(sp)
    2170:	2803bc16 	blt	r5,zero,3064 <___vfprintf_internal_r+0x1428>
    2174:	00ffdfc4 	movi	r3,-129
    2178:	9d84b03a 	or	r2,r19,r22
    217c:	90e4703a 	and	r18,r18,r3
    2180:	10017726 	beq	r2,zero,2760 <___vfprintf_internal_r+0xb24>
    2184:	b0038326 	beq	r22,zero,2f94 <___vfprintf_internal_r+0x1358>
    2188:	dc402a15 	stw	r17,168(sp)
    218c:	dc001e04 	addi	r16,sp,120
    2190:	b023883a 	mov	r17,r22
    2194:	402d883a 	mov	r22,r8
    2198:	9809883a 	mov	r4,r19
    219c:	880b883a 	mov	r5,r17
    21a0:	01800284 	movi	r6,10
    21a4:	000f883a 	mov	r7,zero
    21a8:	000b6300 	call	b630 <__umoddi3>
    21ac:	10800c04 	addi	r2,r2,48
    21b0:	843fffc4 	addi	r16,r16,-1
    21b4:	9809883a 	mov	r4,r19
    21b8:	880b883a 	mov	r5,r17
    21bc:	80800005 	stb	r2,0(r16)
    21c0:	01800284 	movi	r6,10
    21c4:	000f883a 	mov	r7,zero
    21c8:	000b0b80 	call	b0b8 <__udivdi3>
    21cc:	1027883a 	mov	r19,r2
    21d0:	10c4b03a 	or	r2,r2,r3
    21d4:	1823883a 	mov	r17,r3
    21d8:	103fef1e 	bne	r2,zero,2198 <___vfprintf_internal_r+0x55c>
    21dc:	d8c02817 	ldw	r3,160(sp)
    21e0:	dc402a17 	ldw	r17,168(sp)
    21e4:	b011883a 	mov	r8,r22
    21e8:	1c07c83a 	sub	r3,r3,r16
    21ec:	d8c02e15 	stw	r3,184(sp)
    21f0:	00005906 	br	2358 <___vfprintf_internal_r+0x71c>
    21f4:	18c03fcc 	andi	r3,r3,255
    21f8:	1806fa1e 	bne	r3,zero,3de4 <___vfprintf_internal_r+0x21a8>
    21fc:	9080020c 	andi	r2,r18,8
    2200:	10048a26 	beq	r2,zero,342c <___vfprintf_internal_r+0x17f0>
    2204:	d8c02d17 	ldw	r3,180(sp)
    2208:	d9002d17 	ldw	r4,180(sp)
    220c:	d9402d17 	ldw	r5,180(sp)
    2210:	18c00017 	ldw	r3,0(r3)
    2214:	21000117 	ldw	r4,4(r4)
    2218:	29400204 	addi	r5,r5,8
    221c:	d8c03615 	stw	r3,216(sp)
    2220:	d9003815 	stw	r4,224(sp)
    2224:	d9402d15 	stw	r5,180(sp)
    2228:	d9003617 	ldw	r4,216(sp)
    222c:	d9403817 	ldw	r5,224(sp)
    2230:	da003d15 	stw	r8,244(sp)
    2234:	04000044 	movi	r16,1
    2238:	0008e5c0 	call	8e5c <__fpclassifyd>
    223c:	da003d17 	ldw	r8,244(sp)
    2240:	14041f1e 	bne	r2,r16,32c0 <___vfprintf_internal_r+0x1684>
    2244:	d9003617 	ldw	r4,216(sp)
    2248:	d9403817 	ldw	r5,224(sp)
    224c:	000d883a 	mov	r6,zero
    2250:	000f883a 	mov	r7,zero
    2254:	000d0140 	call	d014 <__ledf2>
    2258:	da003d17 	ldw	r8,244(sp)
    225c:	1005be16 	blt	r2,zero,3958 <___vfprintf_internal_r+0x1d1c>
    2260:	df002783 	ldbu	fp,158(sp)
    2264:	008011c4 	movi	r2,71
    2268:	1445330e 	bge	r2,r17,3738 <___vfprintf_internal_r+0x1afc>
    226c:	040000b4 	movhi	r16,2
    2270:	842b9604 	addi	r16,r16,-20904
    2274:	00c000c4 	movi	r3,3
    2278:	00bfdfc4 	movi	r2,-129
    227c:	d8c02a15 	stw	r3,168(sp)
    2280:	90a4703a 	and	r18,r18,r2
    2284:	d8c02e15 	stw	r3,184(sp)
    2288:	d8002915 	stw	zero,164(sp)
    228c:	d8003215 	stw	zero,200(sp)
    2290:	00003706 	br	2370 <___vfprintf_internal_r+0x734>
    2294:	94800214 	ori	r18,r18,8
    2298:	ac400007 	ldb	r17,0(r21)
    229c:	003ec806 	br	1dc0 <___vfprintf_internal_r+0x184>
    22a0:	18c03fcc 	andi	r3,r3,255
    22a4:	1806db1e 	bne	r3,zero,3e14 <___vfprintf_internal_r+0x21d8>
    22a8:	94800414 	ori	r18,r18,16
    22ac:	9080080c 	andi	r2,r18,32
    22b0:	1002d826 	beq	r2,zero,2e14 <___vfprintf_internal_r+0x11d8>
    22b4:	d9402d17 	ldw	r5,180(sp)
    22b8:	d8c02917 	ldw	r3,164(sp)
    22bc:	d8002785 	stb	zero,158(sp)
    22c0:	28800204 	addi	r2,r5,8
    22c4:	2cc00017 	ldw	r19,0(r5)
    22c8:	2d800117 	ldw	r22,4(r5)
    22cc:	18048f16 	blt	r3,zero,350c <___vfprintf_internal_r+0x18d0>
    22d0:	013fdfc4 	movi	r4,-129
    22d4:	9d86b03a 	or	r3,r19,r22
    22d8:	d8802d15 	stw	r2,180(sp)
    22dc:	9124703a 	and	r18,r18,r4
    22e0:	1802d91e 	bne	r3,zero,2e48 <___vfprintf_internal_r+0x120c>
    22e4:	d8c02917 	ldw	r3,164(sp)
    22e8:	0039883a 	mov	fp,zero
    22ec:	1805c326 	beq	r3,zero,39fc <___vfprintf_internal_r+0x1dc0>
    22f0:	0027883a 	mov	r19,zero
    22f4:	002d883a 	mov	r22,zero
    22f8:	dc001e04 	addi	r16,sp,120
    22fc:	9806d0fa 	srli	r3,r19,3
    2300:	b008977a 	slli	r4,r22,29
    2304:	b02cd0fa 	srli	r22,r22,3
    2308:	9cc001cc 	andi	r19,r19,7
    230c:	98800c04 	addi	r2,r19,48
    2310:	843fffc4 	addi	r16,r16,-1
    2314:	20e6b03a 	or	r19,r4,r3
    2318:	80800005 	stb	r2,0(r16)
    231c:	9d86b03a 	or	r3,r19,r22
    2320:	183ff61e 	bne	r3,zero,22fc <___vfprintf_internal_r+0x6c0>
    2324:	90c0004c 	andi	r3,r18,1
    2328:	18013b26 	beq	r3,zero,2818 <___vfprintf_internal_r+0xbdc>
    232c:	10803fcc 	andi	r2,r2,255
    2330:	1080201c 	xori	r2,r2,128
    2334:	10bfe004 	addi	r2,r2,-128
    2338:	00c00c04 	movi	r3,48
    233c:	10c13626 	beq	r2,r3,2818 <___vfprintf_internal_r+0xbdc>
    2340:	80ffffc5 	stb	r3,-1(r16)
    2344:	d8c02817 	ldw	r3,160(sp)
    2348:	80bfffc4 	addi	r2,r16,-1
    234c:	1021883a 	mov	r16,r2
    2350:	1887c83a 	sub	r3,r3,r2
    2354:	d8c02e15 	stw	r3,184(sp)
    2358:	d8802e17 	ldw	r2,184(sp)
    235c:	d9002917 	ldw	r4,164(sp)
    2360:	1100010e 	bge	r2,r4,2368 <___vfprintf_internal_r+0x72c>
    2364:	2005883a 	mov	r2,r4
    2368:	d8802a15 	stw	r2,168(sp)
    236c:	d8003215 	stw	zero,200(sp)
    2370:	e7003fcc 	andi	fp,fp,255
    2374:	e700201c 	xori	fp,fp,128
    2378:	e73fe004 	addi	fp,fp,-128
    237c:	e0000326 	beq	fp,zero,238c <___vfprintf_internal_r+0x750>
    2380:	d8c02a17 	ldw	r3,168(sp)
    2384:	18c00044 	addi	r3,r3,1
    2388:	d8c02a15 	stw	r3,168(sp)
    238c:	90c0008c 	andi	r3,r18,2
    2390:	d8c02b15 	stw	r3,172(sp)
    2394:	18000326 	beq	r3,zero,23a4 <___vfprintf_internal_r+0x768>
    2398:	d8c02a17 	ldw	r3,168(sp)
    239c:	18c00084 	addi	r3,r3,2
    23a0:	d8c02a15 	stw	r3,168(sp)
    23a4:	90c0210c 	andi	r3,r18,132
    23a8:	d8c03015 	stw	r3,192(sp)
    23ac:	1801a31e 	bne	r3,zero,2a3c <___vfprintf_internal_r+0xe00>
    23b0:	d9003117 	ldw	r4,196(sp)
    23b4:	d8c02a17 	ldw	r3,168(sp)
    23b8:	20e7c83a 	sub	r19,r4,r3
    23bc:	04c19f0e 	bge	zero,r19,2a3c <___vfprintf_internal_r+0xe00>
    23c0:	02400404 	movi	r9,16
    23c4:	d8c02017 	ldw	r3,128(sp)
    23c8:	d8801f17 	ldw	r2,124(sp)
    23cc:	4cc50d0e 	bge	r9,r19,3804 <___vfprintf_internal_r+0x1bc8>
    23d0:	014000b4 	movhi	r5,2
    23d4:	296ba984 	addi	r5,r5,-20826
    23d8:	dc403b15 	stw	r17,236(sp)
    23dc:	d9403515 	stw	r5,212(sp)
    23e0:	9823883a 	mov	r17,r19
    23e4:	482d883a 	mov	r22,r9
    23e8:	9027883a 	mov	r19,r18
    23ec:	070001c4 	movi	fp,7
    23f0:	8025883a 	mov	r18,r16
    23f4:	dc002c17 	ldw	r16,176(sp)
    23f8:	00000306 	br	2408 <___vfprintf_internal_r+0x7cc>
    23fc:	8c7ffc04 	addi	r17,r17,-16
    2400:	42000204 	addi	r8,r8,8
    2404:	b440130e 	bge	r22,r17,2454 <___vfprintf_internal_r+0x818>
    2408:	010000b4 	movhi	r4,2
    240c:	18c00404 	addi	r3,r3,16
    2410:	10800044 	addi	r2,r2,1
    2414:	212ba984 	addi	r4,r4,-20826
    2418:	41000015 	stw	r4,0(r8)
    241c:	45800115 	stw	r22,4(r8)
    2420:	d8c02015 	stw	r3,128(sp)
    2424:	d8801f15 	stw	r2,124(sp)
    2428:	e0bff40e 	bge	fp,r2,23fc <___vfprintf_internal_r+0x7c0>
    242c:	d9801e04 	addi	r6,sp,120
    2430:	b80b883a 	mov	r5,r23
    2434:	8009883a 	mov	r4,r16
    2438:	00092380 	call	9238 <__sprint_r>
    243c:	103f011e 	bne	r2,zero,2044 <___vfprintf_internal_r+0x408>
    2440:	8c7ffc04 	addi	r17,r17,-16
    2444:	d8c02017 	ldw	r3,128(sp)
    2448:	d8801f17 	ldw	r2,124(sp)
    244c:	da000404 	addi	r8,sp,16
    2450:	b47fed16 	blt	r22,r17,2408 <___vfprintf_internal_r+0x7cc>
    2454:	9021883a 	mov	r16,r18
    2458:	9825883a 	mov	r18,r19
    245c:	8827883a 	mov	r19,r17
    2460:	dc403b17 	ldw	r17,236(sp)
    2464:	d9403517 	ldw	r5,212(sp)
    2468:	98c7883a 	add	r3,r19,r3
    246c:	10800044 	addi	r2,r2,1
    2470:	41400015 	stw	r5,0(r8)
    2474:	44c00115 	stw	r19,4(r8)
    2478:	d8c02015 	stw	r3,128(sp)
    247c:	d8801f15 	stw	r2,124(sp)
    2480:	010001c4 	movi	r4,7
    2484:	2082a316 	blt	r4,r2,2f14 <___vfprintf_internal_r+0x12d8>
    2488:	df002787 	ldb	fp,158(sp)
    248c:	42000204 	addi	r8,r8,8
    2490:	e0000c26 	beq	fp,zero,24c4 <___vfprintf_internal_r+0x888>
    2494:	d8801f17 	ldw	r2,124(sp)
    2498:	d9002784 	addi	r4,sp,158
    249c:	18c00044 	addi	r3,r3,1
    24a0:	10800044 	addi	r2,r2,1
    24a4:	41000015 	stw	r4,0(r8)
    24a8:	01000044 	movi	r4,1
    24ac:	41000115 	stw	r4,4(r8)
    24b0:	d8c02015 	stw	r3,128(sp)
    24b4:	d8801f15 	stw	r2,124(sp)
    24b8:	010001c4 	movi	r4,7
    24bc:	20823c16 	blt	r4,r2,2db0 <___vfprintf_internal_r+0x1174>
    24c0:	42000204 	addi	r8,r8,8
    24c4:	d8802b17 	ldw	r2,172(sp)
    24c8:	10000c26 	beq	r2,zero,24fc <___vfprintf_internal_r+0x8c0>
    24cc:	d8801f17 	ldw	r2,124(sp)
    24d0:	d9002704 	addi	r4,sp,156
    24d4:	18c00084 	addi	r3,r3,2
    24d8:	10800044 	addi	r2,r2,1
    24dc:	41000015 	stw	r4,0(r8)
    24e0:	01000084 	movi	r4,2
    24e4:	41000115 	stw	r4,4(r8)
    24e8:	d8c02015 	stw	r3,128(sp)
    24ec:	d8801f15 	stw	r2,124(sp)
    24f0:	010001c4 	movi	r4,7
    24f4:	20823616 	blt	r4,r2,2dd0 <___vfprintf_internal_r+0x1194>
    24f8:	42000204 	addi	r8,r8,8
    24fc:	d9003017 	ldw	r4,192(sp)
    2500:	00802004 	movi	r2,128
    2504:	20819926 	beq	r4,r2,2b6c <___vfprintf_internal_r+0xf30>
    2508:	d9402917 	ldw	r5,164(sp)
    250c:	d8802e17 	ldw	r2,184(sp)
    2510:	28adc83a 	sub	r22,r5,r2
    2514:	0580310e 	bge	zero,r22,25dc <___vfprintf_internal_r+0x9a0>
    2518:	07000404 	movi	fp,16
    251c:	d8801f17 	ldw	r2,124(sp)
    2520:	e584140e 	bge	fp,r22,3574 <___vfprintf_internal_r+0x1938>
    2524:	014000b4 	movhi	r5,2
    2528:	296ba584 	addi	r5,r5,-20842
    252c:	dc402915 	stw	r17,164(sp)
    2530:	d9402b15 	stw	r5,172(sp)
    2534:	b023883a 	mov	r17,r22
    2538:	04c001c4 	movi	r19,7
    253c:	a82d883a 	mov	r22,r21
    2540:	902b883a 	mov	r21,r18
    2544:	8025883a 	mov	r18,r16
    2548:	dc002c17 	ldw	r16,176(sp)
    254c:	00000306 	br	255c <___vfprintf_internal_r+0x920>
    2550:	8c7ffc04 	addi	r17,r17,-16
    2554:	42000204 	addi	r8,r8,8
    2558:	e440110e 	bge	fp,r17,25a0 <___vfprintf_internal_r+0x964>
    255c:	18c00404 	addi	r3,r3,16
    2560:	10800044 	addi	r2,r2,1
    2564:	45000015 	stw	r20,0(r8)
    2568:	47000115 	stw	fp,4(r8)
    256c:	d8c02015 	stw	r3,128(sp)
    2570:	d8801f15 	stw	r2,124(sp)
    2574:	98bff60e 	bge	r19,r2,2550 <___vfprintf_internal_r+0x914>
    2578:	d9801e04 	addi	r6,sp,120
    257c:	b80b883a 	mov	r5,r23
    2580:	8009883a 	mov	r4,r16
    2584:	00092380 	call	9238 <__sprint_r>
    2588:	103eae1e 	bne	r2,zero,2044 <___vfprintf_internal_r+0x408>
    258c:	8c7ffc04 	addi	r17,r17,-16
    2590:	d8c02017 	ldw	r3,128(sp)
    2594:	d8801f17 	ldw	r2,124(sp)
    2598:	da000404 	addi	r8,sp,16
    259c:	e47fef16 	blt	fp,r17,255c <___vfprintf_internal_r+0x920>
    25a0:	9021883a 	mov	r16,r18
    25a4:	a825883a 	mov	r18,r21
    25a8:	b02b883a 	mov	r21,r22
    25ac:	882d883a 	mov	r22,r17
    25b0:	dc402917 	ldw	r17,164(sp)
    25b4:	d9002b17 	ldw	r4,172(sp)
    25b8:	1d87883a 	add	r3,r3,r22
    25bc:	10800044 	addi	r2,r2,1
    25c0:	41000015 	stw	r4,0(r8)
    25c4:	45800115 	stw	r22,4(r8)
    25c8:	d8c02015 	stw	r3,128(sp)
    25cc:	d8801f15 	stw	r2,124(sp)
    25d0:	010001c4 	movi	r4,7
    25d4:	2081ee16 	blt	r4,r2,2d90 <___vfprintf_internal_r+0x1154>
    25d8:	42000204 	addi	r8,r8,8
    25dc:	9080400c 	andi	r2,r18,256
    25e0:	1001181e 	bne	r2,zero,2a44 <___vfprintf_internal_r+0xe08>
    25e4:	d9402e17 	ldw	r5,184(sp)
    25e8:	d8801f17 	ldw	r2,124(sp)
    25ec:	44000015 	stw	r16,0(r8)
    25f0:	1947883a 	add	r3,r3,r5
    25f4:	10800044 	addi	r2,r2,1
    25f8:	41400115 	stw	r5,4(r8)
    25fc:	d8c02015 	stw	r3,128(sp)
    2600:	d8801f15 	stw	r2,124(sp)
    2604:	010001c4 	movi	r4,7
    2608:	2081d316 	blt	r4,r2,2d58 <___vfprintf_internal_r+0x111c>
    260c:	42000204 	addi	r8,r8,8
    2610:	9480010c 	andi	r18,r18,4
    2614:	90003226 	beq	r18,zero,26e0 <___vfprintf_internal_r+0xaa4>
    2618:	d9403117 	ldw	r5,196(sp)
    261c:	d8802a17 	ldw	r2,168(sp)
    2620:	28a1c83a 	sub	r16,r5,r2
    2624:	04002e0e 	bge	zero,r16,26e0 <___vfprintf_internal_r+0xaa4>
    2628:	04400404 	movi	r17,16
    262c:	d8801f17 	ldw	r2,124(sp)
    2630:	8c04a20e 	bge	r17,r16,38bc <___vfprintf_internal_r+0x1c80>
    2634:	014000b4 	movhi	r5,2
    2638:	296ba984 	addi	r5,r5,-20826
    263c:	d9403515 	stw	r5,212(sp)
    2640:	048001c4 	movi	r18,7
    2644:	dcc02c17 	ldw	r19,176(sp)
    2648:	00000306 	br	2658 <___vfprintf_internal_r+0xa1c>
    264c:	843ffc04 	addi	r16,r16,-16
    2650:	42000204 	addi	r8,r8,8
    2654:	8c00130e 	bge	r17,r16,26a4 <___vfprintf_internal_r+0xa68>
    2658:	010000b4 	movhi	r4,2
    265c:	18c00404 	addi	r3,r3,16
    2660:	10800044 	addi	r2,r2,1
    2664:	212ba984 	addi	r4,r4,-20826
    2668:	41000015 	stw	r4,0(r8)
    266c:	44400115 	stw	r17,4(r8)
    2670:	d8c02015 	stw	r3,128(sp)
    2674:	d8801f15 	stw	r2,124(sp)
    2678:	90bff40e 	bge	r18,r2,264c <___vfprintf_internal_r+0xa10>
    267c:	d9801e04 	addi	r6,sp,120
    2680:	b80b883a 	mov	r5,r23
    2684:	9809883a 	mov	r4,r19
    2688:	00092380 	call	9238 <__sprint_r>
    268c:	103e6d1e 	bne	r2,zero,2044 <___vfprintf_internal_r+0x408>
    2690:	843ffc04 	addi	r16,r16,-16
    2694:	d8c02017 	ldw	r3,128(sp)
    2698:	d8801f17 	ldw	r2,124(sp)
    269c:	da000404 	addi	r8,sp,16
    26a0:	8c3fed16 	blt	r17,r16,2658 <___vfprintf_internal_r+0xa1c>
    26a4:	d9403517 	ldw	r5,212(sp)
    26a8:	1c07883a 	add	r3,r3,r16
    26ac:	10800044 	addi	r2,r2,1
    26b0:	41400015 	stw	r5,0(r8)
    26b4:	44000115 	stw	r16,4(r8)
    26b8:	d8c02015 	stw	r3,128(sp)
    26bc:	d8801f15 	stw	r2,124(sp)
    26c0:	010001c4 	movi	r4,7
    26c4:	2080060e 	bge	r4,r2,26e0 <___vfprintf_internal_r+0xaa4>
    26c8:	d9002c17 	ldw	r4,176(sp)
    26cc:	d9801e04 	addi	r6,sp,120
    26d0:	b80b883a 	mov	r5,r23
    26d4:	00092380 	call	9238 <__sprint_r>
    26d8:	103e5a1e 	bne	r2,zero,2044 <___vfprintf_internal_r+0x408>
    26dc:	d8c02017 	ldw	r3,128(sp)
    26e0:	d8803117 	ldw	r2,196(sp)
    26e4:	d9002a17 	ldw	r4,168(sp)
    26e8:	1100010e 	bge	r2,r4,26f0 <___vfprintf_internal_r+0xab4>
    26ec:	2005883a 	mov	r2,r4
    26f0:	d9402f17 	ldw	r5,188(sp)
    26f4:	288b883a 	add	r5,r5,r2
    26f8:	d9402f15 	stw	r5,188(sp)
    26fc:	18019e1e 	bne	r3,zero,2d78 <___vfprintf_internal_r+0x113c>
    2700:	a8800007 	ldb	r2,0(r21)
    2704:	d8001f15 	stw	zero,124(sp)
    2708:	da000404 	addi	r8,sp,16
    270c:	103d851e 	bne	r2,zero,1d24 <___vfprintf_internal_r+0xe8>
    2710:	a821883a 	mov	r16,r21
    2714:	003d9b06 	br	1d84 <___vfprintf_internal_r+0x148>
    2718:	18c03fcc 	andi	r3,r3,255
    271c:	1805c11e 	bne	r3,zero,3e24 <___vfprintf_internal_r+0x21e8>
    2720:	94800414 	ori	r18,r18,16
    2724:	9080080c 	andi	r2,r18,32
    2728:	10020c26 	beq	r2,zero,2f5c <___vfprintf_internal_r+0x1320>
    272c:	d8802d17 	ldw	r2,180(sp)
    2730:	d9002917 	ldw	r4,164(sp)
    2734:	d8002785 	stb	zero,158(sp)
    2738:	10c00204 	addi	r3,r2,8
    273c:	14c00017 	ldw	r19,0(r2)
    2740:	15800117 	ldw	r22,4(r2)
    2744:	20040f16 	blt	r4,zero,3784 <___vfprintf_internal_r+0x1b48>
    2748:	013fdfc4 	movi	r4,-129
    274c:	9d84b03a 	or	r2,r19,r22
    2750:	d8c02d15 	stw	r3,180(sp)
    2754:	9124703a 	and	r18,r18,r4
    2758:	0039883a 	mov	fp,zero
    275c:	103e891e 	bne	r2,zero,2184 <___vfprintf_internal_r+0x548>
    2760:	d9002917 	ldw	r4,164(sp)
    2764:	2002c11e 	bne	r4,zero,326c <___vfprintf_internal_r+0x1630>
    2768:	d8002915 	stw	zero,164(sp)
    276c:	d8002e15 	stw	zero,184(sp)
    2770:	dc001e04 	addi	r16,sp,120
    2774:	003ef806 	br	2358 <___vfprintf_internal_r+0x71c>
    2778:	18c03fcc 	andi	r3,r3,255
    277c:	18059d1e 	bne	r3,zero,3df4 <___vfprintf_internal_r+0x21b8>
    2780:	014000b4 	movhi	r5,2
    2784:	296b9904 	addi	r5,r5,-20892
    2788:	d9403915 	stw	r5,228(sp)
    278c:	9080080c 	andi	r2,r18,32
    2790:	10005226 	beq	r2,zero,28dc <___vfprintf_internal_r+0xca0>
    2794:	d8802d17 	ldw	r2,180(sp)
    2798:	14c00017 	ldw	r19,0(r2)
    279c:	15800117 	ldw	r22,4(r2)
    27a0:	10800204 	addi	r2,r2,8
    27a4:	d8802d15 	stw	r2,180(sp)
    27a8:	9080004c 	andi	r2,r18,1
    27ac:	10019026 	beq	r2,zero,2df0 <___vfprintf_internal_r+0x11b4>
    27b0:	9d84b03a 	or	r2,r19,r22
    27b4:	10036926 	beq	r2,zero,355c <___vfprintf_internal_r+0x1920>
    27b8:	d8c02917 	ldw	r3,164(sp)
    27bc:	00800c04 	movi	r2,48
    27c0:	d8802705 	stb	r2,156(sp)
    27c4:	dc402745 	stb	r17,157(sp)
    27c8:	d8002785 	stb	zero,158(sp)
    27cc:	90800094 	ori	r2,r18,2
    27d0:	18045d16 	blt	r3,zero,3948 <___vfprintf_internal_r+0x1d0c>
    27d4:	00bfdfc4 	movi	r2,-129
    27d8:	90a4703a 	and	r18,r18,r2
    27dc:	94800094 	ori	r18,r18,2
    27e0:	0039883a 	mov	fp,zero
    27e4:	d9003917 	ldw	r4,228(sp)
    27e8:	dc001e04 	addi	r16,sp,120
    27ec:	988003cc 	andi	r2,r19,15
    27f0:	b006973a 	slli	r3,r22,28
    27f4:	2085883a 	add	r2,r4,r2
    27f8:	9826d13a 	srli	r19,r19,4
    27fc:	10800003 	ldbu	r2,0(r2)
    2800:	b02cd13a 	srli	r22,r22,4
    2804:	843fffc4 	addi	r16,r16,-1
    2808:	1ce6b03a 	or	r19,r3,r19
    280c:	80800005 	stb	r2,0(r16)
    2810:	9d84b03a 	or	r2,r19,r22
    2814:	103ff51e 	bne	r2,zero,27ec <___vfprintf_internal_r+0xbb0>
    2818:	d8c02817 	ldw	r3,160(sp)
    281c:	1c07c83a 	sub	r3,r3,r16
    2820:	d8c02e15 	stw	r3,184(sp)
    2824:	003ecc06 	br	2358 <___vfprintf_internal_r+0x71c>
    2828:	18c03fcc 	andi	r3,r3,255
    282c:	183e9f26 	beq	r3,zero,22ac <___vfprintf_internal_r+0x670>
    2830:	d9c02785 	stb	r7,158(sp)
    2834:	003e9d06 	br	22ac <___vfprintf_internal_r+0x670>
    2838:	00c00044 	movi	r3,1
    283c:	01c00ac4 	movi	r7,43
    2840:	ac400007 	ldb	r17,0(r21)
    2844:	003d5e06 	br	1dc0 <___vfprintf_internal_r+0x184>
    2848:	94800814 	ori	r18,r18,32
    284c:	ac400007 	ldb	r17,0(r21)
    2850:	003d5b06 	br	1dc0 <___vfprintf_internal_r+0x184>
    2854:	d8c02d17 	ldw	r3,180(sp)
    2858:	d8002785 	stb	zero,158(sp)
    285c:	1c000017 	ldw	r16,0(r3)
    2860:	1cc00104 	addi	r19,r3,4
    2864:	80041926 	beq	r16,zero,38cc <___vfprintf_internal_r+0x1c90>
    2868:	d9002917 	ldw	r4,164(sp)
    286c:	2003d016 	blt	r4,zero,37b0 <___vfprintf_internal_r+0x1b74>
    2870:	200d883a 	mov	r6,r4
    2874:	000b883a 	mov	r5,zero
    2878:	8009883a 	mov	r4,r16
    287c:	da003d15 	stw	r8,244(sp)
    2880:	000744c0 	call	744c <memchr>
    2884:	da003d17 	ldw	r8,244(sp)
    2888:	10045426 	beq	r2,zero,39dc <___vfprintf_internal_r+0x1da0>
    288c:	1405c83a 	sub	r2,r2,r16
    2890:	d8802e15 	stw	r2,184(sp)
    2894:	1003cc16 	blt	r2,zero,37c8 <___vfprintf_internal_r+0x1b8c>
    2898:	df002783 	ldbu	fp,158(sp)
    289c:	d8802a15 	stw	r2,168(sp)
    28a0:	dcc02d15 	stw	r19,180(sp)
    28a4:	d8002915 	stw	zero,164(sp)
    28a8:	d8003215 	stw	zero,200(sp)
    28ac:	003eb006 	br	2370 <___vfprintf_internal_r+0x734>
    28b0:	18c03fcc 	andi	r3,r3,255
    28b4:	183f9b26 	beq	r3,zero,2724 <___vfprintf_internal_r+0xae8>
    28b8:	d9c02785 	stb	r7,158(sp)
    28bc:	003f9906 	br	2724 <___vfprintf_internal_r+0xae8>
    28c0:	18c03fcc 	andi	r3,r3,255
    28c4:	1805551e 	bne	r3,zero,3e1c <___vfprintf_internal_r+0x21e0>
    28c8:	014000b4 	movhi	r5,2
    28cc:	296b9e04 	addi	r5,r5,-20872
    28d0:	d9403915 	stw	r5,228(sp)
    28d4:	9080080c 	andi	r2,r18,32
    28d8:	103fae1e 	bne	r2,zero,2794 <___vfprintf_internal_r+0xb58>
    28dc:	9080040c 	andi	r2,r18,16
    28e0:	1002de26 	beq	r2,zero,345c <___vfprintf_internal_r+0x1820>
    28e4:	d8c02d17 	ldw	r3,180(sp)
    28e8:	002d883a 	mov	r22,zero
    28ec:	1cc00017 	ldw	r19,0(r3)
    28f0:	18c00104 	addi	r3,r3,4
    28f4:	d8c02d15 	stw	r3,180(sp)
    28f8:	003fab06 	br	27a8 <___vfprintf_internal_r+0xb6c>
    28fc:	38803fcc 	andi	r2,r7,255
    2900:	1080201c 	xori	r2,r2,128
    2904:	10bfe004 	addi	r2,r2,-128
    2908:	1002d21e 	bne	r2,zero,3454 <___vfprintf_internal_r+0x1818>
    290c:	00c00044 	movi	r3,1
    2910:	01c00804 	movi	r7,32
    2914:	ac400007 	ldb	r17,0(r21)
    2918:	003d2906 	br	1dc0 <___vfprintf_internal_r+0x184>
    291c:	94800054 	ori	r18,r18,1
    2920:	ac400007 	ldb	r17,0(r21)
    2924:	003d2606 	br	1dc0 <___vfprintf_internal_r+0x184>
    2928:	18c03fcc 	andi	r3,r3,255
    292c:	183e0526 	beq	r3,zero,2144 <___vfprintf_internal_r+0x508>
    2930:	d9c02785 	stb	r7,158(sp)
    2934:	003e0306 	br	2144 <___vfprintf_internal_r+0x508>
    2938:	94801014 	ori	r18,r18,64
    293c:	ac400007 	ldb	r17,0(r21)
    2940:	003d1f06 	br	1dc0 <___vfprintf_internal_r+0x184>
    2944:	ac400007 	ldb	r17,0(r21)
    2948:	8a438726 	beq	r17,r9,3768 <___vfprintf_internal_r+0x1b2c>
    294c:	94800414 	ori	r18,r18,16
    2950:	003d1b06 	br	1dc0 <___vfprintf_internal_r+0x184>
    2954:	18c03fcc 	andi	r3,r3,255
    2958:	1805341e 	bne	r3,zero,3e2c <___vfprintf_internal_r+0x21f0>
    295c:	9080080c 	andi	r2,r18,32
    2960:	1002cd26 	beq	r2,zero,3498 <___vfprintf_internal_r+0x185c>
    2964:	d9402d17 	ldw	r5,180(sp)
    2968:	d9002f17 	ldw	r4,188(sp)
    296c:	28800017 	ldw	r2,0(r5)
    2970:	2007d7fa 	srai	r3,r4,31
    2974:	29400104 	addi	r5,r5,4
    2978:	d9402d15 	stw	r5,180(sp)
    297c:	11000015 	stw	r4,0(r2)
    2980:	10c00115 	stw	r3,4(r2)
    2984:	003ce506 	br	1d1c <___vfprintf_internal_r+0xe0>
    2988:	d8c02d17 	ldw	r3,180(sp)
    298c:	d9002d17 	ldw	r4,180(sp)
    2990:	d8002785 	stb	zero,158(sp)
    2994:	18800017 	ldw	r2,0(r3)
    2998:	21000104 	addi	r4,r4,4
    299c:	00c00044 	movi	r3,1
    29a0:	d8c02a15 	stw	r3,168(sp)
    29a4:	d8801405 	stb	r2,80(sp)
    29a8:	d9002d15 	stw	r4,180(sp)
    29ac:	d8c02e15 	stw	r3,184(sp)
    29b0:	d8002915 	stw	zero,164(sp)
    29b4:	d8003215 	stw	zero,200(sp)
    29b8:	dc001404 	addi	r16,sp,80
    29bc:	0039883a 	mov	fp,zero
    29c0:	003e7206 	br	238c <___vfprintf_internal_r+0x750>
    29c4:	010000b4 	movhi	r4,2
    29c8:	212b9e04 	addi	r4,r4,-20872
    29cc:	0039883a 	mov	fp,zero
    29d0:	d9003915 	stw	r4,228(sp)
    29d4:	04401e04 	movi	r17,120
    29d8:	003f8206 	br	27e4 <___vfprintf_internal_r+0xba8>
    29dc:	18c03fcc 	andi	r3,r3,255
    29e0:	1805061e 	bne	r3,zero,3dfc <___vfprintf_internal_r+0x21c0>
    29e4:	883d9126 	beq	r17,zero,202c <___vfprintf_internal_r+0x3f0>
    29e8:	00c00044 	movi	r3,1
    29ec:	d8c02a15 	stw	r3,168(sp)
    29f0:	dc401405 	stb	r17,80(sp)
    29f4:	d8002785 	stb	zero,158(sp)
    29f8:	003fec06 	br	29ac <___vfprintf_internal_r+0xd70>
    29fc:	014000b4 	movhi	r5,2
    2a00:	296b9e04 	addi	r5,r5,-20872
    2a04:	d9403915 	stw	r5,228(sp)
    2a08:	d8c02d15 	stw	r3,180(sp)
    2a0c:	1025883a 	mov	r18,r2
    2a10:	04401e04 	movi	r17,120
    2a14:	9d84b03a 	or	r2,r19,r22
    2a18:	1000fc1e 	bne	r2,zero,2e0c <___vfprintf_internal_r+0x11d0>
    2a1c:	0039883a 	mov	fp,zero
    2a20:	00800084 	movi	r2,2
    2a24:	10803fcc 	andi	r2,r2,255
    2a28:	00c00044 	movi	r3,1
    2a2c:	10c20f26 	beq	r2,r3,326c <___vfprintf_internal_r+0x1630>
    2a30:	00c00084 	movi	r3,2
    2a34:	10fd6326 	beq	r2,r3,1fc4 <___vfprintf_internal_r+0x388>
    2a38:	003e2d06 	br	22f0 <___vfprintf_internal_r+0x6b4>
    2a3c:	d8c02017 	ldw	r3,128(sp)
    2a40:	003e9306 	br	2490 <___vfprintf_internal_r+0x854>
    2a44:	00801944 	movi	r2,101
    2a48:	14407e0e 	bge	r2,r17,2c44 <___vfprintf_internal_r+0x1008>
    2a4c:	d9003617 	ldw	r4,216(sp)
    2a50:	d9403817 	ldw	r5,224(sp)
    2a54:	000d883a 	mov	r6,zero
    2a58:	000f883a 	mov	r7,zero
    2a5c:	d8c03c15 	stw	r3,240(sp)
    2a60:	da003d15 	stw	r8,244(sp)
    2a64:	000ceb00 	call	ceb0 <__eqdf2>
    2a68:	d8c03c17 	ldw	r3,240(sp)
    2a6c:	da003d17 	ldw	r8,244(sp)
    2a70:	1000f71e 	bne	r2,zero,2e50 <___vfprintf_internal_r+0x1214>
    2a74:	d8801f17 	ldw	r2,124(sp)
    2a78:	010000b4 	movhi	r4,2
    2a7c:	212ba504 	addi	r4,r4,-20844
    2a80:	18c00044 	addi	r3,r3,1
    2a84:	10800044 	addi	r2,r2,1
    2a88:	41000015 	stw	r4,0(r8)
    2a8c:	01000044 	movi	r4,1
    2a90:	41000115 	stw	r4,4(r8)
    2a94:	d8c02015 	stw	r3,128(sp)
    2a98:	d8801f15 	stw	r2,124(sp)
    2a9c:	010001c4 	movi	r4,7
    2aa0:	2082b816 	blt	r4,r2,3584 <___vfprintf_internal_r+0x1948>
    2aa4:	42000204 	addi	r8,r8,8
    2aa8:	d8802617 	ldw	r2,152(sp)
    2aac:	d9403317 	ldw	r5,204(sp)
    2ab0:	11400216 	blt	r2,r5,2abc <___vfprintf_internal_r+0xe80>
    2ab4:	9080004c 	andi	r2,r18,1
    2ab8:	103ed526 	beq	r2,zero,2610 <___vfprintf_internal_r+0x9d4>
    2abc:	d8803717 	ldw	r2,220(sp)
    2ac0:	d9003417 	ldw	r4,208(sp)
    2ac4:	d9403717 	ldw	r5,220(sp)
    2ac8:	1887883a 	add	r3,r3,r2
    2acc:	d8801f17 	ldw	r2,124(sp)
    2ad0:	41000015 	stw	r4,0(r8)
    2ad4:	41400115 	stw	r5,4(r8)
    2ad8:	10800044 	addi	r2,r2,1
    2adc:	d8c02015 	stw	r3,128(sp)
    2ae0:	d8801f15 	stw	r2,124(sp)
    2ae4:	010001c4 	movi	r4,7
    2ae8:	20832916 	blt	r4,r2,3790 <___vfprintf_internal_r+0x1b54>
    2aec:	42000204 	addi	r8,r8,8
    2af0:	d8803317 	ldw	r2,204(sp)
    2af4:	143fffc4 	addi	r16,r2,-1
    2af8:	043ec50e 	bge	zero,r16,2610 <___vfprintf_internal_r+0x9d4>
    2afc:	04400404 	movi	r17,16
    2b00:	d8801f17 	ldw	r2,124(sp)
    2b04:	8c00880e 	bge	r17,r16,2d28 <___vfprintf_internal_r+0x10ec>
    2b08:	014000b4 	movhi	r5,2
    2b0c:	296ba584 	addi	r5,r5,-20842
    2b10:	d9402b15 	stw	r5,172(sp)
    2b14:	058001c4 	movi	r22,7
    2b18:	dcc02c17 	ldw	r19,176(sp)
    2b1c:	00000306 	br	2b2c <___vfprintf_internal_r+0xef0>
    2b20:	42000204 	addi	r8,r8,8
    2b24:	843ffc04 	addi	r16,r16,-16
    2b28:	8c00820e 	bge	r17,r16,2d34 <___vfprintf_internal_r+0x10f8>
    2b2c:	18c00404 	addi	r3,r3,16
    2b30:	10800044 	addi	r2,r2,1
    2b34:	45000015 	stw	r20,0(r8)
    2b38:	44400115 	stw	r17,4(r8)
    2b3c:	d8c02015 	stw	r3,128(sp)
    2b40:	d8801f15 	stw	r2,124(sp)
    2b44:	b0bff60e 	bge	r22,r2,2b20 <___vfprintf_internal_r+0xee4>
    2b48:	d9801e04 	addi	r6,sp,120
    2b4c:	b80b883a 	mov	r5,r23
    2b50:	9809883a 	mov	r4,r19
    2b54:	00092380 	call	9238 <__sprint_r>
    2b58:	103d3a1e 	bne	r2,zero,2044 <___vfprintf_internal_r+0x408>
    2b5c:	d8c02017 	ldw	r3,128(sp)
    2b60:	d8801f17 	ldw	r2,124(sp)
    2b64:	da000404 	addi	r8,sp,16
    2b68:	003fee06 	br	2b24 <___vfprintf_internal_r+0xee8>
    2b6c:	d9403117 	ldw	r5,196(sp)
    2b70:	d8802a17 	ldw	r2,168(sp)
    2b74:	28adc83a 	sub	r22,r5,r2
    2b78:	05be630e 	bge	zero,r22,2508 <___vfprintf_internal_r+0x8cc>
    2b7c:	07000404 	movi	fp,16
    2b80:	d8801f17 	ldw	r2,124(sp)
    2b84:	e5838f0e 	bge	fp,r22,39c4 <___vfprintf_internal_r+0x1d88>
    2b88:	014000b4 	movhi	r5,2
    2b8c:	296ba584 	addi	r5,r5,-20842
    2b90:	dc403015 	stw	r17,192(sp)
    2b94:	d9402b15 	stw	r5,172(sp)
    2b98:	b023883a 	mov	r17,r22
    2b9c:	04c001c4 	movi	r19,7
    2ba0:	a82d883a 	mov	r22,r21
    2ba4:	902b883a 	mov	r21,r18
    2ba8:	8025883a 	mov	r18,r16
    2bac:	dc002c17 	ldw	r16,176(sp)
    2bb0:	00000306 	br	2bc0 <___vfprintf_internal_r+0xf84>
    2bb4:	8c7ffc04 	addi	r17,r17,-16
    2bb8:	42000204 	addi	r8,r8,8
    2bbc:	e440110e 	bge	fp,r17,2c04 <___vfprintf_internal_r+0xfc8>
    2bc0:	18c00404 	addi	r3,r3,16
    2bc4:	10800044 	addi	r2,r2,1
    2bc8:	45000015 	stw	r20,0(r8)
    2bcc:	47000115 	stw	fp,4(r8)
    2bd0:	d8c02015 	stw	r3,128(sp)
    2bd4:	d8801f15 	stw	r2,124(sp)
    2bd8:	98bff60e 	bge	r19,r2,2bb4 <___vfprintf_internal_r+0xf78>
    2bdc:	d9801e04 	addi	r6,sp,120
    2be0:	b80b883a 	mov	r5,r23
    2be4:	8009883a 	mov	r4,r16
    2be8:	00092380 	call	9238 <__sprint_r>
    2bec:	103d151e 	bne	r2,zero,2044 <___vfprintf_internal_r+0x408>
    2bf0:	8c7ffc04 	addi	r17,r17,-16
    2bf4:	d8c02017 	ldw	r3,128(sp)
    2bf8:	d8801f17 	ldw	r2,124(sp)
    2bfc:	da000404 	addi	r8,sp,16
    2c00:	e47fef16 	blt	fp,r17,2bc0 <___vfprintf_internal_r+0xf84>
    2c04:	9021883a 	mov	r16,r18
    2c08:	a825883a 	mov	r18,r21
    2c0c:	b02b883a 	mov	r21,r22
    2c10:	882d883a 	mov	r22,r17
    2c14:	dc403017 	ldw	r17,192(sp)
    2c18:	d9002b17 	ldw	r4,172(sp)
    2c1c:	1d87883a 	add	r3,r3,r22
    2c20:	10800044 	addi	r2,r2,1
    2c24:	41000015 	stw	r4,0(r8)
    2c28:	45800115 	stw	r22,4(r8)
    2c2c:	d8c02015 	stw	r3,128(sp)
    2c30:	d8801f15 	stw	r2,124(sp)
    2c34:	010001c4 	movi	r4,7
    2c38:	20818e16 	blt	r4,r2,3274 <___vfprintf_internal_r+0x1638>
    2c3c:	42000204 	addi	r8,r8,8
    2c40:	003e3106 	br	2508 <___vfprintf_internal_r+0x8cc>
    2c44:	d9403317 	ldw	r5,204(sp)
    2c48:	00800044 	movi	r2,1
    2c4c:	18c00044 	addi	r3,r3,1
    2c50:	1141530e 	bge	r2,r5,31a0 <___vfprintf_internal_r+0x1564>
    2c54:	dc401f17 	ldw	r17,124(sp)
    2c58:	00800044 	movi	r2,1
    2c5c:	40800115 	stw	r2,4(r8)
    2c60:	8c400044 	addi	r17,r17,1
    2c64:	44000015 	stw	r16,0(r8)
    2c68:	d8c02015 	stw	r3,128(sp)
    2c6c:	dc401f15 	stw	r17,124(sp)
    2c70:	008001c4 	movi	r2,7
    2c74:	14416b16 	blt	r2,r17,3224 <___vfprintf_internal_r+0x15e8>
    2c78:	42000204 	addi	r8,r8,8
    2c7c:	d8803717 	ldw	r2,220(sp)
    2c80:	d9003417 	ldw	r4,208(sp)
    2c84:	8c400044 	addi	r17,r17,1
    2c88:	10c7883a 	add	r3,r2,r3
    2c8c:	40800115 	stw	r2,4(r8)
    2c90:	41000015 	stw	r4,0(r8)
    2c94:	d8c02015 	stw	r3,128(sp)
    2c98:	dc401f15 	stw	r17,124(sp)
    2c9c:	008001c4 	movi	r2,7
    2ca0:	14416916 	blt	r2,r17,3248 <___vfprintf_internal_r+0x160c>
    2ca4:	45800204 	addi	r22,r8,8
    2ca8:	d9003617 	ldw	r4,216(sp)
    2cac:	d9403817 	ldw	r5,224(sp)
    2cb0:	000d883a 	mov	r6,zero
    2cb4:	000f883a 	mov	r7,zero
    2cb8:	d8c03c15 	stw	r3,240(sp)
    2cbc:	000ceb00 	call	ceb0 <__eqdf2>
    2cc0:	d8c03c17 	ldw	r3,240(sp)
    2cc4:	1000bc26 	beq	r2,zero,2fb8 <___vfprintf_internal_r+0x137c>
    2cc8:	d9403317 	ldw	r5,204(sp)
    2ccc:	84000044 	addi	r16,r16,1
    2cd0:	8c400044 	addi	r17,r17,1
    2cd4:	28bfffc4 	addi	r2,r5,-1
    2cd8:	1887883a 	add	r3,r3,r2
    2cdc:	b0800115 	stw	r2,4(r22)
    2ce0:	b4000015 	stw	r16,0(r22)
    2ce4:	d8c02015 	stw	r3,128(sp)
    2ce8:	dc401f15 	stw	r17,124(sp)
    2cec:	008001c4 	movi	r2,7
    2cf0:	14414316 	blt	r2,r17,3200 <___vfprintf_internal_r+0x15c4>
    2cf4:	b5800204 	addi	r22,r22,8
    2cf8:	d9003a17 	ldw	r4,232(sp)
    2cfc:	df0022c4 	addi	fp,sp,139
    2d00:	8c400044 	addi	r17,r17,1
    2d04:	20c7883a 	add	r3,r4,r3
    2d08:	b7000015 	stw	fp,0(r22)
    2d0c:	b1000115 	stw	r4,4(r22)
    2d10:	d8c02015 	stw	r3,128(sp)
    2d14:	dc401f15 	stw	r17,124(sp)
    2d18:	008001c4 	movi	r2,7
    2d1c:	14400e16 	blt	r2,r17,2d58 <___vfprintf_internal_r+0x111c>
    2d20:	b2000204 	addi	r8,r22,8
    2d24:	003e3a06 	br	2610 <___vfprintf_internal_r+0x9d4>
    2d28:	010000b4 	movhi	r4,2
    2d2c:	212ba584 	addi	r4,r4,-20842
    2d30:	d9002b15 	stw	r4,172(sp)
    2d34:	d9002b17 	ldw	r4,172(sp)
    2d38:	1c07883a 	add	r3,r3,r16
    2d3c:	44000115 	stw	r16,4(r8)
    2d40:	41000015 	stw	r4,0(r8)
    2d44:	10800044 	addi	r2,r2,1
    2d48:	d8c02015 	stw	r3,128(sp)
    2d4c:	d8801f15 	stw	r2,124(sp)
    2d50:	010001c4 	movi	r4,7
    2d54:	20be2d0e 	bge	r4,r2,260c <___vfprintf_internal_r+0x9d0>
    2d58:	d9002c17 	ldw	r4,176(sp)
    2d5c:	d9801e04 	addi	r6,sp,120
    2d60:	b80b883a 	mov	r5,r23
    2d64:	00092380 	call	9238 <__sprint_r>
    2d68:	103cb61e 	bne	r2,zero,2044 <___vfprintf_internal_r+0x408>
    2d6c:	d8c02017 	ldw	r3,128(sp)
    2d70:	da000404 	addi	r8,sp,16
    2d74:	003e2606 	br	2610 <___vfprintf_internal_r+0x9d4>
    2d78:	d9002c17 	ldw	r4,176(sp)
    2d7c:	d9801e04 	addi	r6,sp,120
    2d80:	b80b883a 	mov	r5,r23
    2d84:	00092380 	call	9238 <__sprint_r>
    2d88:	103e5d26 	beq	r2,zero,2700 <___vfprintf_internal_r+0xac4>
    2d8c:	003cad06 	br	2044 <___vfprintf_internal_r+0x408>
    2d90:	d9002c17 	ldw	r4,176(sp)
    2d94:	d9801e04 	addi	r6,sp,120
    2d98:	b80b883a 	mov	r5,r23
    2d9c:	00092380 	call	9238 <__sprint_r>
    2da0:	103ca81e 	bne	r2,zero,2044 <___vfprintf_internal_r+0x408>
    2da4:	d8c02017 	ldw	r3,128(sp)
    2da8:	da000404 	addi	r8,sp,16
    2dac:	003e0b06 	br	25dc <___vfprintf_internal_r+0x9a0>
    2db0:	d9002c17 	ldw	r4,176(sp)
    2db4:	d9801e04 	addi	r6,sp,120
    2db8:	b80b883a 	mov	r5,r23
    2dbc:	00092380 	call	9238 <__sprint_r>
    2dc0:	103ca01e 	bne	r2,zero,2044 <___vfprintf_internal_r+0x408>
    2dc4:	d8c02017 	ldw	r3,128(sp)
    2dc8:	da000404 	addi	r8,sp,16
    2dcc:	003dbd06 	br	24c4 <___vfprintf_internal_r+0x888>
    2dd0:	d9002c17 	ldw	r4,176(sp)
    2dd4:	d9801e04 	addi	r6,sp,120
    2dd8:	b80b883a 	mov	r5,r23
    2ddc:	00092380 	call	9238 <__sprint_r>
    2de0:	103c981e 	bne	r2,zero,2044 <___vfprintf_internal_r+0x408>
    2de4:	d8c02017 	ldw	r3,128(sp)
    2de8:	da000404 	addi	r8,sp,16
    2dec:	003dc306 	br	24fc <___vfprintf_internal_r+0x8c0>
    2df0:	d8802917 	ldw	r2,164(sp)
    2df4:	d8002785 	stb	zero,158(sp)
    2df8:	103f0616 	blt	r2,zero,2a14 <___vfprintf_internal_r+0xdd8>
    2dfc:	00ffdfc4 	movi	r3,-129
    2e00:	9d84b03a 	or	r2,r19,r22
    2e04:	90e4703a 	and	r18,r18,r3
    2e08:	103c6b26 	beq	r2,zero,1fb8 <___vfprintf_internal_r+0x37c>
    2e0c:	0039883a 	mov	fp,zero
    2e10:	003e7406 	br	27e4 <___vfprintf_internal_r+0xba8>
    2e14:	9080040c 	andi	r2,r18,16
    2e18:	1001b326 	beq	r2,zero,34e8 <___vfprintf_internal_r+0x18ac>
    2e1c:	d9002d17 	ldw	r4,180(sp)
    2e20:	d9402917 	ldw	r5,164(sp)
    2e24:	d8002785 	stb	zero,158(sp)
    2e28:	20800104 	addi	r2,r4,4
    2e2c:	24c00017 	ldw	r19,0(r4)
    2e30:	002d883a 	mov	r22,zero
    2e34:	2801b516 	blt	r5,zero,350c <___vfprintf_internal_r+0x18d0>
    2e38:	00ffdfc4 	movi	r3,-129
    2e3c:	d8802d15 	stw	r2,180(sp)
    2e40:	90e4703a 	and	r18,r18,r3
    2e44:	983d2726 	beq	r19,zero,22e4 <___vfprintf_internal_r+0x6a8>
    2e48:	0039883a 	mov	fp,zero
    2e4c:	003d2a06 	br	22f8 <___vfprintf_internal_r+0x6bc>
    2e50:	dc402617 	ldw	r17,152(sp)
    2e54:	0441d30e 	bge	zero,r17,35a4 <___vfprintf_internal_r+0x1968>
    2e58:	dc403217 	ldw	r17,200(sp)
    2e5c:	d8803317 	ldw	r2,204(sp)
    2e60:	1440010e 	bge	r2,r17,2e68 <___vfprintf_internal_r+0x122c>
    2e64:	1023883a 	mov	r17,r2
    2e68:	04400a0e 	bge	zero,r17,2e94 <___vfprintf_internal_r+0x1258>
    2e6c:	d8801f17 	ldw	r2,124(sp)
    2e70:	1c47883a 	add	r3,r3,r17
    2e74:	44000015 	stw	r16,0(r8)
    2e78:	10800044 	addi	r2,r2,1
    2e7c:	44400115 	stw	r17,4(r8)
    2e80:	d8c02015 	stw	r3,128(sp)
    2e84:	d8801f15 	stw	r2,124(sp)
    2e88:	010001c4 	movi	r4,7
    2e8c:	20826516 	blt	r4,r2,3824 <___vfprintf_internal_r+0x1be8>
    2e90:	42000204 	addi	r8,r8,8
    2e94:	88026116 	blt	r17,zero,381c <___vfprintf_internal_r+0x1be0>
    2e98:	d9003217 	ldw	r4,200(sp)
    2e9c:	2463c83a 	sub	r17,r4,r17
    2ea0:	04407b0e 	bge	zero,r17,3090 <___vfprintf_internal_r+0x1454>
    2ea4:	05800404 	movi	r22,16
    2ea8:	d8801f17 	ldw	r2,124(sp)
    2eac:	b4419d0e 	bge	r22,r17,3524 <___vfprintf_internal_r+0x18e8>
    2eb0:	010000b4 	movhi	r4,2
    2eb4:	212ba584 	addi	r4,r4,-20842
    2eb8:	d9002b15 	stw	r4,172(sp)
    2ebc:	070001c4 	movi	fp,7
    2ec0:	dcc02c17 	ldw	r19,176(sp)
    2ec4:	00000306 	br	2ed4 <___vfprintf_internal_r+0x1298>
    2ec8:	42000204 	addi	r8,r8,8
    2ecc:	8c7ffc04 	addi	r17,r17,-16
    2ed0:	b441970e 	bge	r22,r17,3530 <___vfprintf_internal_r+0x18f4>
    2ed4:	18c00404 	addi	r3,r3,16
    2ed8:	10800044 	addi	r2,r2,1
    2edc:	45000015 	stw	r20,0(r8)
    2ee0:	45800115 	stw	r22,4(r8)
    2ee4:	d8c02015 	stw	r3,128(sp)
    2ee8:	d8801f15 	stw	r2,124(sp)
    2eec:	e0bff60e 	bge	fp,r2,2ec8 <___vfprintf_internal_r+0x128c>
    2ef0:	d9801e04 	addi	r6,sp,120
    2ef4:	b80b883a 	mov	r5,r23
    2ef8:	9809883a 	mov	r4,r19
    2efc:	00092380 	call	9238 <__sprint_r>
    2f00:	103c501e 	bne	r2,zero,2044 <___vfprintf_internal_r+0x408>
    2f04:	d8c02017 	ldw	r3,128(sp)
    2f08:	d8801f17 	ldw	r2,124(sp)
    2f0c:	da000404 	addi	r8,sp,16
    2f10:	003fee06 	br	2ecc <___vfprintf_internal_r+0x1290>
    2f14:	d9002c17 	ldw	r4,176(sp)
    2f18:	d9801e04 	addi	r6,sp,120
    2f1c:	b80b883a 	mov	r5,r23
    2f20:	00092380 	call	9238 <__sprint_r>
    2f24:	103c471e 	bne	r2,zero,2044 <___vfprintf_internal_r+0x408>
    2f28:	d8c02017 	ldw	r3,128(sp)
    2f2c:	df002787 	ldb	fp,158(sp)
    2f30:	da000404 	addi	r8,sp,16
    2f34:	003d5606 	br	2490 <___vfprintf_internal_r+0x854>
    2f38:	9080040c 	andi	r2,r18,16
    2f3c:	10016126 	beq	r2,zero,34c4 <___vfprintf_internal_r+0x1888>
    2f40:	d8802d17 	ldw	r2,180(sp)
    2f44:	14c00017 	ldw	r19,0(r2)
    2f48:	10800104 	addi	r2,r2,4
    2f4c:	d8802d15 	stw	r2,180(sp)
    2f50:	982dd7fa 	srai	r22,r19,31
    2f54:	b005883a 	mov	r2,r22
    2f58:	003c8206 	br	2164 <___vfprintf_internal_r+0x528>
    2f5c:	9080040c 	andi	r2,r18,16
    2f60:	10003526 	beq	r2,zero,3038 <___vfprintf_internal_r+0x13fc>
    2f64:	d9402d17 	ldw	r5,180(sp)
    2f68:	d8c02917 	ldw	r3,164(sp)
    2f6c:	d8002785 	stb	zero,158(sp)
    2f70:	28800104 	addi	r2,r5,4
    2f74:	2cc00017 	ldw	r19,0(r5)
    2f78:	002d883a 	mov	r22,zero
    2f7c:	18003716 	blt	r3,zero,305c <___vfprintf_internal_r+0x1420>
    2f80:	00ffdfc4 	movi	r3,-129
    2f84:	d8802d15 	stw	r2,180(sp)
    2f88:	90e4703a 	and	r18,r18,r3
    2f8c:	0039883a 	mov	fp,zero
    2f90:	983df326 	beq	r19,zero,2760 <___vfprintf_internal_r+0xb24>
    2f94:	00800244 	movi	r2,9
    2f98:	14fc7b36 	bltu	r2,r19,2188 <___vfprintf_internal_r+0x54c>
    2f9c:	d8c02817 	ldw	r3,160(sp)
    2fa0:	dc001dc4 	addi	r16,sp,119
    2fa4:	9cc00c04 	addi	r19,r19,48
    2fa8:	1c07c83a 	sub	r3,r3,r16
    2fac:	dcc01dc5 	stb	r19,119(sp)
    2fb0:	d8c02e15 	stw	r3,184(sp)
    2fb4:	003ce806 	br	2358 <___vfprintf_internal_r+0x71c>
    2fb8:	d8803317 	ldw	r2,204(sp)
    2fbc:	143fffc4 	addi	r16,r2,-1
    2fc0:	043f4d0e 	bge	zero,r16,2cf8 <___vfprintf_internal_r+0x10bc>
    2fc4:	07000404 	movi	fp,16
    2fc8:	e400810e 	bge	fp,r16,31d0 <___vfprintf_internal_r+0x1594>
    2fcc:	014000b4 	movhi	r5,2
    2fd0:	296ba584 	addi	r5,r5,-20842
    2fd4:	d9402b15 	stw	r5,172(sp)
    2fd8:	01c001c4 	movi	r7,7
    2fdc:	dcc02c17 	ldw	r19,176(sp)
    2fe0:	00000306 	br	2ff0 <___vfprintf_internal_r+0x13b4>
    2fe4:	b5800204 	addi	r22,r22,8
    2fe8:	843ffc04 	addi	r16,r16,-16
    2fec:	e4007b0e 	bge	fp,r16,31dc <___vfprintf_internal_r+0x15a0>
    2ff0:	18c00404 	addi	r3,r3,16
    2ff4:	8c400044 	addi	r17,r17,1
    2ff8:	b5000015 	stw	r20,0(r22)
    2ffc:	b7000115 	stw	fp,4(r22)
    3000:	d8c02015 	stw	r3,128(sp)
    3004:	dc401f15 	stw	r17,124(sp)
    3008:	3c7ff60e 	bge	r7,r17,2fe4 <___vfprintf_internal_r+0x13a8>
    300c:	d9801e04 	addi	r6,sp,120
    3010:	b80b883a 	mov	r5,r23
    3014:	9809883a 	mov	r4,r19
    3018:	d9c03c15 	stw	r7,240(sp)
    301c:	00092380 	call	9238 <__sprint_r>
    3020:	d9c03c17 	ldw	r7,240(sp)
    3024:	103c071e 	bne	r2,zero,2044 <___vfprintf_internal_r+0x408>
    3028:	d8c02017 	ldw	r3,128(sp)
    302c:	dc401f17 	ldw	r17,124(sp)
    3030:	dd800404 	addi	r22,sp,16
    3034:	003fec06 	br	2fe8 <___vfprintf_internal_r+0x13ac>
    3038:	9080100c 	andi	r2,r18,64
    303c:	d8002785 	stb	zero,158(sp)
    3040:	10010e26 	beq	r2,zero,347c <___vfprintf_internal_r+0x1840>
    3044:	d9002d17 	ldw	r4,180(sp)
    3048:	d9402917 	ldw	r5,164(sp)
    304c:	002d883a 	mov	r22,zero
    3050:	20800104 	addi	r2,r4,4
    3054:	24c0000b 	ldhu	r19,0(r4)
    3058:	283fc90e 	bge	r5,zero,2f80 <___vfprintf_internal_r+0x1344>
    305c:	d8802d15 	stw	r2,180(sp)
    3060:	0039883a 	mov	fp,zero
    3064:	9d84b03a 	or	r2,r19,r22
    3068:	103c461e 	bne	r2,zero,2184 <___vfprintf_internal_r+0x548>
    306c:	00800044 	movi	r2,1
    3070:	003e6c06 	br	2a24 <___vfprintf_internal_r+0xde8>
    3074:	d9002c17 	ldw	r4,176(sp)
    3078:	d9801e04 	addi	r6,sp,120
    307c:	b80b883a 	mov	r5,r23
    3080:	00092380 	call	9238 <__sprint_r>
    3084:	103bef1e 	bne	r2,zero,2044 <___vfprintf_internal_r+0x408>
    3088:	d8c02017 	ldw	r3,128(sp)
    308c:	da000404 	addi	r8,sp,16
    3090:	d9003217 	ldw	r4,200(sp)
    3094:	d8802617 	ldw	r2,152(sp)
    3098:	d9403317 	ldw	r5,204(sp)
    309c:	8123883a 	add	r17,r16,r4
    30a0:	11400216 	blt	r2,r5,30ac <___vfprintf_internal_r+0x1470>
    30a4:	9100004c 	andi	r4,r18,1
    30a8:	20000d26 	beq	r4,zero,30e0 <___vfprintf_internal_r+0x14a4>
    30ac:	d9003717 	ldw	r4,220(sp)
    30b0:	d9403417 	ldw	r5,208(sp)
    30b4:	1907883a 	add	r3,r3,r4
    30b8:	d9001f17 	ldw	r4,124(sp)
    30bc:	41400015 	stw	r5,0(r8)
    30c0:	d9403717 	ldw	r5,220(sp)
    30c4:	21000044 	addi	r4,r4,1
    30c8:	d8c02015 	stw	r3,128(sp)
    30cc:	41400115 	stw	r5,4(r8)
    30d0:	d9001f15 	stw	r4,124(sp)
    30d4:	014001c4 	movi	r5,7
    30d8:	2901e816 	blt	r5,r4,387c <___vfprintf_internal_r+0x1c40>
    30dc:	42000204 	addi	r8,r8,8
    30e0:	d9003317 	ldw	r4,204(sp)
    30e4:	8121883a 	add	r16,r16,r4
    30e8:	2085c83a 	sub	r2,r4,r2
    30ec:	8461c83a 	sub	r16,r16,r17
    30f0:	1400010e 	bge	r2,r16,30f8 <___vfprintf_internal_r+0x14bc>
    30f4:	1021883a 	mov	r16,r2
    30f8:	04000a0e 	bge	zero,r16,3124 <___vfprintf_internal_r+0x14e8>
    30fc:	d9001f17 	ldw	r4,124(sp)
    3100:	1c07883a 	add	r3,r3,r16
    3104:	44400015 	stw	r17,0(r8)
    3108:	21000044 	addi	r4,r4,1
    310c:	44000115 	stw	r16,4(r8)
    3110:	d8c02015 	stw	r3,128(sp)
    3114:	d9001f15 	stw	r4,124(sp)
    3118:	014001c4 	movi	r5,7
    311c:	2901fb16 	blt	r5,r4,390c <___vfprintf_internal_r+0x1cd0>
    3120:	42000204 	addi	r8,r8,8
    3124:	8001f716 	blt	r16,zero,3904 <___vfprintf_internal_r+0x1cc8>
    3128:	1421c83a 	sub	r16,r2,r16
    312c:	043d380e 	bge	zero,r16,2610 <___vfprintf_internal_r+0x9d4>
    3130:	04400404 	movi	r17,16
    3134:	d8801f17 	ldw	r2,124(sp)
    3138:	8c3efb0e 	bge	r17,r16,2d28 <___vfprintf_internal_r+0x10ec>
    313c:	014000b4 	movhi	r5,2
    3140:	296ba584 	addi	r5,r5,-20842
    3144:	d9402b15 	stw	r5,172(sp)
    3148:	058001c4 	movi	r22,7
    314c:	dcc02c17 	ldw	r19,176(sp)
    3150:	00000306 	br	3160 <___vfprintf_internal_r+0x1524>
    3154:	42000204 	addi	r8,r8,8
    3158:	843ffc04 	addi	r16,r16,-16
    315c:	8c3ef50e 	bge	r17,r16,2d34 <___vfprintf_internal_r+0x10f8>
    3160:	18c00404 	addi	r3,r3,16
    3164:	10800044 	addi	r2,r2,1
    3168:	45000015 	stw	r20,0(r8)
    316c:	44400115 	stw	r17,4(r8)
    3170:	d8c02015 	stw	r3,128(sp)
    3174:	d8801f15 	stw	r2,124(sp)
    3178:	b0bff60e 	bge	r22,r2,3154 <___vfprintf_internal_r+0x1518>
    317c:	d9801e04 	addi	r6,sp,120
    3180:	b80b883a 	mov	r5,r23
    3184:	9809883a 	mov	r4,r19
    3188:	00092380 	call	9238 <__sprint_r>
    318c:	103bad1e 	bne	r2,zero,2044 <___vfprintf_internal_r+0x408>
    3190:	d8c02017 	ldw	r3,128(sp)
    3194:	d8801f17 	ldw	r2,124(sp)
    3198:	da000404 	addi	r8,sp,16
    319c:	003fee06 	br	3158 <___vfprintf_internal_r+0x151c>
    31a0:	9088703a 	and	r4,r18,r2
    31a4:	203eab1e 	bne	r4,zero,2c54 <___vfprintf_internal_r+0x1018>
    31a8:	dc401f17 	ldw	r17,124(sp)
    31ac:	40800115 	stw	r2,4(r8)
    31b0:	44000015 	stw	r16,0(r8)
    31b4:	8c400044 	addi	r17,r17,1
    31b8:	d8c02015 	stw	r3,128(sp)
    31bc:	dc401f15 	stw	r17,124(sp)
    31c0:	008001c4 	movi	r2,7
    31c4:	14400e16 	blt	r2,r17,3200 <___vfprintf_internal_r+0x15c4>
    31c8:	45800204 	addi	r22,r8,8
    31cc:	003eca06 	br	2cf8 <___vfprintf_internal_r+0x10bc>
    31d0:	010000b4 	movhi	r4,2
    31d4:	212ba584 	addi	r4,r4,-20842
    31d8:	d9002b15 	stw	r4,172(sp)
    31dc:	d8802b17 	ldw	r2,172(sp)
    31e0:	1c07883a 	add	r3,r3,r16
    31e4:	8c400044 	addi	r17,r17,1
    31e8:	b0800015 	stw	r2,0(r22)
    31ec:	b4000115 	stw	r16,4(r22)
    31f0:	d8c02015 	stw	r3,128(sp)
    31f4:	dc401f15 	stw	r17,124(sp)
    31f8:	008001c4 	movi	r2,7
    31fc:	147ebd0e 	bge	r2,r17,2cf4 <___vfprintf_internal_r+0x10b8>
    3200:	d9002c17 	ldw	r4,176(sp)
    3204:	d9801e04 	addi	r6,sp,120
    3208:	b80b883a 	mov	r5,r23
    320c:	00092380 	call	9238 <__sprint_r>
    3210:	103b8c1e 	bne	r2,zero,2044 <___vfprintf_internal_r+0x408>
    3214:	d8c02017 	ldw	r3,128(sp)
    3218:	dc401f17 	ldw	r17,124(sp)
    321c:	dd800404 	addi	r22,sp,16
    3220:	003eb506 	br	2cf8 <___vfprintf_internal_r+0x10bc>
    3224:	d9002c17 	ldw	r4,176(sp)
    3228:	d9801e04 	addi	r6,sp,120
    322c:	b80b883a 	mov	r5,r23
    3230:	00092380 	call	9238 <__sprint_r>
    3234:	103b831e 	bne	r2,zero,2044 <___vfprintf_internal_r+0x408>
    3238:	d8c02017 	ldw	r3,128(sp)
    323c:	dc401f17 	ldw	r17,124(sp)
    3240:	da000404 	addi	r8,sp,16
    3244:	003e8d06 	br	2c7c <___vfprintf_internal_r+0x1040>
    3248:	d9002c17 	ldw	r4,176(sp)
    324c:	d9801e04 	addi	r6,sp,120
    3250:	b80b883a 	mov	r5,r23
    3254:	00092380 	call	9238 <__sprint_r>
    3258:	103b7a1e 	bne	r2,zero,2044 <___vfprintf_internal_r+0x408>
    325c:	d8c02017 	ldw	r3,128(sp)
    3260:	dc401f17 	ldw	r17,124(sp)
    3264:	dd800404 	addi	r22,sp,16
    3268:	003e8f06 	br	2ca8 <___vfprintf_internal_r+0x106c>
    326c:	0027883a 	mov	r19,zero
    3270:	003f4a06 	br	2f9c <___vfprintf_internal_r+0x1360>
    3274:	d9002c17 	ldw	r4,176(sp)
    3278:	d9801e04 	addi	r6,sp,120
    327c:	b80b883a 	mov	r5,r23
    3280:	00092380 	call	9238 <__sprint_r>
    3284:	103b6f1e 	bne	r2,zero,2044 <___vfprintf_internal_r+0x408>
    3288:	d8c02017 	ldw	r3,128(sp)
    328c:	da000404 	addi	r8,sp,16
    3290:	003c9d06 	br	2508 <___vfprintf_internal_r+0x8cc>
    3294:	04e7c83a 	sub	r19,zero,r19
    3298:	9804c03a 	cmpne	r2,r19,zero
    329c:	05adc83a 	sub	r22,zero,r22
    32a0:	b0adc83a 	sub	r22,r22,r2
    32a4:	d8802917 	ldw	r2,164(sp)
    32a8:	07000b44 	movi	fp,45
    32ac:	df002785 	stb	fp,158(sp)
    32b0:	10017b16 	blt	r2,zero,38a0 <___vfprintf_internal_r+0x1c64>
    32b4:	00bfdfc4 	movi	r2,-129
    32b8:	90a4703a 	and	r18,r18,r2
    32bc:	003bb106 	br	2184 <___vfprintf_internal_r+0x548>
    32c0:	d9003617 	ldw	r4,216(sp)
    32c4:	d9403817 	ldw	r5,224(sp)
    32c8:	da003d15 	stw	r8,244(sp)
    32cc:	0008e5c0 	call	8e5c <__fpclassifyd>
    32d0:	da003d17 	ldw	r8,244(sp)
    32d4:	1000f026 	beq	r2,zero,3698 <___vfprintf_internal_r+0x1a5c>
    32d8:	d9002917 	ldw	r4,164(sp)
    32dc:	05bff7c4 	movi	r22,-33
    32e0:	00bfffc4 	movi	r2,-1
    32e4:	8dac703a 	and	r22,r17,r22
    32e8:	20820026 	beq	r4,r2,3aec <___vfprintf_internal_r+0x1eb0>
    32ec:	008011c4 	movi	r2,71
    32f0:	b081f726 	beq	r22,r2,3ad0 <___vfprintf_internal_r+0x1e94>
    32f4:	d9003817 	ldw	r4,224(sp)
    32f8:	90c04014 	ori	r3,r18,256
    32fc:	d8c02b15 	stw	r3,172(sp)
    3300:	20021516 	blt	r4,zero,3b58 <___vfprintf_internal_r+0x1f1c>
    3304:	dcc03817 	ldw	r19,224(sp)
    3308:	d8002a05 	stb	zero,168(sp)
    330c:	00801984 	movi	r2,102
    3310:	8881f926 	beq	r17,r2,3af8 <___vfprintf_internal_r+0x1ebc>
    3314:	00801184 	movi	r2,70
    3318:	88821c26 	beq	r17,r2,3b8c <___vfprintf_internal_r+0x1f50>
    331c:	00801144 	movi	r2,69
    3320:	b081ef26 	beq	r22,r2,3ae0 <___vfprintf_internal_r+0x1ea4>
    3324:	d8c02917 	ldw	r3,164(sp)
    3328:	d8802104 	addi	r2,sp,132
    332c:	d8800315 	stw	r2,12(sp)
    3330:	d9403617 	ldw	r5,216(sp)
    3334:	d8802504 	addi	r2,sp,148
    3338:	d9002c17 	ldw	r4,176(sp)
    333c:	d8800215 	stw	r2,8(sp)
    3340:	d8802604 	addi	r2,sp,152
    3344:	d8c00015 	stw	r3,0(sp)
    3348:	d8800115 	stw	r2,4(sp)
    334c:	01c00084 	movi	r7,2
    3350:	980d883a 	mov	r6,r19
    3354:	d8c03c15 	stw	r3,240(sp)
    3358:	da003d15 	stw	r8,244(sp)
    335c:	00042600 	call	4260 <_dtoa_r>
    3360:	1021883a 	mov	r16,r2
    3364:	008019c4 	movi	r2,103
    3368:	d8c03c17 	ldw	r3,240(sp)
    336c:	da003d17 	ldw	r8,244(sp)
    3370:	88817126 	beq	r17,r2,3938 <___vfprintf_internal_r+0x1cfc>
    3374:	008011c4 	movi	r2,71
    3378:	88829226 	beq	r17,r2,3dc4 <___vfprintf_internal_r+0x2188>
    337c:	80f9883a 	add	fp,r16,r3
    3380:	d9003617 	ldw	r4,216(sp)
    3384:	000d883a 	mov	r6,zero
    3388:	000f883a 	mov	r7,zero
    338c:	980b883a 	mov	r5,r19
    3390:	da003d15 	stw	r8,244(sp)
    3394:	000ceb00 	call	ceb0 <__eqdf2>
    3398:	da003d17 	ldw	r8,244(sp)
    339c:	10018d26 	beq	r2,zero,39d4 <___vfprintf_internal_r+0x1d98>
    33a0:	d8802117 	ldw	r2,132(sp)
    33a4:	1700062e 	bgeu	r2,fp,33c0 <___vfprintf_internal_r+0x1784>
    33a8:	01000c04 	movi	r4,48
    33ac:	10c00044 	addi	r3,r2,1
    33b0:	d8c02115 	stw	r3,132(sp)
    33b4:	11000005 	stb	r4,0(r2)
    33b8:	d8802117 	ldw	r2,132(sp)
    33bc:	173ffb36 	bltu	r2,fp,33ac <___vfprintf_internal_r+0x1770>
    33c0:	1405c83a 	sub	r2,r2,r16
    33c4:	d8803315 	stw	r2,204(sp)
    33c8:	008011c4 	movi	r2,71
    33cc:	b0817626 	beq	r22,r2,39a8 <___vfprintf_internal_r+0x1d6c>
    33d0:	00801944 	movi	r2,101
    33d4:	1442810e 	bge	r2,r17,3ddc <___vfprintf_internal_r+0x21a0>
    33d8:	d8c02617 	ldw	r3,152(sp)
    33dc:	00801984 	movi	r2,102
    33e0:	d8c03215 	stw	r3,200(sp)
    33e4:	8881fe26 	beq	r17,r2,3be0 <___vfprintf_internal_r+0x1fa4>
    33e8:	d8c03217 	ldw	r3,200(sp)
    33ec:	d9003317 	ldw	r4,204(sp)
    33f0:	1901dd16 	blt	r3,r4,3b68 <___vfprintf_internal_r+0x1f2c>
    33f4:	9480004c 	andi	r18,r18,1
    33f8:	90022b1e 	bne	r18,zero,3ca8 <___vfprintf_internal_r+0x206c>
    33fc:	1805883a 	mov	r2,r3
    3400:	18028016 	blt	r3,zero,3e04 <___vfprintf_internal_r+0x21c8>
    3404:	d8c03217 	ldw	r3,200(sp)
    3408:	044019c4 	movi	r17,103
    340c:	d8c02e15 	stw	r3,184(sp)
    3410:	df002a07 	ldb	fp,168(sp)
    3414:	e001531e 	bne	fp,zero,3964 <___vfprintf_internal_r+0x1d28>
    3418:	df002783 	ldbu	fp,158(sp)
    341c:	d8802a15 	stw	r2,168(sp)
    3420:	dc802b17 	ldw	r18,172(sp)
    3424:	d8002915 	stw	zero,164(sp)
    3428:	003bd106 	br	2370 <___vfprintf_internal_r+0x734>
    342c:	d8802d17 	ldw	r2,180(sp)
    3430:	d8c02d17 	ldw	r3,180(sp)
    3434:	d9002d17 	ldw	r4,180(sp)
    3438:	10800017 	ldw	r2,0(r2)
    343c:	18c00117 	ldw	r3,4(r3)
    3440:	21000204 	addi	r4,r4,8
    3444:	d8803615 	stw	r2,216(sp)
    3448:	d8c03815 	stw	r3,224(sp)
    344c:	d9002d15 	stw	r4,180(sp)
    3450:	003b7506 	br	2228 <___vfprintf_internal_r+0x5ec>
    3454:	ac400007 	ldb	r17,0(r21)
    3458:	003a5906 	br	1dc0 <___vfprintf_internal_r+0x184>
    345c:	9080100c 	andi	r2,r18,64
    3460:	1000a826 	beq	r2,zero,3704 <___vfprintf_internal_r+0x1ac8>
    3464:	d9002d17 	ldw	r4,180(sp)
    3468:	002d883a 	mov	r22,zero
    346c:	24c0000b 	ldhu	r19,0(r4)
    3470:	21000104 	addi	r4,r4,4
    3474:	d9002d15 	stw	r4,180(sp)
    3478:	003ccb06 	br	27a8 <___vfprintf_internal_r+0xb6c>
    347c:	d8c02d17 	ldw	r3,180(sp)
    3480:	d9002917 	ldw	r4,164(sp)
    3484:	002d883a 	mov	r22,zero
    3488:	18800104 	addi	r2,r3,4
    348c:	1cc00017 	ldw	r19,0(r3)
    3490:	203ebb0e 	bge	r4,zero,2f80 <___vfprintf_internal_r+0x1344>
    3494:	003ef106 	br	305c <___vfprintf_internal_r+0x1420>
    3498:	9080040c 	andi	r2,r18,16
    349c:	1000921e 	bne	r2,zero,36e8 <___vfprintf_internal_r+0x1aac>
    34a0:	9480100c 	andi	r18,r18,64
    34a4:	90013926 	beq	r18,zero,398c <___vfprintf_internal_r+0x1d50>
    34a8:	d9002d17 	ldw	r4,180(sp)
    34ac:	d9402f17 	ldw	r5,188(sp)
    34b0:	20800017 	ldw	r2,0(r4)
    34b4:	21000104 	addi	r4,r4,4
    34b8:	d9002d15 	stw	r4,180(sp)
    34bc:	1140000d 	sth	r5,0(r2)
    34c0:	003a1606 	br	1d1c <___vfprintf_internal_r+0xe0>
    34c4:	9080100c 	andi	r2,r18,64
    34c8:	10008026 	beq	r2,zero,36cc <___vfprintf_internal_r+0x1a90>
    34cc:	d8c02d17 	ldw	r3,180(sp)
    34d0:	1cc0000f 	ldh	r19,0(r3)
    34d4:	18c00104 	addi	r3,r3,4
    34d8:	d8c02d15 	stw	r3,180(sp)
    34dc:	982dd7fa 	srai	r22,r19,31
    34e0:	b005883a 	mov	r2,r22
    34e4:	003b1f06 	br	2164 <___vfprintf_internal_r+0x528>
    34e8:	9080100c 	andi	r2,r18,64
    34ec:	d8002785 	stb	zero,158(sp)
    34f0:	10008a1e 	bne	r2,zero,371c <___vfprintf_internal_r+0x1ae0>
    34f4:	d9402d17 	ldw	r5,180(sp)
    34f8:	d8c02917 	ldw	r3,164(sp)
    34fc:	002d883a 	mov	r22,zero
    3500:	28800104 	addi	r2,r5,4
    3504:	2cc00017 	ldw	r19,0(r5)
    3508:	183e4b0e 	bge	r3,zero,2e38 <___vfprintf_internal_r+0x11fc>
    350c:	9d86b03a 	or	r3,r19,r22
    3510:	d8802d15 	stw	r2,180(sp)
    3514:	183e4c1e 	bne	r3,zero,2e48 <___vfprintf_internal_r+0x120c>
    3518:	0039883a 	mov	fp,zero
    351c:	0005883a 	mov	r2,zero
    3520:	003d4006 	br	2a24 <___vfprintf_internal_r+0xde8>
    3524:	014000b4 	movhi	r5,2
    3528:	296ba584 	addi	r5,r5,-20842
    352c:	d9402b15 	stw	r5,172(sp)
    3530:	d9402b17 	ldw	r5,172(sp)
    3534:	1c47883a 	add	r3,r3,r17
    3538:	10800044 	addi	r2,r2,1
    353c:	41400015 	stw	r5,0(r8)
    3540:	44400115 	stw	r17,4(r8)
    3544:	d8c02015 	stw	r3,128(sp)
    3548:	d8801f15 	stw	r2,124(sp)
    354c:	010001c4 	movi	r4,7
    3550:	20bec816 	blt	r4,r2,3074 <___vfprintf_internal_r+0x1438>
    3554:	42000204 	addi	r8,r8,8
    3558:	003ecd06 	br	3090 <___vfprintf_internal_r+0x1454>
    355c:	d9002917 	ldw	r4,164(sp)
    3560:	d8002785 	stb	zero,158(sp)
    3564:	203d2d16 	blt	r4,zero,2a1c <___vfprintf_internal_r+0xde0>
    3568:	00bfdfc4 	movi	r2,-129
    356c:	90a4703a 	and	r18,r18,r2
    3570:	003a9106 	br	1fb8 <___vfprintf_internal_r+0x37c>
    3574:	010000b4 	movhi	r4,2
    3578:	212ba584 	addi	r4,r4,-20842
    357c:	d9002b15 	stw	r4,172(sp)
    3580:	003c0c06 	br	25b4 <___vfprintf_internal_r+0x978>
    3584:	d9002c17 	ldw	r4,176(sp)
    3588:	d9801e04 	addi	r6,sp,120
    358c:	b80b883a 	mov	r5,r23
    3590:	00092380 	call	9238 <__sprint_r>
    3594:	103aab1e 	bne	r2,zero,2044 <___vfprintf_internal_r+0x408>
    3598:	d8c02017 	ldw	r3,128(sp)
    359c:	da000404 	addi	r8,sp,16
    35a0:	003d4106 	br	2aa8 <___vfprintf_internal_r+0xe6c>
    35a4:	d8801f17 	ldw	r2,124(sp)
    35a8:	014000b4 	movhi	r5,2
    35ac:	01000044 	movi	r4,1
    35b0:	18c00044 	addi	r3,r3,1
    35b4:	10800044 	addi	r2,r2,1
    35b8:	296ba504 	addi	r5,r5,-20844
    35bc:	41000115 	stw	r4,4(r8)
    35c0:	41400015 	stw	r5,0(r8)
    35c4:	d8c02015 	stw	r3,128(sp)
    35c8:	d8801f15 	stw	r2,124(sp)
    35cc:	010001c4 	movi	r4,7
    35d0:	20805c16 	blt	r4,r2,3744 <___vfprintf_internal_r+0x1b08>
    35d4:	42000204 	addi	r8,r8,8
    35d8:	8800041e 	bne	r17,zero,35ec <___vfprintf_internal_r+0x19b0>
    35dc:	d8803317 	ldw	r2,204(sp)
    35e0:	1000021e 	bne	r2,zero,35ec <___vfprintf_internal_r+0x19b0>
    35e4:	9080004c 	andi	r2,r18,1
    35e8:	103c0926 	beq	r2,zero,2610 <___vfprintf_internal_r+0x9d4>
    35ec:	d9003717 	ldw	r4,220(sp)
    35f0:	d8801f17 	ldw	r2,124(sp)
    35f4:	d9403417 	ldw	r5,208(sp)
    35f8:	20c7883a 	add	r3,r4,r3
    35fc:	10800044 	addi	r2,r2,1
    3600:	41000115 	stw	r4,4(r8)
    3604:	41400015 	stw	r5,0(r8)
    3608:	d8c02015 	stw	r3,128(sp)
    360c:	d8801f15 	stw	r2,124(sp)
    3610:	010001c4 	movi	r4,7
    3614:	20812116 	blt	r4,r2,3a9c <___vfprintf_internal_r+0x1e60>
    3618:	42000204 	addi	r8,r8,8
    361c:	0463c83a 	sub	r17,zero,r17
    3620:	0440730e 	bge	zero,r17,37f0 <___vfprintf_internal_r+0x1bb4>
    3624:	05800404 	movi	r22,16
    3628:	b440860e 	bge	r22,r17,3844 <___vfprintf_internal_r+0x1c08>
    362c:	014000b4 	movhi	r5,2
    3630:	296ba584 	addi	r5,r5,-20842
    3634:	d9402b15 	stw	r5,172(sp)
    3638:	070001c4 	movi	fp,7
    363c:	dcc02c17 	ldw	r19,176(sp)
    3640:	00000306 	br	3650 <___vfprintf_internal_r+0x1a14>
    3644:	42000204 	addi	r8,r8,8
    3648:	8c7ffc04 	addi	r17,r17,-16
    364c:	b440800e 	bge	r22,r17,3850 <___vfprintf_internal_r+0x1c14>
    3650:	18c00404 	addi	r3,r3,16
    3654:	10800044 	addi	r2,r2,1
    3658:	45000015 	stw	r20,0(r8)
    365c:	45800115 	stw	r22,4(r8)
    3660:	d8c02015 	stw	r3,128(sp)
    3664:	d8801f15 	stw	r2,124(sp)
    3668:	e0bff60e 	bge	fp,r2,3644 <___vfprintf_internal_r+0x1a08>
    366c:	d9801e04 	addi	r6,sp,120
    3670:	b80b883a 	mov	r5,r23
    3674:	9809883a 	mov	r4,r19
    3678:	00092380 	call	9238 <__sprint_r>
    367c:	103a711e 	bne	r2,zero,2044 <___vfprintf_internal_r+0x408>
    3680:	d8c02017 	ldw	r3,128(sp)
    3684:	d8801f17 	ldw	r2,124(sp)
    3688:	da000404 	addi	r8,sp,16
    368c:	003fee06 	br	3648 <___vfprintf_internal_r+0x1a0c>
    3690:	00bfffc4 	movi	r2,-1
    3694:	003a6f06 	br	2054 <___vfprintf_internal_r+0x418>
    3698:	008011c4 	movi	r2,71
    369c:	1440b816 	blt	r2,r17,3980 <___vfprintf_internal_r+0x1d44>
    36a0:	040000b4 	movhi	r16,2
    36a4:	842b9704 	addi	r16,r16,-20900
    36a8:	00c000c4 	movi	r3,3
    36ac:	00bfdfc4 	movi	r2,-129
    36b0:	d8c02a15 	stw	r3,168(sp)
    36b4:	90a4703a 	and	r18,r18,r2
    36b8:	df002783 	ldbu	fp,158(sp)
    36bc:	d8c02e15 	stw	r3,184(sp)
    36c0:	d8002915 	stw	zero,164(sp)
    36c4:	d8003215 	stw	zero,200(sp)
    36c8:	003b2906 	br	2370 <___vfprintf_internal_r+0x734>
    36cc:	d9002d17 	ldw	r4,180(sp)
    36d0:	24c00017 	ldw	r19,0(r4)
    36d4:	21000104 	addi	r4,r4,4
    36d8:	d9002d15 	stw	r4,180(sp)
    36dc:	982dd7fa 	srai	r22,r19,31
    36e0:	b005883a 	mov	r2,r22
    36e4:	003a9f06 	br	2164 <___vfprintf_internal_r+0x528>
    36e8:	d9402d17 	ldw	r5,180(sp)
    36ec:	d8c02f17 	ldw	r3,188(sp)
    36f0:	28800017 	ldw	r2,0(r5)
    36f4:	29400104 	addi	r5,r5,4
    36f8:	d9402d15 	stw	r5,180(sp)
    36fc:	10c00015 	stw	r3,0(r2)
    3700:	00398606 	br	1d1c <___vfprintf_internal_r+0xe0>
    3704:	d9402d17 	ldw	r5,180(sp)
    3708:	002d883a 	mov	r22,zero
    370c:	2cc00017 	ldw	r19,0(r5)
    3710:	29400104 	addi	r5,r5,4
    3714:	d9402d15 	stw	r5,180(sp)
    3718:	003c2306 	br	27a8 <___vfprintf_internal_r+0xb6c>
    371c:	d8c02d17 	ldw	r3,180(sp)
    3720:	d9002917 	ldw	r4,164(sp)
    3724:	002d883a 	mov	r22,zero
    3728:	18800104 	addi	r2,r3,4
    372c:	1cc0000b 	ldhu	r19,0(r3)
    3730:	203dc10e 	bge	r4,zero,2e38 <___vfprintf_internal_r+0x11fc>
    3734:	003f7506 	br	350c <___vfprintf_internal_r+0x18d0>
    3738:	040000b4 	movhi	r16,2
    373c:	842b9504 	addi	r16,r16,-20908
    3740:	003acc06 	br	2274 <___vfprintf_internal_r+0x638>
    3744:	d9002c17 	ldw	r4,176(sp)
    3748:	d9801e04 	addi	r6,sp,120
    374c:	b80b883a 	mov	r5,r23
    3750:	00092380 	call	9238 <__sprint_r>
    3754:	103a3b1e 	bne	r2,zero,2044 <___vfprintf_internal_r+0x408>
    3758:	dc402617 	ldw	r17,152(sp)
    375c:	d8c02017 	ldw	r3,128(sp)
    3760:	da000404 	addi	r8,sp,16
    3764:	003f9c06 	br	35d8 <___vfprintf_internal_r+0x199c>
    3768:	ac400043 	ldbu	r17,1(r21)
    376c:	94800814 	ori	r18,r18,32
    3770:	ad400044 	addi	r21,r21,1
    3774:	8c403fcc 	andi	r17,r17,255
    3778:	8c40201c 	xori	r17,r17,128
    377c:	8c7fe004 	addi	r17,r17,-128
    3780:	00398f06 	br	1dc0 <___vfprintf_internal_r+0x184>
    3784:	d8c02d15 	stw	r3,180(sp)
    3788:	0039883a 	mov	fp,zero
    378c:	003e3506 	br	3064 <___vfprintf_internal_r+0x1428>
    3790:	d9002c17 	ldw	r4,176(sp)
    3794:	d9801e04 	addi	r6,sp,120
    3798:	b80b883a 	mov	r5,r23
    379c:	00092380 	call	9238 <__sprint_r>
    37a0:	103a281e 	bne	r2,zero,2044 <___vfprintf_internal_r+0x408>
    37a4:	d8c02017 	ldw	r3,128(sp)
    37a8:	da000404 	addi	r8,sp,16
    37ac:	003cd006 	br	2af0 <___vfprintf_internal_r+0xeb4>
    37b0:	8009883a 	mov	r4,r16
    37b4:	da003d15 	stw	r8,244(sp)
    37b8:	0001ba40 	call	1ba4 <strlen>
    37bc:	d8802e15 	stw	r2,184(sp)
    37c0:	da003d17 	ldw	r8,244(sp)
    37c4:	103c340e 	bge	r2,zero,2898 <___vfprintf_internal_r+0xc5c>
    37c8:	0005883a 	mov	r2,zero
    37cc:	003c3206 	br	2898 <___vfprintf_internal_r+0xc5c>
    37d0:	d9002c17 	ldw	r4,176(sp)
    37d4:	d9801e04 	addi	r6,sp,120
    37d8:	b80b883a 	mov	r5,r23
    37dc:	00092380 	call	9238 <__sprint_r>
    37e0:	103a181e 	bne	r2,zero,2044 <___vfprintf_internal_r+0x408>
    37e4:	d8c02017 	ldw	r3,128(sp)
    37e8:	d8801f17 	ldw	r2,124(sp)
    37ec:	da000404 	addi	r8,sp,16
    37f0:	d9403317 	ldw	r5,204(sp)
    37f4:	10800044 	addi	r2,r2,1
    37f8:	44000015 	stw	r16,0(r8)
    37fc:	28c7883a 	add	r3,r5,r3
    3800:	003b7d06 	br	25f8 <___vfprintf_internal_r+0x9bc>
    3804:	010000b4 	movhi	r4,2
    3808:	212ba984 	addi	r4,r4,-20826
    380c:	d9003515 	stw	r4,212(sp)
    3810:	003b1406 	br	2464 <___vfprintf_internal_r+0x828>
    3814:	013fffc4 	movi	r4,-1
    3818:	003a3506 	br	20f0 <___vfprintf_internal_r+0x4b4>
    381c:	0023883a 	mov	r17,zero
    3820:	003d9d06 	br	2e98 <___vfprintf_internal_r+0x125c>
    3824:	d9002c17 	ldw	r4,176(sp)
    3828:	d9801e04 	addi	r6,sp,120
    382c:	b80b883a 	mov	r5,r23
    3830:	00092380 	call	9238 <__sprint_r>
    3834:	103a031e 	bne	r2,zero,2044 <___vfprintf_internal_r+0x408>
    3838:	d8c02017 	ldw	r3,128(sp)
    383c:	da000404 	addi	r8,sp,16
    3840:	003d9406 	br	2e94 <___vfprintf_internal_r+0x1258>
    3844:	010000b4 	movhi	r4,2
    3848:	212ba584 	addi	r4,r4,-20842
    384c:	d9002b15 	stw	r4,172(sp)
    3850:	d9002b17 	ldw	r4,172(sp)
    3854:	1c47883a 	add	r3,r3,r17
    3858:	10800044 	addi	r2,r2,1
    385c:	41000015 	stw	r4,0(r8)
    3860:	44400115 	stw	r17,4(r8)
    3864:	d8c02015 	stw	r3,128(sp)
    3868:	d8801f15 	stw	r2,124(sp)
    386c:	010001c4 	movi	r4,7
    3870:	20bfd716 	blt	r4,r2,37d0 <___vfprintf_internal_r+0x1b94>
    3874:	42000204 	addi	r8,r8,8
    3878:	003fdd06 	br	37f0 <___vfprintf_internal_r+0x1bb4>
    387c:	d9002c17 	ldw	r4,176(sp)
    3880:	d9801e04 	addi	r6,sp,120
    3884:	b80b883a 	mov	r5,r23
    3888:	00092380 	call	9238 <__sprint_r>
    388c:	1039ed1e 	bne	r2,zero,2044 <___vfprintf_internal_r+0x408>
    3890:	d8802617 	ldw	r2,152(sp)
    3894:	d8c02017 	ldw	r3,128(sp)
    3898:	da000404 	addi	r8,sp,16
    389c:	003e1006 	br	30e0 <___vfprintf_internal_r+0x14a4>
    38a0:	00800044 	movi	r2,1
    38a4:	10803fcc 	andi	r2,r2,255
    38a8:	00c00044 	movi	r3,1
    38ac:	10fa3526 	beq	r2,r3,2184 <___vfprintf_internal_r+0x548>
    38b0:	00c00084 	movi	r3,2
    38b4:	10fbcb26 	beq	r2,r3,27e4 <___vfprintf_internal_r+0xba8>
    38b8:	003a8f06 	br	22f8 <___vfprintf_internal_r+0x6bc>
    38bc:	010000b4 	movhi	r4,2
    38c0:	212ba984 	addi	r4,r4,-20826
    38c4:	d9003515 	stw	r4,212(sp)
    38c8:	003b7606 	br	26a4 <___vfprintf_internal_r+0xa68>
    38cc:	d8802917 	ldw	r2,164(sp)
    38d0:	00c00184 	movi	r3,6
    38d4:	1880012e 	bgeu	r3,r2,38dc <___vfprintf_internal_r+0x1ca0>
    38d8:	1805883a 	mov	r2,r3
    38dc:	d8802e15 	stw	r2,184(sp)
    38e0:	1000ef16 	blt	r2,zero,3ca0 <___vfprintf_internal_r+0x2064>
    38e4:	040000b4 	movhi	r16,2
    38e8:	d8802a15 	stw	r2,168(sp)
    38ec:	dcc02d15 	stw	r19,180(sp)
    38f0:	d8002915 	stw	zero,164(sp)
    38f4:	d8003215 	stw	zero,200(sp)
    38f8:	842ba304 	addi	r16,r16,-20852
    38fc:	0039883a 	mov	fp,zero
    3900:	003aa206 	br	238c <___vfprintf_internal_r+0x750>
    3904:	0021883a 	mov	r16,zero
    3908:	003e0706 	br	3128 <___vfprintf_internal_r+0x14ec>
    390c:	d9002c17 	ldw	r4,176(sp)
    3910:	d9801e04 	addi	r6,sp,120
    3914:	b80b883a 	mov	r5,r23
    3918:	00092380 	call	9238 <__sprint_r>
    391c:	1039c91e 	bne	r2,zero,2044 <___vfprintf_internal_r+0x408>
    3920:	d8802617 	ldw	r2,152(sp)
    3924:	d9403317 	ldw	r5,204(sp)
    3928:	d8c02017 	ldw	r3,128(sp)
    392c:	da000404 	addi	r8,sp,16
    3930:	2885c83a 	sub	r2,r5,r2
    3934:	003dfb06 	br	3124 <___vfprintf_internal_r+0x14e8>
    3938:	9080004c 	andi	r2,r18,1
    393c:	103e8f1e 	bne	r2,zero,337c <___vfprintf_internal_r+0x1740>
    3940:	d8802117 	ldw	r2,132(sp)
    3944:	003e9e06 	br	33c0 <___vfprintf_internal_r+0x1784>
    3948:	1025883a 	mov	r18,r2
    394c:	0039883a 	mov	fp,zero
    3950:	00800084 	movi	r2,2
    3954:	003fd306 	br	38a4 <___vfprintf_internal_r+0x1c68>
    3958:	07000b44 	movi	fp,45
    395c:	df002785 	stb	fp,158(sp)
    3960:	003a4006 	br	2264 <___vfprintf_internal_r+0x628>
    3964:	00c00b44 	movi	r3,45
    3968:	d8c02785 	stb	r3,158(sp)
    396c:	d8802a15 	stw	r2,168(sp)
    3970:	dc802b17 	ldw	r18,172(sp)
    3974:	d8002915 	stw	zero,164(sp)
    3978:	07000b44 	movi	fp,45
    397c:	003a8006 	br	2380 <___vfprintf_internal_r+0x744>
    3980:	040000b4 	movhi	r16,2
    3984:	842b9804 	addi	r16,r16,-20896
    3988:	003f4706 	br	36a8 <___vfprintf_internal_r+0x1a6c>
    398c:	d8c02d17 	ldw	r3,180(sp)
    3990:	d9002f17 	ldw	r4,188(sp)
    3994:	18800017 	ldw	r2,0(r3)
    3998:	18c00104 	addi	r3,r3,4
    399c:	d8c02d15 	stw	r3,180(sp)
    39a0:	11000015 	stw	r4,0(r2)
    39a4:	0038dd06 	br	1d1c <___vfprintf_internal_r+0xe0>
    39a8:	dd802617 	ldw	r22,152(sp)
    39ac:	00bfff44 	movi	r2,-3
    39b0:	b0801c16 	blt	r22,r2,3a24 <___vfprintf_internal_r+0x1de8>
    39b4:	d9402917 	ldw	r5,164(sp)
    39b8:	2d801a16 	blt	r5,r22,3a24 <___vfprintf_internal_r+0x1de8>
    39bc:	dd803215 	stw	r22,200(sp)
    39c0:	003e8906 	br	33e8 <___vfprintf_internal_r+0x17ac>
    39c4:	010000b4 	movhi	r4,2
    39c8:	212ba584 	addi	r4,r4,-20842
    39cc:	d9002b15 	stw	r4,172(sp)
    39d0:	003c9106 	br	2c18 <___vfprintf_internal_r+0xfdc>
    39d4:	e005883a 	mov	r2,fp
    39d8:	003e7906 	br	33c0 <___vfprintf_internal_r+0x1784>
    39dc:	d9402917 	ldw	r5,164(sp)
    39e0:	df002783 	ldbu	fp,158(sp)
    39e4:	dcc02d15 	stw	r19,180(sp)
    39e8:	d9402a15 	stw	r5,168(sp)
    39ec:	d9402e15 	stw	r5,184(sp)
    39f0:	d8002915 	stw	zero,164(sp)
    39f4:	d8003215 	stw	zero,200(sp)
    39f8:	003a5d06 	br	2370 <___vfprintf_internal_r+0x734>
    39fc:	9080004c 	andi	r2,r18,1
    3a00:	0039883a 	mov	fp,zero
    3a04:	10000426 	beq	r2,zero,3a18 <___vfprintf_internal_r+0x1ddc>
    3a08:	00800c04 	movi	r2,48
    3a0c:	dc001dc4 	addi	r16,sp,119
    3a10:	d8801dc5 	stb	r2,119(sp)
    3a14:	003b8006 	br	2818 <___vfprintf_internal_r+0xbdc>
    3a18:	d8002e15 	stw	zero,184(sp)
    3a1c:	dc001e04 	addi	r16,sp,120
    3a20:	003a4d06 	br	2358 <___vfprintf_internal_r+0x71c>
    3a24:	8c7fff84 	addi	r17,r17,-2
    3a28:	b5bfffc4 	addi	r22,r22,-1
    3a2c:	dd802615 	stw	r22,152(sp)
    3a30:	dc4022c5 	stb	r17,139(sp)
    3a34:	b000bf16 	blt	r22,zero,3d34 <___vfprintf_internal_r+0x20f8>
    3a38:	00800ac4 	movi	r2,43
    3a3c:	d8802305 	stb	r2,140(sp)
    3a40:	00800244 	movi	r2,9
    3a44:	15807016 	blt	r2,r22,3c08 <___vfprintf_internal_r+0x1fcc>
    3a48:	00800c04 	movi	r2,48
    3a4c:	b5800c04 	addi	r22,r22,48
    3a50:	d8802345 	stb	r2,141(sp)
    3a54:	dd802385 	stb	r22,142(sp)
    3a58:	d88023c4 	addi	r2,sp,143
    3a5c:	df0022c4 	addi	fp,sp,139
    3a60:	d8c03317 	ldw	r3,204(sp)
    3a64:	1739c83a 	sub	fp,r2,fp
    3a68:	d9003317 	ldw	r4,204(sp)
    3a6c:	e0c7883a 	add	r3,fp,r3
    3a70:	df003a15 	stw	fp,232(sp)
    3a74:	d8c02e15 	stw	r3,184(sp)
    3a78:	00800044 	movi	r2,1
    3a7c:	1100b30e 	bge	r2,r4,3d4c <___vfprintf_internal_r+0x2110>
    3a80:	d8c02e17 	ldw	r3,184(sp)
    3a84:	18c00044 	addi	r3,r3,1
    3a88:	d8c02e15 	stw	r3,184(sp)
    3a8c:	1805883a 	mov	r2,r3
    3a90:	1800ac16 	blt	r3,zero,3d44 <___vfprintf_internal_r+0x2108>
    3a94:	d8003215 	stw	zero,200(sp)
    3a98:	003e5d06 	br	3410 <___vfprintf_internal_r+0x17d4>
    3a9c:	d9002c17 	ldw	r4,176(sp)
    3aa0:	d9801e04 	addi	r6,sp,120
    3aa4:	b80b883a 	mov	r5,r23
    3aa8:	00092380 	call	9238 <__sprint_r>
    3aac:	1039651e 	bne	r2,zero,2044 <___vfprintf_internal_r+0x408>
    3ab0:	dc402617 	ldw	r17,152(sp)
    3ab4:	d8c02017 	ldw	r3,128(sp)
    3ab8:	d8801f17 	ldw	r2,124(sp)
    3abc:	da000404 	addi	r8,sp,16
    3ac0:	003ed606 	br	361c <___vfprintf_internal_r+0x19e0>
    3ac4:	582b883a 	mov	r21,r11
    3ac8:	d8002915 	stw	zero,164(sp)
    3acc:	0038bd06 	br	1dc4 <___vfprintf_internal_r+0x188>
    3ad0:	d8802917 	ldw	r2,164(sp)
    3ad4:	103e071e 	bne	r2,zero,32f4 <___vfprintf_internal_r+0x16b8>
    3ad8:	dc002915 	stw	r16,164(sp)
    3adc:	003e0506 	br	32f4 <___vfprintf_internal_r+0x16b8>
    3ae0:	d9002917 	ldw	r4,164(sp)
    3ae4:	20c00044 	addi	r3,r4,1
    3ae8:	003e0f06 	br	3328 <___vfprintf_internal_r+0x16ec>
    3aec:	01400184 	movi	r5,6
    3af0:	d9402915 	stw	r5,164(sp)
    3af4:	003dff06 	br	32f4 <___vfprintf_internal_r+0x16b8>
    3af8:	d8802104 	addi	r2,sp,132
    3afc:	d8800315 	stw	r2,12(sp)
    3b00:	d8802504 	addi	r2,sp,148
    3b04:	d8800215 	stw	r2,8(sp)
    3b08:	d8802604 	addi	r2,sp,152
    3b0c:	d8800115 	stw	r2,4(sp)
    3b10:	d8802917 	ldw	r2,164(sp)
    3b14:	d9403617 	ldw	r5,216(sp)
    3b18:	d9002c17 	ldw	r4,176(sp)
    3b1c:	d8800015 	stw	r2,0(sp)
    3b20:	01c000c4 	movi	r7,3
    3b24:	980d883a 	mov	r6,r19
    3b28:	da003d15 	stw	r8,244(sp)
    3b2c:	00042600 	call	4260 <_dtoa_r>
    3b30:	d8c02917 	ldw	r3,164(sp)
    3b34:	da003d17 	ldw	r8,244(sp)
    3b38:	1021883a 	mov	r16,r2
    3b3c:	10f9883a 	add	fp,r2,r3
    3b40:	81000007 	ldb	r4,0(r16)
    3b44:	00800c04 	movi	r2,48
    3b48:	20805e26 	beq	r4,r2,3cc4 <___vfprintf_internal_r+0x2088>
    3b4c:	d8c02617 	ldw	r3,152(sp)
    3b50:	e0f9883a 	add	fp,fp,r3
    3b54:	003e0a06 	br	3380 <___vfprintf_internal_r+0x1744>
    3b58:	00c00b44 	movi	r3,45
    3b5c:	24e0003c 	xorhi	r19,r4,32768
    3b60:	d8c02a05 	stb	r3,168(sp)
    3b64:	003de906 	br	330c <___vfprintf_internal_r+0x16d0>
    3b68:	d8c03217 	ldw	r3,200(sp)
    3b6c:	00c07a0e 	bge	zero,r3,3d58 <___vfprintf_internal_r+0x211c>
    3b70:	00800044 	movi	r2,1
    3b74:	d9003317 	ldw	r4,204(sp)
    3b78:	1105883a 	add	r2,r2,r4
    3b7c:	d8802e15 	stw	r2,184(sp)
    3b80:	10004e16 	blt	r2,zero,3cbc <___vfprintf_internal_r+0x2080>
    3b84:	044019c4 	movi	r17,103
    3b88:	003e2106 	br	3410 <___vfprintf_internal_r+0x17d4>
    3b8c:	d9002917 	ldw	r4,164(sp)
    3b90:	d8802104 	addi	r2,sp,132
    3b94:	d8800315 	stw	r2,12(sp)
    3b98:	d9000015 	stw	r4,0(sp)
    3b9c:	d8802504 	addi	r2,sp,148
    3ba0:	d9403617 	ldw	r5,216(sp)
    3ba4:	d9002c17 	ldw	r4,176(sp)
    3ba8:	d8800215 	stw	r2,8(sp)
    3bac:	d8802604 	addi	r2,sp,152
    3bb0:	d8800115 	stw	r2,4(sp)
    3bb4:	01c000c4 	movi	r7,3
    3bb8:	980d883a 	mov	r6,r19
    3bbc:	da003d15 	stw	r8,244(sp)
    3bc0:	00042600 	call	4260 <_dtoa_r>
    3bc4:	d8c02917 	ldw	r3,164(sp)
    3bc8:	da003d17 	ldw	r8,244(sp)
    3bcc:	1021883a 	mov	r16,r2
    3bd0:	00801184 	movi	r2,70
    3bd4:	80f9883a 	add	fp,r16,r3
    3bd8:	88bfd926 	beq	r17,r2,3b40 <___vfprintf_internal_r+0x1f04>
    3bdc:	003de806 	br	3380 <___vfprintf_internal_r+0x1744>
    3be0:	d9002917 	ldw	r4,164(sp)
    3be4:	00c04d0e 	bge	zero,r3,3d1c <___vfprintf_internal_r+0x20e0>
    3be8:	2000441e 	bne	r4,zero,3cfc <___vfprintf_internal_r+0x20c0>
    3bec:	9480004c 	andi	r18,r18,1
    3bf0:	9000421e 	bne	r18,zero,3cfc <___vfprintf_internal_r+0x20c0>
    3bf4:	1805883a 	mov	r2,r3
    3bf8:	18007016 	blt	r3,zero,3dbc <___vfprintf_internal_r+0x2180>
    3bfc:	d8c03217 	ldw	r3,200(sp)
    3c00:	d8c02e15 	stw	r3,184(sp)
    3c04:	003e0206 	br	3410 <___vfprintf_internal_r+0x17d4>
    3c08:	df0022c4 	addi	fp,sp,139
    3c0c:	dc002915 	stw	r16,164(sp)
    3c10:	4027883a 	mov	r19,r8
    3c14:	e021883a 	mov	r16,fp
    3c18:	b009883a 	mov	r4,r22
    3c1c:	01400284 	movi	r5,10
    3c20:	000bbec0 	call	bbec <__modsi3>
    3c24:	10800c04 	addi	r2,r2,48
    3c28:	843fffc4 	addi	r16,r16,-1
    3c2c:	b009883a 	mov	r4,r22
    3c30:	01400284 	movi	r5,10
    3c34:	80800005 	stb	r2,0(r16)
    3c38:	000bb680 	call	bb68 <__divsi3>
    3c3c:	102d883a 	mov	r22,r2
    3c40:	00800244 	movi	r2,9
    3c44:	15bff416 	blt	r2,r22,3c18 <___vfprintf_internal_r+0x1fdc>
    3c48:	9811883a 	mov	r8,r19
    3c4c:	b0800c04 	addi	r2,r22,48
    3c50:	8027883a 	mov	r19,r16
    3c54:	997fffc4 	addi	r5,r19,-1
    3c58:	98bfffc5 	stb	r2,-1(r19)
    3c5c:	dc002917 	ldw	r16,164(sp)
    3c60:	2f006a2e 	bgeu	r5,fp,3e0c <___vfprintf_internal_r+0x21d0>
    3c64:	d9c02384 	addi	r7,sp,142
    3c68:	3ccfc83a 	sub	r7,r7,r19
    3c6c:	d9002344 	addi	r4,sp,141
    3c70:	e1cf883a 	add	r7,fp,r7
    3c74:	00000106 	br	3c7c <___vfprintf_internal_r+0x2040>
    3c78:	28800003 	ldbu	r2,0(r5)
    3c7c:	20800005 	stb	r2,0(r4)
    3c80:	21000044 	addi	r4,r4,1
    3c84:	29400044 	addi	r5,r5,1
    3c88:	393ffb1e 	bne	r7,r4,3c78 <___vfprintf_internal_r+0x203c>
    3c8c:	d8802304 	addi	r2,sp,140
    3c90:	14c5c83a 	sub	r2,r2,r19
    3c94:	d8c02344 	addi	r3,sp,141
    3c98:	1885883a 	add	r2,r3,r2
    3c9c:	003f7006 	br	3a60 <___vfprintf_internal_r+0x1e24>
    3ca0:	0005883a 	mov	r2,zero
    3ca4:	003f0f06 	br	38e4 <___vfprintf_internal_r+0x1ca8>
    3ca8:	d8c03217 	ldw	r3,200(sp)
    3cac:	18c00044 	addi	r3,r3,1
    3cb0:	d8c02e15 	stw	r3,184(sp)
    3cb4:	1805883a 	mov	r2,r3
    3cb8:	183fb20e 	bge	r3,zero,3b84 <___vfprintf_internal_r+0x1f48>
    3cbc:	0005883a 	mov	r2,zero
    3cc0:	003fb006 	br	3b84 <___vfprintf_internal_r+0x1f48>
    3cc4:	d9003617 	ldw	r4,216(sp)
    3cc8:	000d883a 	mov	r6,zero
    3ccc:	000f883a 	mov	r7,zero
    3cd0:	980b883a 	mov	r5,r19
    3cd4:	d8c03c15 	stw	r3,240(sp)
    3cd8:	da003d15 	stw	r8,244(sp)
    3cdc:	000ceb00 	call	ceb0 <__eqdf2>
    3ce0:	d8c03c17 	ldw	r3,240(sp)
    3ce4:	da003d17 	ldw	r8,244(sp)
    3ce8:	103f9826 	beq	r2,zero,3b4c <___vfprintf_internal_r+0x1f10>
    3cec:	00800044 	movi	r2,1
    3cf0:	10c7c83a 	sub	r3,r2,r3
    3cf4:	d8c02615 	stw	r3,152(sp)
    3cf8:	003f9506 	br	3b50 <___vfprintf_internal_r+0x1f14>
    3cfc:	d9002917 	ldw	r4,164(sp)
    3d00:	d8c03217 	ldw	r3,200(sp)
    3d04:	20800044 	addi	r2,r4,1
    3d08:	1885883a 	add	r2,r3,r2
    3d0c:	d8802e15 	stw	r2,184(sp)
    3d10:	103dbf0e 	bge	r2,zero,3410 <___vfprintf_internal_r+0x17d4>
    3d14:	0005883a 	mov	r2,zero
    3d18:	003dbd06 	br	3410 <___vfprintf_internal_r+0x17d4>
    3d1c:	2000211e 	bne	r4,zero,3da4 <___vfprintf_internal_r+0x2168>
    3d20:	9480004c 	andi	r18,r18,1
    3d24:	90001f1e 	bne	r18,zero,3da4 <___vfprintf_internal_r+0x2168>
    3d28:	00800044 	movi	r2,1
    3d2c:	d8802e15 	stw	r2,184(sp)
    3d30:	003db706 	br	3410 <___vfprintf_internal_r+0x17d4>
    3d34:	00800b44 	movi	r2,45
    3d38:	05adc83a 	sub	r22,zero,r22
    3d3c:	d8802305 	stb	r2,140(sp)
    3d40:	003f3f06 	br	3a40 <___vfprintf_internal_r+0x1e04>
    3d44:	0005883a 	mov	r2,zero
    3d48:	003f5206 	br	3a94 <___vfprintf_internal_r+0x1e58>
    3d4c:	90a4703a 	and	r18,r18,r2
    3d50:	903f4e26 	beq	r18,zero,3a8c <___vfprintf_internal_r+0x1e50>
    3d54:	003f4a06 	br	3a80 <___vfprintf_internal_r+0x1e44>
    3d58:	00800084 	movi	r2,2
    3d5c:	10c5c83a 	sub	r2,r2,r3
    3d60:	003f8406 	br	3b74 <___vfprintf_internal_r+0x1f38>
    3d64:	d8802d17 	ldw	r2,180(sp)
    3d68:	d9002d17 	ldw	r4,180(sp)
    3d6c:	ac400043 	ldbu	r17,1(r21)
    3d70:	10800017 	ldw	r2,0(r2)
    3d74:	582b883a 	mov	r21,r11
    3d78:	d8802915 	stw	r2,164(sp)
    3d7c:	20800104 	addi	r2,r4,4
    3d80:	d9002917 	ldw	r4,164(sp)
    3d84:	d8802d15 	stw	r2,180(sp)
    3d88:	203e7a0e 	bge	r4,zero,3774 <___vfprintf_internal_r+0x1b38>
    3d8c:	8c403fcc 	andi	r17,r17,255
    3d90:	00bfffc4 	movi	r2,-1
    3d94:	8c40201c 	xori	r17,r17,128
    3d98:	d8802915 	stw	r2,164(sp)
    3d9c:	8c7fe004 	addi	r17,r17,-128
    3da0:	00380706 	br	1dc0 <___vfprintf_internal_r+0x184>
    3da4:	d8c02917 	ldw	r3,164(sp)
    3da8:	18c00084 	addi	r3,r3,2
    3dac:	d8c02e15 	stw	r3,184(sp)
    3db0:	1805883a 	mov	r2,r3
    3db4:	183d960e 	bge	r3,zero,3410 <___vfprintf_internal_r+0x17d4>
    3db8:	003fd606 	br	3d14 <___vfprintf_internal_r+0x20d8>
    3dbc:	0005883a 	mov	r2,zero
    3dc0:	003f8e06 	br	3bfc <___vfprintf_internal_r+0x1fc0>
    3dc4:	9080004c 	andi	r2,r18,1
    3dc8:	103f811e 	bne	r2,zero,3bd0 <___vfprintf_internal_r+0x1f94>
    3dcc:	d8802117 	ldw	r2,132(sp)
    3dd0:	1405c83a 	sub	r2,r2,r16
    3dd4:	d8803315 	stw	r2,204(sp)
    3dd8:	b47ef326 	beq	r22,r17,39a8 <___vfprintf_internal_r+0x1d6c>
    3ddc:	dd802617 	ldw	r22,152(sp)
    3de0:	003f1106 	br	3a28 <___vfprintf_internal_r+0x1dec>
    3de4:	d9c02785 	stb	r7,158(sp)
    3de8:	00390406 	br	21fc <___vfprintf_internal_r+0x5c0>
    3dec:	d9c02785 	stb	r7,158(sp)
    3df0:	0038d306 	br	2140 <___vfprintf_internal_r+0x504>
    3df4:	d9c02785 	stb	r7,158(sp)
    3df8:	003a6106 	br	2780 <___vfprintf_internal_r+0xb44>
    3dfc:	d9c02785 	stb	r7,158(sp)
    3e00:	003af806 	br	29e4 <___vfprintf_internal_r+0xda8>
    3e04:	0005883a 	mov	r2,zero
    3e08:	003d7e06 	br	3404 <___vfprintf_internal_r+0x17c8>
    3e0c:	d8802344 	addi	r2,sp,141
    3e10:	003f1306 	br	3a60 <___vfprintf_internal_r+0x1e24>
    3e14:	d9c02785 	stb	r7,158(sp)
    3e18:	00392306 	br	22a8 <___vfprintf_internal_r+0x66c>
    3e1c:	d9c02785 	stb	r7,158(sp)
    3e20:	003aa906 	br	28c8 <___vfprintf_internal_r+0xc8c>
    3e24:	d9c02785 	stb	r7,158(sp)
    3e28:	003a3d06 	br	2720 <___vfprintf_internal_r+0xae4>
    3e2c:	d9c02785 	stb	r7,158(sp)
    3e30:	003aca06 	br	295c <___vfprintf_internal_r+0xd20>

00003e34 <__vfprintf_internal>:
    3e34:	008000b4 	movhi	r2,2
    3e38:	10b4a304 	addi	r2,r2,-11636
    3e3c:	300f883a 	mov	r7,r6
    3e40:	280d883a 	mov	r6,r5
    3e44:	200b883a 	mov	r5,r4
    3e48:	11000017 	ldw	r4,0(r2)
    3e4c:	0001c3c1 	jmpi	1c3c <___vfprintf_internal_r>

00003e50 <__sbprintf>:
    3e50:	2880030b 	ldhu	r2,12(r5)
    3e54:	2ac01917 	ldw	r11,100(r5)
    3e58:	2a80038b 	ldhu	r10,14(r5)
    3e5c:	2a400717 	ldw	r9,28(r5)
    3e60:	2a000917 	ldw	r8,36(r5)
    3e64:	defee204 	addi	sp,sp,-1144
    3e68:	00c10004 	movi	r3,1024
    3e6c:	dc011a15 	stw	r16,1128(sp)
    3e70:	10bfff4c 	andi	r2,r2,65533
    3e74:	2821883a 	mov	r16,r5
    3e78:	d8cb883a 	add	r5,sp,r3
    3e7c:	dc811c15 	stw	r18,1136(sp)
    3e80:	dc411b15 	stw	r17,1132(sp)
    3e84:	dfc11d15 	stw	ra,1140(sp)
    3e88:	2025883a 	mov	r18,r4
    3e8c:	d881030d 	sth	r2,1036(sp)
    3e90:	dac11915 	stw	r11,1124(sp)
    3e94:	da81038d 	sth	r10,1038(sp)
    3e98:	da410715 	stw	r9,1052(sp)
    3e9c:	da010915 	stw	r8,1060(sp)
    3ea0:	dec10015 	stw	sp,1024(sp)
    3ea4:	dec10415 	stw	sp,1040(sp)
    3ea8:	d8c10215 	stw	r3,1032(sp)
    3eac:	d8c10515 	stw	r3,1044(sp)
    3eb0:	d8010615 	stw	zero,1048(sp)
    3eb4:	0001c3c0 	call	1c3c <___vfprintf_internal_r>
    3eb8:	1023883a 	mov	r17,r2
    3ebc:	10000416 	blt	r2,zero,3ed0 <__sbprintf+0x80>
    3ec0:	d9410004 	addi	r5,sp,1024
    3ec4:	9009883a 	mov	r4,r18
    3ec8:	0005b040 	call	5b04 <_fflush_r>
    3ecc:	10000d1e 	bne	r2,zero,3f04 <__sbprintf+0xb4>
    3ed0:	d881030b 	ldhu	r2,1036(sp)
    3ed4:	1080100c 	andi	r2,r2,64
    3ed8:	10000326 	beq	r2,zero,3ee8 <__sbprintf+0x98>
    3edc:	8080030b 	ldhu	r2,12(r16)
    3ee0:	10801014 	ori	r2,r2,64
    3ee4:	8080030d 	sth	r2,12(r16)
    3ee8:	8805883a 	mov	r2,r17
    3eec:	dfc11d17 	ldw	ra,1140(sp)
    3ef0:	dc811c17 	ldw	r18,1136(sp)
    3ef4:	dc411b17 	ldw	r17,1132(sp)
    3ef8:	dc011a17 	ldw	r16,1128(sp)
    3efc:	dec11e04 	addi	sp,sp,1144
    3f00:	f800283a 	ret
    3f04:	047fffc4 	movi	r17,-1
    3f08:	003ff106 	br	3ed0 <__sbprintf+0x80>

00003f0c <__swsetup_r>:
    3f0c:	008000b4 	movhi	r2,2
    3f10:	defffd04 	addi	sp,sp,-12
    3f14:	10b4a304 	addi	r2,r2,-11636
    3f18:	dc400115 	stw	r17,4(sp)
    3f1c:	2023883a 	mov	r17,r4
    3f20:	11000017 	ldw	r4,0(r2)
    3f24:	dc000015 	stw	r16,0(sp)
    3f28:	dfc00215 	stw	ra,8(sp)
    3f2c:	2821883a 	mov	r16,r5
    3f30:	20000226 	beq	r4,zero,3f3c <__swsetup_r+0x30>
    3f34:	20800e17 	ldw	r2,56(r4)
    3f38:	10003126 	beq	r2,zero,4000 <__swsetup_r+0xf4>
    3f3c:	8080030b 	ldhu	r2,12(r16)
    3f40:	10c0020c 	andi	r3,r2,8
    3f44:	1009883a 	mov	r4,r2
    3f48:	18000f26 	beq	r3,zero,3f88 <__swsetup_r+0x7c>
    3f4c:	80c00417 	ldw	r3,16(r16)
    3f50:	18001526 	beq	r3,zero,3fa8 <__swsetup_r+0x9c>
    3f54:	1100004c 	andi	r4,r2,1
    3f58:	20001c1e 	bne	r4,zero,3fcc <__swsetup_r+0xc0>
    3f5c:	1080008c 	andi	r2,r2,2
    3f60:	1000291e 	bne	r2,zero,4008 <__swsetup_r+0xfc>
    3f64:	80800517 	ldw	r2,20(r16)
    3f68:	80800215 	stw	r2,8(r16)
    3f6c:	18001c26 	beq	r3,zero,3fe0 <__swsetup_r+0xd4>
    3f70:	0005883a 	mov	r2,zero
    3f74:	dfc00217 	ldw	ra,8(sp)
    3f78:	dc400117 	ldw	r17,4(sp)
    3f7c:	dc000017 	ldw	r16,0(sp)
    3f80:	dec00304 	addi	sp,sp,12
    3f84:	f800283a 	ret
    3f88:	2080040c 	andi	r2,r4,16
    3f8c:	10002e26 	beq	r2,zero,4048 <__swsetup_r+0x13c>
    3f90:	2080010c 	andi	r2,r4,4
    3f94:	10001e1e 	bne	r2,zero,4010 <__swsetup_r+0x104>
    3f98:	80c00417 	ldw	r3,16(r16)
    3f9c:	20800214 	ori	r2,r4,8
    3fa0:	8080030d 	sth	r2,12(r16)
    3fa4:	183feb1e 	bne	r3,zero,3f54 <__swsetup_r+0x48>
    3fa8:	1100a00c 	andi	r4,r2,640
    3fac:	01408004 	movi	r5,512
    3fb0:	217fe826 	beq	r4,r5,3f54 <__swsetup_r+0x48>
    3fb4:	800b883a 	mov	r5,r16
    3fb8:	8809883a 	mov	r4,r17
    3fbc:	0006a840 	call	6a84 <__smakebuf_r>
    3fc0:	8080030b 	ldhu	r2,12(r16)
    3fc4:	80c00417 	ldw	r3,16(r16)
    3fc8:	003fe206 	br	3f54 <__swsetup_r+0x48>
    3fcc:	80800517 	ldw	r2,20(r16)
    3fd0:	80000215 	stw	zero,8(r16)
    3fd4:	0085c83a 	sub	r2,zero,r2
    3fd8:	80800615 	stw	r2,24(r16)
    3fdc:	183fe41e 	bne	r3,zero,3f70 <__swsetup_r+0x64>
    3fe0:	80c0030b 	ldhu	r3,12(r16)
    3fe4:	0005883a 	mov	r2,zero
    3fe8:	1900200c 	andi	r4,r3,128
    3fec:	203fe126 	beq	r4,zero,3f74 <__swsetup_r+0x68>
    3ff0:	18c01014 	ori	r3,r3,64
    3ff4:	80c0030d 	sth	r3,12(r16)
    3ff8:	00bfffc4 	movi	r2,-1
    3ffc:	003fdd06 	br	3f74 <__swsetup_r+0x68>
    4000:	0005ee00 	call	5ee0 <__sinit>
    4004:	003fcd06 	br	3f3c <__swsetup_r+0x30>
    4008:	0005883a 	mov	r2,zero
    400c:	003fd606 	br	3f68 <__swsetup_r+0x5c>
    4010:	81400c17 	ldw	r5,48(r16)
    4014:	28000626 	beq	r5,zero,4030 <__swsetup_r+0x124>
    4018:	80801004 	addi	r2,r16,64
    401c:	28800326 	beq	r5,r2,402c <__swsetup_r+0x120>
    4020:	8809883a 	mov	r4,r17
    4024:	00060540 	call	6054 <_free_r>
    4028:	8100030b 	ldhu	r4,12(r16)
    402c:	80000c15 	stw	zero,48(r16)
    4030:	80c00417 	ldw	r3,16(r16)
    4034:	00bff6c4 	movi	r2,-37
    4038:	1108703a 	and	r4,r2,r4
    403c:	80000115 	stw	zero,4(r16)
    4040:	80c00015 	stw	r3,0(r16)
    4044:	003fd506 	br	3f9c <__swsetup_r+0x90>
    4048:	00800244 	movi	r2,9
    404c:	88800015 	stw	r2,0(r17)
    4050:	20801014 	ori	r2,r4,64
    4054:	8080030d 	sth	r2,12(r16)
    4058:	00bfffc4 	movi	r2,-1
    405c:	003fc506 	br	3f74 <__swsetup_r+0x68>

00004060 <quorem>:
    4060:	defff704 	addi	sp,sp,-36
    4064:	dc800215 	stw	r18,8(sp)
    4068:	20800417 	ldw	r2,16(r4)
    406c:	2c800417 	ldw	r18,16(r5)
    4070:	dfc00815 	stw	ra,32(sp)
    4074:	ddc00715 	stw	r23,28(sp)
    4078:	dd800615 	stw	r22,24(sp)
    407c:	dd400515 	stw	r21,20(sp)
    4080:	dd000415 	stw	r20,16(sp)
    4084:	dcc00315 	stw	r19,12(sp)
    4088:	dc400115 	stw	r17,4(sp)
    408c:	dc000015 	stw	r16,0(sp)
    4090:	14807116 	blt	r2,r18,4258 <quorem+0x1f8>
    4094:	94bfffc4 	addi	r18,r18,-1
    4098:	94ad883a 	add	r22,r18,r18
    409c:	b5ad883a 	add	r22,r22,r22
    40a0:	2c400504 	addi	r17,r5,20
    40a4:	8da9883a 	add	r20,r17,r22
    40a8:	25400504 	addi	r21,r4,20
    40ac:	282f883a 	mov	r23,r5
    40b0:	adad883a 	add	r22,r21,r22
    40b4:	a1400017 	ldw	r5,0(r20)
    40b8:	2021883a 	mov	r16,r4
    40bc:	b1000017 	ldw	r4,0(r22)
    40c0:	29400044 	addi	r5,r5,1
    40c4:	000bc600 	call	bc60 <__udivsi3>
    40c8:	1027883a 	mov	r19,r2
    40cc:	10002c26 	beq	r2,zero,4180 <quorem+0x120>
    40d0:	a813883a 	mov	r9,r21
    40d4:	880b883a 	mov	r5,r17
    40d8:	0009883a 	mov	r4,zero
    40dc:	000d883a 	mov	r6,zero
    40e0:	2a000017 	ldw	r8,0(r5)
    40e4:	49c00017 	ldw	r7,0(r9)
    40e8:	29400104 	addi	r5,r5,4
    40ec:	40bfffcc 	andi	r2,r8,65535
    40f0:	14c5383a 	mul	r2,r2,r19
    40f4:	4010d43a 	srli	r8,r8,16
    40f8:	38ffffcc 	andi	r3,r7,65535
    40fc:	1105883a 	add	r2,r2,r4
    4100:	1008d43a 	srli	r4,r2,16
    4104:	44d1383a 	mul	r8,r8,r19
    4108:	198d883a 	add	r6,r3,r6
    410c:	10ffffcc 	andi	r3,r2,65535
    4110:	30c7c83a 	sub	r3,r6,r3
    4114:	380ed43a 	srli	r7,r7,16
    4118:	4105883a 	add	r2,r8,r4
    411c:	180dd43a 	srai	r6,r3,16
    4120:	113fffcc 	andi	r4,r2,65535
    4124:	390fc83a 	sub	r7,r7,r4
    4128:	398d883a 	add	r6,r7,r6
    412c:	300e943a 	slli	r7,r6,16
    4130:	18ffffcc 	andi	r3,r3,65535
    4134:	1008d43a 	srli	r4,r2,16
    4138:	38ceb03a 	or	r7,r7,r3
    413c:	49c00015 	stw	r7,0(r9)
    4140:	300dd43a 	srai	r6,r6,16
    4144:	4a400104 	addi	r9,r9,4
    4148:	a17fe52e 	bgeu	r20,r5,40e0 <quorem+0x80>
    414c:	b0800017 	ldw	r2,0(r22)
    4150:	10000b1e 	bne	r2,zero,4180 <quorem+0x120>
    4154:	b0bfff04 	addi	r2,r22,-4
    4158:	a880082e 	bgeu	r21,r2,417c <quorem+0x11c>
    415c:	b0ffff17 	ldw	r3,-4(r22)
    4160:	18000326 	beq	r3,zero,4170 <quorem+0x110>
    4164:	00000506 	br	417c <quorem+0x11c>
    4168:	10c00017 	ldw	r3,0(r2)
    416c:	1800031e 	bne	r3,zero,417c <quorem+0x11c>
    4170:	10bfff04 	addi	r2,r2,-4
    4174:	94bfffc4 	addi	r18,r18,-1
    4178:	a8bffb36 	bltu	r21,r2,4168 <quorem+0x108>
    417c:	84800415 	stw	r18,16(r16)
    4180:	b80b883a 	mov	r5,r23
    4184:	8009883a 	mov	r4,r16
    4188:	00081c40 	call	81c4 <__mcmp>
    418c:	10002616 	blt	r2,zero,4228 <quorem+0x1c8>
    4190:	9cc00044 	addi	r19,r19,1
    4194:	a805883a 	mov	r2,r21
    4198:	000b883a 	mov	r5,zero
    419c:	11000017 	ldw	r4,0(r2)
    41a0:	89800017 	ldw	r6,0(r17)
    41a4:	10800104 	addi	r2,r2,4
    41a8:	20ffffcc 	andi	r3,r4,65535
    41ac:	194b883a 	add	r5,r3,r5
    41b0:	30ffffcc 	andi	r3,r6,65535
    41b4:	28c7c83a 	sub	r3,r5,r3
    41b8:	300cd43a 	srli	r6,r6,16
    41bc:	2008d43a 	srli	r4,r4,16
    41c0:	180bd43a 	srai	r5,r3,16
    41c4:	18ffffcc 	andi	r3,r3,65535
    41c8:	2189c83a 	sub	r4,r4,r6
    41cc:	2149883a 	add	r4,r4,r5
    41d0:	200c943a 	slli	r6,r4,16
    41d4:	8c400104 	addi	r17,r17,4
    41d8:	200bd43a 	srai	r5,r4,16
    41dc:	30c6b03a 	or	r3,r6,r3
    41e0:	10ffff15 	stw	r3,-4(r2)
    41e4:	a47fed2e 	bgeu	r20,r17,419c <quorem+0x13c>
    41e8:	9485883a 	add	r2,r18,r18
    41ec:	1085883a 	add	r2,r2,r2
    41f0:	a887883a 	add	r3,r21,r2
    41f4:	18800017 	ldw	r2,0(r3)
    41f8:	10000b1e 	bne	r2,zero,4228 <quorem+0x1c8>
    41fc:	18bfff04 	addi	r2,r3,-4
    4200:	a880082e 	bgeu	r21,r2,4224 <quorem+0x1c4>
    4204:	18ffff17 	ldw	r3,-4(r3)
    4208:	18000326 	beq	r3,zero,4218 <quorem+0x1b8>
    420c:	00000506 	br	4224 <quorem+0x1c4>
    4210:	10c00017 	ldw	r3,0(r2)
    4214:	1800031e 	bne	r3,zero,4224 <quorem+0x1c4>
    4218:	10bfff04 	addi	r2,r2,-4
    421c:	94bfffc4 	addi	r18,r18,-1
    4220:	a8bffb36 	bltu	r21,r2,4210 <quorem+0x1b0>
    4224:	84800415 	stw	r18,16(r16)
    4228:	9805883a 	mov	r2,r19
    422c:	dfc00817 	ldw	ra,32(sp)
    4230:	ddc00717 	ldw	r23,28(sp)
    4234:	dd800617 	ldw	r22,24(sp)
    4238:	dd400517 	ldw	r21,20(sp)
    423c:	dd000417 	ldw	r20,16(sp)
    4240:	dcc00317 	ldw	r19,12(sp)
    4244:	dc800217 	ldw	r18,8(sp)
    4248:	dc400117 	ldw	r17,4(sp)
    424c:	dc000017 	ldw	r16,0(sp)
    4250:	dec00904 	addi	sp,sp,36
    4254:	f800283a 	ret
    4258:	0005883a 	mov	r2,zero
    425c:	003ff306 	br	422c <quorem+0x1cc>

00004260 <_dtoa_r>:
    4260:	20801017 	ldw	r2,64(r4)
    4264:	deffde04 	addi	sp,sp,-136
    4268:	df002015 	stw	fp,128(sp)
    426c:	dcc01b15 	stw	r19,108(sp)
    4270:	dc801a15 	stw	r18,104(sp)
    4274:	dc401915 	stw	r17,100(sp)
    4278:	dc001815 	stw	r16,96(sp)
    427c:	dfc02115 	stw	ra,132(sp)
    4280:	ddc01f15 	stw	r23,124(sp)
    4284:	dd801e15 	stw	r22,120(sp)
    4288:	dd401d15 	stw	r21,116(sp)
    428c:	dd001c15 	stw	r20,112(sp)
    4290:	d9c00315 	stw	r7,12(sp)
    4294:	2039883a 	mov	fp,r4
    4298:	3023883a 	mov	r17,r6
    429c:	2825883a 	mov	r18,r5
    42a0:	dc002417 	ldw	r16,144(sp)
    42a4:	3027883a 	mov	r19,r6
    42a8:	10000826 	beq	r2,zero,42cc <_dtoa_r+0x6c>
    42ac:	21801117 	ldw	r6,68(r4)
    42b0:	00c00044 	movi	r3,1
    42b4:	100b883a 	mov	r5,r2
    42b8:	1986983a 	sll	r3,r3,r6
    42bc:	11800115 	stw	r6,4(r2)
    42c0:	10c00215 	stw	r3,8(r2)
    42c4:	00079a40 	call	79a4 <_Bfree>
    42c8:	e0001015 	stw	zero,64(fp)
    42cc:	88002e16 	blt	r17,zero,4388 <_dtoa_r+0x128>
    42d0:	80000015 	stw	zero,0(r16)
    42d4:	889ffc2c 	andhi	r2,r17,32752
    42d8:	00dffc34 	movhi	r3,32752
    42dc:	10c01c26 	beq	r2,r3,4350 <_dtoa_r+0xf0>
    42e0:	000d883a 	mov	r6,zero
    42e4:	000f883a 	mov	r7,zero
    42e8:	9009883a 	mov	r4,r18
    42ec:	980b883a 	mov	r5,r19
    42f0:	000ceb00 	call	ceb0 <__eqdf2>
    42f4:	10002b1e 	bne	r2,zero,43a4 <_dtoa_r+0x144>
    42f8:	d9c02317 	ldw	r7,140(sp)
    42fc:	00800044 	movi	r2,1
    4300:	38800015 	stw	r2,0(r7)
    4304:	d8802517 	ldw	r2,148(sp)
    4308:	10019e26 	beq	r2,zero,4984 <_dtoa_r+0x724>
    430c:	d8c02517 	ldw	r3,148(sp)
    4310:	008000b4 	movhi	r2,2
    4314:	10aba544 	addi	r2,r2,-20843
    4318:	18800015 	stw	r2,0(r3)
    431c:	10bfffc4 	addi	r2,r2,-1
    4320:	dfc02117 	ldw	ra,132(sp)
    4324:	df002017 	ldw	fp,128(sp)
    4328:	ddc01f17 	ldw	r23,124(sp)
    432c:	dd801e17 	ldw	r22,120(sp)
    4330:	dd401d17 	ldw	r21,116(sp)
    4334:	dd001c17 	ldw	r20,112(sp)
    4338:	dcc01b17 	ldw	r19,108(sp)
    433c:	dc801a17 	ldw	r18,104(sp)
    4340:	dc401917 	ldw	r17,100(sp)
    4344:	dc001817 	ldw	r16,96(sp)
    4348:	dec02204 	addi	sp,sp,136
    434c:	f800283a 	ret
    4350:	d8c02317 	ldw	r3,140(sp)
    4354:	0089c3c4 	movi	r2,9999
    4358:	18800015 	stw	r2,0(r3)
    435c:	90017726 	beq	r18,zero,493c <_dtoa_r+0x6dc>
    4360:	008000b4 	movhi	r2,2
    4364:	10abb104 	addi	r2,r2,-20796
    4368:	d9002517 	ldw	r4,148(sp)
    436c:	203fec26 	beq	r4,zero,4320 <_dtoa_r+0xc0>
    4370:	10c000c7 	ldb	r3,3(r2)
    4374:	1801781e 	bne	r3,zero,4958 <_dtoa_r+0x6f8>
    4378:	10c000c4 	addi	r3,r2,3
    437c:	d9802517 	ldw	r6,148(sp)
    4380:	30c00015 	stw	r3,0(r6)
    4384:	003fe606 	br	4320 <_dtoa_r+0xc0>
    4388:	04e00034 	movhi	r19,32768
    438c:	9cffffc4 	addi	r19,r19,-1
    4390:	00800044 	movi	r2,1
    4394:	8ce6703a 	and	r19,r17,r19
    4398:	80800015 	stw	r2,0(r16)
    439c:	9823883a 	mov	r17,r19
    43a0:	003fcc06 	br	42d4 <_dtoa_r+0x74>
    43a4:	d8800204 	addi	r2,sp,8
    43a8:	d8800015 	stw	r2,0(sp)
    43ac:	d9c00104 	addi	r7,sp,4
    43b0:	900b883a 	mov	r5,r18
    43b4:	980d883a 	mov	r6,r19
    43b8:	e009883a 	mov	r4,fp
    43bc:	8820d53a 	srli	r16,r17,20
    43c0:	00085900 	call	8590 <__d2b>
    43c4:	d8800915 	stw	r2,36(sp)
    43c8:	8001651e 	bne	r16,zero,4960 <_dtoa_r+0x700>
    43cc:	dd800217 	ldw	r22,8(sp)
    43d0:	dc000117 	ldw	r16,4(sp)
    43d4:	00800804 	movi	r2,32
    43d8:	b421883a 	add	r16,r22,r16
    43dc:	80c10c84 	addi	r3,r16,1074
    43e0:	10c2d10e 	bge	r2,r3,4f28 <_dtoa_r+0xcc8>
    43e4:	00801004 	movi	r2,64
    43e8:	81010484 	addi	r4,r16,1042
    43ec:	10c7c83a 	sub	r3,r2,r3
    43f0:	9108d83a 	srl	r4,r18,r4
    43f4:	88e2983a 	sll	r17,r17,r3
    43f8:	2448b03a 	or	r4,r4,r17
    43fc:	000e2780 	call	e278 <__floatunsidf>
    4400:	017f8434 	movhi	r5,65040
    4404:	01800044 	movi	r6,1
    4408:	1009883a 	mov	r4,r2
    440c:	194b883a 	add	r5,r3,r5
    4410:	843fffc4 	addi	r16,r16,-1
    4414:	d9801115 	stw	r6,68(sp)
    4418:	000d883a 	mov	r6,zero
    441c:	01cffe34 	movhi	r7,16376
    4420:	000d8200 	call	d820 <__subdf3>
    4424:	0198dbf4 	movhi	r6,25455
    4428:	01cff4f4 	movhi	r7,16339
    442c:	3190d844 	addi	r6,r6,17249
    4430:	39e1e9c4 	addi	r7,r7,-30809
    4434:	1009883a 	mov	r4,r2
    4438:	180b883a 	mov	r5,r3
    443c:	000d1080 	call	d108 <__muldf3>
    4440:	01a2d874 	movhi	r6,35681
    4444:	01cff1f4 	movhi	r7,16327
    4448:	31b22cc4 	addi	r6,r6,-14157
    444c:	39e28a04 	addi	r7,r7,-30168
    4450:	180b883a 	mov	r5,r3
    4454:	1009883a 	mov	r4,r2
    4458:	000bd1c0 	call	bd1c <__adddf3>
    445c:	8009883a 	mov	r4,r16
    4460:	1029883a 	mov	r20,r2
    4464:	1823883a 	mov	r17,r3
    4468:	000e19c0 	call	e19c <__floatsidf>
    446c:	019427f4 	movhi	r6,20639
    4470:	01cff4f4 	movhi	r7,16339
    4474:	319e7ec4 	addi	r6,r6,31227
    4478:	39d104c4 	addi	r7,r7,17427
    447c:	1009883a 	mov	r4,r2
    4480:	180b883a 	mov	r5,r3
    4484:	000d1080 	call	d108 <__muldf3>
    4488:	100d883a 	mov	r6,r2
    448c:	180f883a 	mov	r7,r3
    4490:	a009883a 	mov	r4,r20
    4494:	880b883a 	mov	r5,r17
    4498:	000bd1c0 	call	bd1c <__adddf3>
    449c:	1009883a 	mov	r4,r2
    44a0:	180b883a 	mov	r5,r3
    44a4:	1029883a 	mov	r20,r2
    44a8:	1823883a 	mov	r17,r3
    44ac:	000e11c0 	call	e11c <__fixdfsi>
    44b0:	000d883a 	mov	r6,zero
    44b4:	000f883a 	mov	r7,zero
    44b8:	a009883a 	mov	r4,r20
    44bc:	880b883a 	mov	r5,r17
    44c0:	d8800515 	stw	r2,20(sp)
    44c4:	000d0140 	call	d014 <__ledf2>
    44c8:	10028716 	blt	r2,zero,4ee8 <_dtoa_r+0xc88>
    44cc:	d8c00517 	ldw	r3,20(sp)
    44d0:	00800584 	movi	r2,22
    44d4:	10c27536 	bltu	r2,r3,4eac <_dtoa_r+0xc4c>
    44d8:	180490fa 	slli	r2,r3,3
    44dc:	00c000b4 	movhi	r3,2
    44e0:	18ebcc04 	addi	r3,r3,-20688
    44e4:	1885883a 	add	r2,r3,r2
    44e8:	11000017 	ldw	r4,0(r2)
    44ec:	11400117 	ldw	r5,4(r2)
    44f0:	900d883a 	mov	r6,r18
    44f4:	980f883a 	mov	r7,r19
    44f8:	000cf380 	call	cf38 <__gedf2>
    44fc:	00828d0e 	bge	zero,r2,4f34 <_dtoa_r+0xcd4>
    4500:	d9000517 	ldw	r4,20(sp)
    4504:	d8000e15 	stw	zero,56(sp)
    4508:	213fffc4 	addi	r4,r4,-1
    450c:	d9000515 	stw	r4,20(sp)
    4510:	b42dc83a 	sub	r22,r22,r16
    4514:	b5bfffc4 	addi	r22,r22,-1
    4518:	b0026f16 	blt	r22,zero,4ed8 <_dtoa_r+0xc78>
    451c:	d8000815 	stw	zero,32(sp)
    4520:	d9c00517 	ldw	r7,20(sp)
    4524:	38026416 	blt	r7,zero,4eb8 <_dtoa_r+0xc58>
    4528:	b1ed883a 	add	r22,r22,r7
    452c:	d9c00d15 	stw	r7,52(sp)
    4530:	d8000a15 	stw	zero,40(sp)
    4534:	d9800317 	ldw	r6,12(sp)
    4538:	00800244 	movi	r2,9
    453c:	11811436 	bltu	r2,r6,4990 <_dtoa_r+0x730>
    4540:	00800144 	movi	r2,5
    4544:	1184e10e 	bge	r2,r6,58cc <_dtoa_r+0x166c>
    4548:	31bfff04 	addi	r6,r6,-4
    454c:	d9800315 	stw	r6,12(sp)
    4550:	0023883a 	mov	r17,zero
    4554:	d9800317 	ldw	r6,12(sp)
    4558:	008000c4 	movi	r2,3
    455c:	30836726 	beq	r6,r2,52fc <_dtoa_r+0x109c>
    4560:	1183410e 	bge	r2,r6,5268 <_dtoa_r+0x1008>
    4564:	d9c00317 	ldw	r7,12(sp)
    4568:	00800104 	movi	r2,4
    456c:	38827c26 	beq	r7,r2,4f60 <_dtoa_r+0xd00>
    4570:	00800144 	movi	r2,5
    4574:	3884c41e 	bne	r7,r2,5888 <_dtoa_r+0x1628>
    4578:	00800044 	movi	r2,1
    457c:	d8800b15 	stw	r2,44(sp)
    4580:	d8c00517 	ldw	r3,20(sp)
    4584:	d9002217 	ldw	r4,136(sp)
    4588:	1907883a 	add	r3,r3,r4
    458c:	19800044 	addi	r6,r3,1
    4590:	d8c00c15 	stw	r3,48(sp)
    4594:	d9800615 	stw	r6,24(sp)
    4598:	0183a40e 	bge	zero,r6,542c <_dtoa_r+0x11cc>
    459c:	d9800617 	ldw	r6,24(sp)
    45a0:	3021883a 	mov	r16,r6
    45a4:	e0001115 	stw	zero,68(fp)
    45a8:	008005c4 	movi	r2,23
    45ac:	1184c92e 	bgeu	r2,r6,58d4 <_dtoa_r+0x1674>
    45b0:	00c00044 	movi	r3,1
    45b4:	00800104 	movi	r2,4
    45b8:	1085883a 	add	r2,r2,r2
    45bc:	11000504 	addi	r4,r2,20
    45c0:	180b883a 	mov	r5,r3
    45c4:	18c00044 	addi	r3,r3,1
    45c8:	313ffb2e 	bgeu	r6,r4,45b8 <_dtoa_r+0x358>
    45cc:	e1401115 	stw	r5,68(fp)
    45d0:	e009883a 	mov	r4,fp
    45d4:	00078fc0 	call	78fc <_Balloc>
    45d8:	d8800715 	stw	r2,28(sp)
    45dc:	e0801015 	stw	r2,64(fp)
    45e0:	00800384 	movi	r2,14
    45e4:	1400f736 	bltu	r2,r16,49c4 <_dtoa_r+0x764>
    45e8:	8800f626 	beq	r17,zero,49c4 <_dtoa_r+0x764>
    45ec:	d9c00517 	ldw	r7,20(sp)
    45f0:	01c39a0e 	bge	zero,r7,545c <_dtoa_r+0x11fc>
    45f4:	388003cc 	andi	r2,r7,15
    45f8:	100490fa 	slli	r2,r2,3
    45fc:	382bd13a 	srai	r21,r7,4
    4600:	00c000b4 	movhi	r3,2
    4604:	18ebcc04 	addi	r3,r3,-20688
    4608:	1885883a 	add	r2,r3,r2
    460c:	a8c0040c 	andi	r3,r21,16
    4610:	12400017 	ldw	r9,0(r2)
    4614:	12000117 	ldw	r8,4(r2)
    4618:	18037926 	beq	r3,zero,5400 <_dtoa_r+0x11a0>
    461c:	008000b4 	movhi	r2,2
    4620:	10abc204 	addi	r2,r2,-20728
    4624:	11800817 	ldw	r6,32(r2)
    4628:	11c00917 	ldw	r7,36(r2)
    462c:	9009883a 	mov	r4,r18
    4630:	980b883a 	mov	r5,r19
    4634:	da001715 	stw	r8,92(sp)
    4638:	da401615 	stw	r9,88(sp)
    463c:	000c5c80 	call	c5c8 <__divdf3>
    4640:	da001717 	ldw	r8,92(sp)
    4644:	da401617 	ldw	r9,88(sp)
    4648:	ad4003cc 	andi	r21,r21,15
    464c:	040000c4 	movi	r16,3
    4650:	1023883a 	mov	r17,r2
    4654:	1829883a 	mov	r20,r3
    4658:	a8001126 	beq	r21,zero,46a0 <_dtoa_r+0x440>
    465c:	05c000b4 	movhi	r23,2
    4660:	bdebc204 	addi	r23,r23,-20728
    4664:	4805883a 	mov	r2,r9
    4668:	4007883a 	mov	r3,r8
    466c:	a980004c 	andi	r6,r21,1
    4670:	1009883a 	mov	r4,r2
    4674:	a82bd07a 	srai	r21,r21,1
    4678:	180b883a 	mov	r5,r3
    467c:	30000426 	beq	r6,zero,4690 <_dtoa_r+0x430>
    4680:	b9800017 	ldw	r6,0(r23)
    4684:	b9c00117 	ldw	r7,4(r23)
    4688:	84000044 	addi	r16,r16,1
    468c:	000d1080 	call	d108 <__muldf3>
    4690:	bdc00204 	addi	r23,r23,8
    4694:	a83ff51e 	bne	r21,zero,466c <_dtoa_r+0x40c>
    4698:	1013883a 	mov	r9,r2
    469c:	1811883a 	mov	r8,r3
    46a0:	480d883a 	mov	r6,r9
    46a4:	400f883a 	mov	r7,r8
    46a8:	8809883a 	mov	r4,r17
    46ac:	a00b883a 	mov	r5,r20
    46b0:	000c5c80 	call	c5c8 <__divdf3>
    46b4:	d8800f15 	stw	r2,60(sp)
    46b8:	d8c01015 	stw	r3,64(sp)
    46bc:	d8c00e17 	ldw	r3,56(sp)
    46c0:	18000626 	beq	r3,zero,46dc <_dtoa_r+0x47c>
    46c4:	d9000f17 	ldw	r4,60(sp)
    46c8:	d9401017 	ldw	r5,64(sp)
    46cc:	000d883a 	mov	r6,zero
    46d0:	01cffc34 	movhi	r7,16368
    46d4:	000d0140 	call	d014 <__ledf2>
    46d8:	10040b16 	blt	r2,zero,5708 <_dtoa_r+0x14a8>
    46dc:	8009883a 	mov	r4,r16
    46e0:	000e19c0 	call	e19c <__floatsidf>
    46e4:	d9800f17 	ldw	r6,60(sp)
    46e8:	d9c01017 	ldw	r7,64(sp)
    46ec:	1009883a 	mov	r4,r2
    46f0:	180b883a 	mov	r5,r3
    46f4:	000d1080 	call	d108 <__muldf3>
    46f8:	000d883a 	mov	r6,zero
    46fc:	01d00734 	movhi	r7,16412
    4700:	1009883a 	mov	r4,r2
    4704:	180b883a 	mov	r5,r3
    4708:	000bd1c0 	call	bd1c <__adddf3>
    470c:	1021883a 	mov	r16,r2
    4710:	d8800617 	ldw	r2,24(sp)
    4714:	047f3034 	movhi	r17,64704
    4718:	1c63883a 	add	r17,r3,r17
    471c:	10031826 	beq	r2,zero,5380 <_dtoa_r+0x1120>
    4720:	d8c00517 	ldw	r3,20(sp)
    4724:	db000617 	ldw	r12,24(sp)
    4728:	d8c01315 	stw	r3,76(sp)
    472c:	d9000b17 	ldw	r4,44(sp)
    4730:	20038f26 	beq	r4,zero,5570 <_dtoa_r+0x1310>
    4734:	60bfffc4 	addi	r2,r12,-1
    4738:	100490fa 	slli	r2,r2,3
    473c:	00c000b4 	movhi	r3,2
    4740:	18ebcc04 	addi	r3,r3,-20688
    4744:	1885883a 	add	r2,r3,r2
    4748:	11800017 	ldw	r6,0(r2)
    474c:	11c00117 	ldw	r7,4(r2)
    4750:	d8800717 	ldw	r2,28(sp)
    4754:	0009883a 	mov	r4,zero
    4758:	014ff834 	movhi	r5,16352
    475c:	db001615 	stw	r12,88(sp)
    4760:	15c00044 	addi	r23,r2,1
    4764:	000c5c80 	call	c5c8 <__divdf3>
    4768:	800d883a 	mov	r6,r16
    476c:	880f883a 	mov	r7,r17
    4770:	1009883a 	mov	r4,r2
    4774:	180b883a 	mov	r5,r3
    4778:	000d8200 	call	d820 <__subdf3>
    477c:	d9401017 	ldw	r5,64(sp)
    4780:	d9000f17 	ldw	r4,60(sp)
    4784:	102b883a 	mov	r21,r2
    4788:	d8c01215 	stw	r3,72(sp)
    478c:	000e11c0 	call	e11c <__fixdfsi>
    4790:	1009883a 	mov	r4,r2
    4794:	1029883a 	mov	r20,r2
    4798:	000e19c0 	call	e19c <__floatsidf>
    479c:	d9000f17 	ldw	r4,60(sp)
    47a0:	d9401017 	ldw	r5,64(sp)
    47a4:	100d883a 	mov	r6,r2
    47a8:	180f883a 	mov	r7,r3
    47ac:	000d8200 	call	d820 <__subdf3>
    47b0:	1823883a 	mov	r17,r3
    47b4:	d8c00717 	ldw	r3,28(sp)
    47b8:	d9401217 	ldw	r5,72(sp)
    47bc:	a2000c04 	addi	r8,r20,48
    47c0:	1021883a 	mov	r16,r2
    47c4:	1a000005 	stb	r8,0(r3)
    47c8:	800d883a 	mov	r6,r16
    47cc:	880f883a 	mov	r7,r17
    47d0:	a809883a 	mov	r4,r21
    47d4:	4029883a 	mov	r20,r8
    47d8:	000cf380 	call	cf38 <__gedf2>
    47dc:	00841d16 	blt	zero,r2,5854 <_dtoa_r+0x15f4>
    47e0:	800d883a 	mov	r6,r16
    47e4:	880f883a 	mov	r7,r17
    47e8:	0009883a 	mov	r4,zero
    47ec:	014ffc34 	movhi	r5,16368
    47f0:	000d8200 	call	d820 <__subdf3>
    47f4:	d9401217 	ldw	r5,72(sp)
    47f8:	100d883a 	mov	r6,r2
    47fc:	180f883a 	mov	r7,r3
    4800:	a809883a 	mov	r4,r21
    4804:	000cf380 	call	cf38 <__gedf2>
    4808:	db001617 	ldw	r12,88(sp)
    480c:	00840e16 	blt	zero,r2,5848 <_dtoa_r+0x15e8>
    4810:	00800044 	movi	r2,1
    4814:	13006b0e 	bge	r2,r12,49c4 <_dtoa_r+0x764>
    4818:	d9000717 	ldw	r4,28(sp)
    481c:	dd800f15 	stw	r22,60(sp)
    4820:	dcc01015 	stw	r19,64(sp)
    4824:	2319883a 	add	r12,r4,r12
    4828:	dcc01217 	ldw	r19,72(sp)
    482c:	602d883a 	mov	r22,r12
    4830:	dc801215 	stw	r18,72(sp)
    4834:	b825883a 	mov	r18,r23
    4838:	00000906 	br	4860 <_dtoa_r+0x600>
    483c:	000d8200 	call	d820 <__subdf3>
    4840:	a80d883a 	mov	r6,r21
    4844:	980f883a 	mov	r7,r19
    4848:	1009883a 	mov	r4,r2
    484c:	180b883a 	mov	r5,r3
    4850:	000d0140 	call	d014 <__ledf2>
    4854:	1003e816 	blt	r2,zero,57f8 <_dtoa_r+0x1598>
    4858:	b825883a 	mov	r18,r23
    485c:	bd83e926 	beq	r23,r22,5804 <_dtoa_r+0x15a4>
    4860:	a809883a 	mov	r4,r21
    4864:	980b883a 	mov	r5,r19
    4868:	000d883a 	mov	r6,zero
    486c:	01d00934 	movhi	r7,16420
    4870:	000d1080 	call	d108 <__muldf3>
    4874:	000d883a 	mov	r6,zero
    4878:	01d00934 	movhi	r7,16420
    487c:	8009883a 	mov	r4,r16
    4880:	880b883a 	mov	r5,r17
    4884:	102b883a 	mov	r21,r2
    4888:	1827883a 	mov	r19,r3
    488c:	000d1080 	call	d108 <__muldf3>
    4890:	180b883a 	mov	r5,r3
    4894:	1009883a 	mov	r4,r2
    4898:	1821883a 	mov	r16,r3
    489c:	1023883a 	mov	r17,r2
    48a0:	000e11c0 	call	e11c <__fixdfsi>
    48a4:	1009883a 	mov	r4,r2
    48a8:	1029883a 	mov	r20,r2
    48ac:	000e19c0 	call	e19c <__floatsidf>
    48b0:	8809883a 	mov	r4,r17
    48b4:	800b883a 	mov	r5,r16
    48b8:	100d883a 	mov	r6,r2
    48bc:	180f883a 	mov	r7,r3
    48c0:	000d8200 	call	d820 <__subdf3>
    48c4:	a5000c04 	addi	r20,r20,48
    48c8:	a80d883a 	mov	r6,r21
    48cc:	980f883a 	mov	r7,r19
    48d0:	1009883a 	mov	r4,r2
    48d4:	180b883a 	mov	r5,r3
    48d8:	95000005 	stb	r20,0(r18)
    48dc:	1021883a 	mov	r16,r2
    48e0:	1823883a 	mov	r17,r3
    48e4:	000d0140 	call	d014 <__ledf2>
    48e8:	bdc00044 	addi	r23,r23,1
    48ec:	800d883a 	mov	r6,r16
    48f0:	880f883a 	mov	r7,r17
    48f4:	0009883a 	mov	r4,zero
    48f8:	014ffc34 	movhi	r5,16368
    48fc:	103fcf0e 	bge	r2,zero,483c <_dtoa_r+0x5dc>
    4900:	d8c01317 	ldw	r3,76(sp)
    4904:	d8c00515 	stw	r3,20(sp)
    4908:	d9400917 	ldw	r5,36(sp)
    490c:	e009883a 	mov	r4,fp
    4910:	00079a40 	call	79a4 <_Bfree>
    4914:	d9000517 	ldw	r4,20(sp)
    4918:	d9802317 	ldw	r6,140(sp)
    491c:	d9c02517 	ldw	r7,148(sp)
    4920:	b8000005 	stb	zero,0(r23)
    4924:	20800044 	addi	r2,r4,1
    4928:	30800015 	stw	r2,0(r6)
    492c:	3802aa26 	beq	r7,zero,53d8 <_dtoa_r+0x1178>
    4930:	3dc00015 	stw	r23,0(r7)
    4934:	d8800717 	ldw	r2,28(sp)
    4938:	003e7906 	br	4320 <_dtoa_r+0xc0>
    493c:	00800434 	movhi	r2,16
    4940:	10bfffc4 	addi	r2,r2,-1
    4944:	88a2703a 	and	r17,r17,r2
    4948:	883e851e 	bne	r17,zero,4360 <_dtoa_r+0x100>
    494c:	008000b4 	movhi	r2,2
    4950:	10abae04 	addi	r2,r2,-20808
    4954:	003e8406 	br	4368 <_dtoa_r+0x108>
    4958:	10c00204 	addi	r3,r2,8
    495c:	003e8706 	br	437c <_dtoa_r+0x11c>
    4960:	01400434 	movhi	r5,16
    4964:	297fffc4 	addi	r5,r5,-1
    4968:	994a703a 	and	r5,r19,r5
    496c:	9009883a 	mov	r4,r18
    4970:	843f0044 	addi	r16,r16,-1023
    4974:	294ffc34 	orhi	r5,r5,16368
    4978:	dd800217 	ldw	r22,8(sp)
    497c:	d8001115 	stw	zero,68(sp)
    4980:	003ea506 	br	4418 <_dtoa_r+0x1b8>
    4984:	008000b4 	movhi	r2,2
    4988:	10aba504 	addi	r2,r2,-20844
    498c:	003e6406 	br	4320 <_dtoa_r+0xc0>
    4990:	e0001115 	stw	zero,68(fp)
    4994:	000b883a 	mov	r5,zero
    4998:	e009883a 	mov	r4,fp
    499c:	00078fc0 	call	78fc <_Balloc>
    49a0:	01bfffc4 	movi	r6,-1
    49a4:	01c00044 	movi	r7,1
    49a8:	d8800715 	stw	r2,28(sp)
    49ac:	d9800c15 	stw	r6,48(sp)
    49b0:	e0801015 	stw	r2,64(fp)
    49b4:	d8000315 	stw	zero,12(sp)
    49b8:	d9c00b15 	stw	r7,44(sp)
    49bc:	d9800615 	stw	r6,24(sp)
    49c0:	d8002215 	stw	zero,136(sp)
    49c4:	d8800117 	ldw	r2,4(sp)
    49c8:	10008916 	blt	r2,zero,4bf0 <_dtoa_r+0x990>
    49cc:	d9000517 	ldw	r4,20(sp)
    49d0:	00c00384 	movi	r3,14
    49d4:	19008616 	blt	r3,r4,4bf0 <_dtoa_r+0x990>
    49d8:	200490fa 	slli	r2,r4,3
    49dc:	00c000b4 	movhi	r3,2
    49e0:	d9802217 	ldw	r6,136(sp)
    49e4:	18ebcc04 	addi	r3,r3,-20688
    49e8:	1885883a 	add	r2,r3,r2
    49ec:	14000017 	ldw	r16,0(r2)
    49f0:	14400117 	ldw	r17,4(r2)
    49f4:	30016316 	blt	r6,zero,4f84 <_dtoa_r+0xd24>
    49f8:	800d883a 	mov	r6,r16
    49fc:	880f883a 	mov	r7,r17
    4a00:	9009883a 	mov	r4,r18
    4a04:	980b883a 	mov	r5,r19
    4a08:	000c5c80 	call	c5c8 <__divdf3>
    4a0c:	180b883a 	mov	r5,r3
    4a10:	1009883a 	mov	r4,r2
    4a14:	000e11c0 	call	e11c <__fixdfsi>
    4a18:	1009883a 	mov	r4,r2
    4a1c:	102b883a 	mov	r21,r2
    4a20:	000e19c0 	call	e19c <__floatsidf>
    4a24:	800d883a 	mov	r6,r16
    4a28:	880f883a 	mov	r7,r17
    4a2c:	1009883a 	mov	r4,r2
    4a30:	180b883a 	mov	r5,r3
    4a34:	000d1080 	call	d108 <__muldf3>
    4a38:	100d883a 	mov	r6,r2
    4a3c:	180f883a 	mov	r7,r3
    4a40:	9009883a 	mov	r4,r18
    4a44:	980b883a 	mov	r5,r19
    4a48:	000d8200 	call	d820 <__subdf3>
    4a4c:	d9c00717 	ldw	r7,28(sp)
    4a50:	1009883a 	mov	r4,r2
    4a54:	a8800c04 	addi	r2,r21,48
    4a58:	38800005 	stb	r2,0(r7)
    4a5c:	3dc00044 	addi	r23,r7,1
    4a60:	d9c00617 	ldw	r7,24(sp)
    4a64:	01800044 	movi	r6,1
    4a68:	180b883a 	mov	r5,r3
    4a6c:	2005883a 	mov	r2,r4
    4a70:	39803826 	beq	r7,r6,4b54 <_dtoa_r+0x8f4>
    4a74:	000d883a 	mov	r6,zero
    4a78:	01d00934 	movhi	r7,16420
    4a7c:	000d1080 	call	d108 <__muldf3>
    4a80:	000d883a 	mov	r6,zero
    4a84:	000f883a 	mov	r7,zero
    4a88:	1009883a 	mov	r4,r2
    4a8c:	180b883a 	mov	r5,r3
    4a90:	1025883a 	mov	r18,r2
    4a94:	1827883a 	mov	r19,r3
    4a98:	000ceb00 	call	ceb0 <__eqdf2>
    4a9c:	103f9a26 	beq	r2,zero,4908 <_dtoa_r+0x6a8>
    4aa0:	d9c00617 	ldw	r7,24(sp)
    4aa4:	d8c00717 	ldw	r3,28(sp)
    4aa8:	b829883a 	mov	r20,r23
    4aac:	38bfffc4 	addi	r2,r7,-1
    4ab0:	18ad883a 	add	r22,r3,r2
    4ab4:	00000a06 	br	4ae0 <_dtoa_r+0x880>
    4ab8:	000d1080 	call	d108 <__muldf3>
    4abc:	000d883a 	mov	r6,zero
    4ac0:	000f883a 	mov	r7,zero
    4ac4:	1009883a 	mov	r4,r2
    4ac8:	180b883a 	mov	r5,r3
    4acc:	1025883a 	mov	r18,r2
    4ad0:	1827883a 	mov	r19,r3
    4ad4:	b829883a 	mov	r20,r23
    4ad8:	000ceb00 	call	ceb0 <__eqdf2>
    4adc:	103f8a26 	beq	r2,zero,4908 <_dtoa_r+0x6a8>
    4ae0:	800d883a 	mov	r6,r16
    4ae4:	880f883a 	mov	r7,r17
    4ae8:	9009883a 	mov	r4,r18
    4aec:	980b883a 	mov	r5,r19
    4af0:	000c5c80 	call	c5c8 <__divdf3>
    4af4:	180b883a 	mov	r5,r3
    4af8:	1009883a 	mov	r4,r2
    4afc:	000e11c0 	call	e11c <__fixdfsi>
    4b00:	1009883a 	mov	r4,r2
    4b04:	102b883a 	mov	r21,r2
    4b08:	000e19c0 	call	e19c <__floatsidf>
    4b0c:	800d883a 	mov	r6,r16
    4b10:	880f883a 	mov	r7,r17
    4b14:	1009883a 	mov	r4,r2
    4b18:	180b883a 	mov	r5,r3
    4b1c:	000d1080 	call	d108 <__muldf3>
    4b20:	100d883a 	mov	r6,r2
    4b24:	180f883a 	mov	r7,r3
    4b28:	9009883a 	mov	r4,r18
    4b2c:	980b883a 	mov	r5,r19
    4b30:	000d8200 	call	d820 <__subdf3>
    4b34:	aa000c04 	addi	r8,r21,48
    4b38:	a2000005 	stb	r8,0(r20)
    4b3c:	000d883a 	mov	r6,zero
    4b40:	01d00934 	movhi	r7,16420
    4b44:	1009883a 	mov	r4,r2
    4b48:	180b883a 	mov	r5,r3
    4b4c:	a5c00044 	addi	r23,r20,1
    4b50:	b53fd91e 	bne	r22,r20,4ab8 <_dtoa_r+0x858>
    4b54:	100d883a 	mov	r6,r2
    4b58:	180f883a 	mov	r7,r3
    4b5c:	1009883a 	mov	r4,r2
    4b60:	180b883a 	mov	r5,r3
    4b64:	000bd1c0 	call	bd1c <__adddf3>
    4b68:	100d883a 	mov	r6,r2
    4b6c:	180f883a 	mov	r7,r3
    4b70:	8009883a 	mov	r4,r16
    4b74:	880b883a 	mov	r5,r17
    4b78:	1027883a 	mov	r19,r2
    4b7c:	1825883a 	mov	r18,r3
    4b80:	000d0140 	call	d014 <__ledf2>
    4b84:	10000816 	blt	r2,zero,4ba8 <_dtoa_r+0x948>
    4b88:	980d883a 	mov	r6,r19
    4b8c:	900f883a 	mov	r7,r18
    4b90:	8009883a 	mov	r4,r16
    4b94:	880b883a 	mov	r5,r17
    4b98:	000ceb00 	call	ceb0 <__eqdf2>
    4b9c:	103f5a1e 	bne	r2,zero,4908 <_dtoa_r+0x6a8>
    4ba0:	ad40004c 	andi	r21,r21,1
    4ba4:	a83f5826 	beq	r21,zero,4908 <_dtoa_r+0x6a8>
    4ba8:	bd3fffc3 	ldbu	r20,-1(r23)
    4bac:	b8bfffc4 	addi	r2,r23,-1
    4bb0:	1007883a 	mov	r3,r2
    4bb4:	01400e44 	movi	r5,57
    4bb8:	d9800717 	ldw	r6,28(sp)
    4bbc:	00000506 	br	4bd4 <_dtoa_r+0x974>
    4bc0:	18ffffc4 	addi	r3,r3,-1
    4bc4:	11824726 	beq	r2,r6,54e4 <_dtoa_r+0x1284>
    4bc8:	1d000003 	ldbu	r20,0(r3)
    4bcc:	102f883a 	mov	r23,r2
    4bd0:	10bfffc4 	addi	r2,r2,-1
    4bd4:	a1003fcc 	andi	r4,r20,255
