
catch_game.elf:     file format elf32-littlenios2
catch_game.elf
architecture: nios2:r1, flags 0x00000112:
EXEC_P, HAS_SYMS, D_PAGED
start address 0x00000248

Program Header:
    LOAD off    0x00001000 vaddr 0x00000000 paddr 0x00000000 align 2**12
         filesz 0x00000020 memsz 0x00000020 flags r-x
    LOAD off    0x00001020 vaddr 0x00000020 paddr 0x00000020 align 2**12
         filesz 0x0001f230 memsz 0x0001f230 flags r-x
    LOAD off    0x00020250 vaddr 0x0001f250 paddr 0x0002112c align 2**12
         filesz 0x00001edc memsz 0x00001edc flags rw-
    LOAD off    0x00023008 vaddr 0x00023008 paddr 0x00023008 align 2**12
         filesz 0x00000000 memsz 0x00009440 flags rw-

Sections:
Idx Name          Size      VMA       LMA       File off  Algn
  0 .entry        00000020  00000000  00000000  00001000  2**5
                  CONTENTS, ALLOC, LOAD, READONLY, CODE
  1 .exceptions   00000228  00000020  00000020  00001020  2**2
                  CONTENTS, ALLOC, LOAD, READONLY, CODE
  2 .text         0001dfb4  00000248  00000248  00001248  2**2
                  CONTENTS, ALLOC, LOAD, READONLY, CODE
  3 .rodata       00001054  0001e1fc  0001e1fc  0001f1fc  2**2
                  CONTENTS, ALLOC, LOAD, READONLY, DATA
  4 .rwdata       00001edc  0001f250  0002112c  00020250  2**2
                  CONTENTS, ALLOC, LOAD, DATA, SMALL_DATA
  5 .bss          00009440  00023008  00023008  00023008  2**2
                  ALLOC, SMALL_DATA
  6 .SDRAM        00000000  0002c448  0002c448  0002212c  2**0
                  CONTENTS
  7 .VGA_Subsystem_Char_Buf_Subsystem_Onchip_SRAM 00000000  09000000  09000000  0002212c  2**0
                  CONTENTS
  8 .comment      00000023  00000000  00000000  0002212c  2**0
                  CONTENTS, READONLY
  9 .debug_aranges 00001148  00000000  00000000  00022150  2**3
                  CONTENTS, READONLY, DEBUGGING
 10 .debug_info   00033cdd  00000000  00000000  00023298  2**0
                  CONTENTS, READONLY, DEBUGGING
 11 .debug_abbrev 0000bce3  00000000  00000000  00056f75  2**0
                  CONTENTS, READONLY, DEBUGGING
 12 .debug_line   00010509  00000000  00000000  00062c58  2**0
                  CONTENTS, READONLY, DEBUGGING
 13 .debug_frame  00003bac  00000000  00000000  00073164  2**2
                  CONTENTS, READONLY, DEBUGGING
 14 .debug_str    00005808  00000000  00000000  00076d10  2**0
                  CONTENTS, READONLY, DEBUGGING
 15 .debug_loc    0001cd3e  00000000  00000000  0007c518  2**0
                  CONTENTS, READONLY, DEBUGGING
 16 .debug_alt_sim_info 00000020  00000000  00000000  00099258  2**2
                  CONTENTS, READONLY, DEBUGGING
 17 .debug_ranges 00001a90  00000000  00000000  00099278  2**3
                  CONTENTS, READONLY, DEBUGGING
 18 .thread_model 00000006  00000000  00000000  000a075d  2**0
                  CONTENTS, READONLY
 19 .cpu          00000005  00000000  00000000  000a0763  2**0
                  CONTENTS, READONLY
 20 .qsys         00000001  00000000  00000000  000a0768  2**0
                  CONTENTS, READONLY
 21 .simulation_enabled 00000001  00000000  00000000  000a0769  2**0
                  CONTENTS, READONLY
 22 .sysid_hash   00000004  00000000  00000000  000a076a  2**0
                  CONTENTS, READONLY
 23 .sysid_base   00000004  00000000  00000000  000a076e  2**0
                  CONTENTS, READONLY
 24 .sysid_time   00000004  00000000  00000000  000a0772  2**0
                  CONTENTS, READONLY
 25 .stderr_dev   00000009  00000000  00000000  000a0776  2**0
                  CONTENTS, READONLY
 26 .stdin_dev    00000009  00000000  00000000  000a077f  2**0
                  CONTENTS, READONLY
 27 .stdout_dev   00000009  00000000  00000000  000a0788  2**0
                  CONTENTS, READONLY
 28 .sopc_system_name 0000000f  00000000  00000000  000a0791  2**0
                  CONTENTS, READONLY
 29 .quartus_project_dir 00000044  00000000  00000000  000a07a0  2**0
                  CONTENTS, READONLY
 30 .sopcinfo     001d2080  00000000  00000000  000a07e4  2**0
                  CONTENTS, READONLY
SYMBOL TABLE:
00000000 l    d  .entry	00000000 .entry
00000020 l    d  .exceptions	00000000 .exceptions
00000248 l    d  .text	00000000 .text
0001e1fc l    d  .rodata	00000000 .rodata
0001f250 l    d  .rwdata	00000000 .rwdata
00023008 l    d  .bss	00000000 .bss
0002c448 l    d  .SDRAM	00000000 .SDRAM
09000000 l    d  .VGA_Subsystem_Char_Buf_Subsystem_Onchip_SRAM	00000000 .VGA_Subsystem_Char_Buf_Subsystem_Onchip_SRAM
00000000 l    d  .comment	00000000 .comment
00000000 l    d  .debug_aranges	00000000 .debug_aranges
00000000 l    d  .debug_info	00000000 .debug_info
00000000 l    d  .debug_abbrev	00000000 .debug_abbrev
00000000 l    d  .debug_line	00000000 .debug_line
00000000 l    d  .debug_frame	00000000 .debug_frame
00000000 l    d  .debug_str	00000000 .debug_str
00000000 l    d  .debug_loc	00000000 .debug_loc
00000000 l    d  .debug_alt_sim_info	00000000 .debug_alt_sim_info
00000000 l    d  .debug_ranges	00000000 .debug_ranges
00000000 l    df *ABS*	00000000 ../catch_game_bsp//obj/HAL/src/crt0.o
00000280 l       .text	00000000 alt_after_alt_main
00000000 l    df *ABS*	00000000 alt_irq_handler.c
00000000 l    df *ABS*	00000000 alt_instruction_exception_entry.c
00000000 l    df *ABS*	00000000 hello_ucosii.c
00000538 l     F .text	00000068 Task_VGA_init
00000000 l    df *ABS*	00000000 utils.c
00000000 l    df *ABS*	00000000 errno.c
00000000 l    df *ABS*	00000000 fprintf.c
00000000 l    df *ABS*	00000000 impure.c
0001f2a4 l     O .rwdata	00000424 impure_data
00000000 l    df *ABS*	00000000 snprintf.c
00000000 l    df *ABS*	00000000 strerror.c
00000000 l    df *ABS*	00000000 vfprintf.c
0001ecf2 l     O .rodata	00000010 zeroes.4389
0001ed02 l     O .rodata	00000010 blanks.4388
00000000 l    df *ABS*	00000000 u_strerr.c
00000000 l    df *ABS*	00000000 vfprintf.c
0001ed12 l     O .rodata	00000010 zeroes.4404
000064c4 l     F .text	000000bc __sbprintf
0001ed22 l     O .rodata	00000010 blanks.4403
00000000 l    df *ABS*	00000000 wsetup.c
00000000 l    df *ABS*	00000000 dtoa.c
000066d4 l     F .text	00000200 quorem
00000000 l    df *ABS*	00000000 fflush.c
00000000 l    df *ABS*	00000000 findfp.c
00008204 l     F .text	00000008 __fp_unlock
00008218 l     F .text	0000019c __sinit.part.1
000083b4 l     F .text	00000008 __fp_lock
00000000 l    df *ABS*	00000000 mallocr.c
00000000 l    df *ABS*	00000000 fwalk.c
00000000 l    df *ABS*	00000000 locale.c
0001f6e8 l     O .rwdata	00000020 lc_ctype_charset
0001f6c8 l     O .rwdata	00000020 lc_message_charset
0001f708 l     O .rwdata	00000038 lconv
00000000 l    df *ABS*	00000000 makebuf.c
00000000 l    df *ABS*	00000000 mallocr.c
00000000 l    df *ABS*	00000000 memchr.c
00000000 l    df *ABS*	00000000 memcpy.c
00000000 l    df *ABS*	00000000 memset.c
00000000 l    df *ABS*	00000000 mprec.c
0001ed50 l     O .rodata	0000000c p05.2768
00000000 l    df *ABS*	00000000 s_fpclassify.c
00000000 l    df *ABS*	00000000 sbrkr.c
00000000 l    df *ABS*	00000000 stdio.c
00000000 l    df *ABS*	00000000 strcmp.c
00000000 l    df *ABS*	00000000 strlen.c
00000000 l    df *ABS*	00000000 vfprintf.c
0001ee84 l     O .rodata	00000010 blanks.4332
0001ee74 l     O .rodata	00000010 zeroes.4333
00000000 l    df *ABS*	00000000 vfprintf.c
0000c0d8 l     F .text	000000fc __sprint_r.part.0
0001eea4 l     O .rodata	00000010 blanks.4348
0001ee94 l     O .rodata	00000010 zeroes.4349
0000d664 l     F .text	000000bc __sbprintf
00000000 l    df *ABS*	00000000 writer.c
00000000 l    df *ABS*	00000000 closer.c
00000000 l    df *ABS*	00000000 mallocr.c
00000000 l    df *ABS*	00000000 fclose.c
00000000 l    df *ABS*	00000000 fputwc.c
00000000 l    df *ABS*	00000000 fstatr.c
00000000 l    df *ABS*	00000000 fvwrite.c
00000000 l    df *ABS*	00000000 int_errno.c
00000000 l    df *ABS*	00000000 isattyr.c
00000000 l    df *ABS*	00000000 lseekr.c
00000000 l    df *ABS*	00000000 memmove.c
00000000 l    df *ABS*	00000000 readr.c
00000000 l    df *ABS*	00000000 mallocr.c
00000000 l    df *ABS*	00000000 wbuf.c
00000000 l    df *ABS*	00000000 wcrtomb.c
00000000 l    df *ABS*	00000000 wctomb_r.c
00000000 l    df *ABS*	00000000 libgcc2.c
00000000 l    df *ABS*	00000000 libgcc2.c
00000000 l    df *ABS*	00000000 lib2-divmod.c
00000000 l    df *ABS*	00000000 adddf3.c
00000000 l    df *ABS*	00000000 divdf3.c
00000000 l    df *ABS*	00000000 eqdf2.c
00000000 l    df *ABS*	00000000 gedf2.c
00000000 l    df *ABS*	00000000 ledf2.c
00000000 l    df *ABS*	00000000 muldf3.c
00000000 l    df *ABS*	00000000 subdf3.c
00000000 l    df *ABS*	00000000 fixdfsi.c
00000000 l    df *ABS*	00000000 floatsidf.c
00000000 l    df *ABS*	00000000 floatunsidf.c
00000000 l    df *ABS*	00000000 libgcc2.c
00000000 l    df *ABS*	00000000 libgcc2.c
00000000 l    df *ABS*	00000000 alt_close.c
00011e9c l     F .text	0000003c alt_get_errno
00000000 l    df *ABS*	00000000 alt_dev.c
00011fa8 l     F .text	0000002c alt_dev_null_write
00000000 l    df *ABS*	00000000 alt_errno.c
00000000 l    df *ABS*	00000000 alt_fstat.c
00011fd4 l     F .text	0000003c alt_get_errno
00000000 l    df *ABS*	00000000 alt_isatty.c
000120c0 l     F .text	0000003c alt_get_errno
00000000 l    df *ABS*	00000000 alt_load.c
000121a0 l     F .text	00000068 alt_load_section
00000000 l    df *ABS*	00000000 alt_lseek.c
0001228c l     F .text	0000003c alt_get_errno
00000000 l    df *ABS*	00000000 alt_main.c
00000000 l    df *ABS*	00000000 alt_read.c
00012458 l     F .text	0000003c alt_get_errno
00000000 l    df *ABS*	00000000 alt_release_fd.c
00000000 l    df *ABS*	00000000 alt_sbrk.c
000210a0 l     O .rwdata	00000004 heap_end
00000000 l    df *ABS*	00000000 alt_write.c
000126a4 l     F .text	0000003c alt_get_errno
00000000 l    df *ABS*	00000000 alt_env_lock.c
000210a4 l     O .rwdata	00000004 lockid
0002308c l     O .bss	00000004 locks
00000000 l    df *ABS*	00000000 alt_malloc_lock.c
000210a8 l     O .rwdata	00000004 lockid
00023094 l     O .bss	00000004 locks
00000000 l    df *ABS*	00000000 os_core.c
000140d4 l     F .text	00000048 OS_InitMisc
0001411c l     F .text	0000006c OS_InitRdyList
00014288 l     F .text	000000e4 OS_InitTCBList
00013ff4 l     F .text	000000e0 OS_InitEventList
00014188 l     F .text	00000080 OS_InitTaskIdle
00014208 l     F .text	00000080 OS_InitTaskStat
000144f8 l     F .text	00000074 OS_SchedNew
00000000 l    df *ABS*	00000000 os_dbg.c
00000000 l    df *ABS*	00000000 os_flag.c
00016218 l     F .text	000000f4 OS_FlagTaskRdy
00015fd8 l     F .text	00000160 OS_FlagBlock
00000000 l    df *ABS*	00000000 os_mem.c
00000000 l    df *ABS*	00000000 os_q.c
00000000 l    df *ABS*	00000000 os_sem.c
00000000 l    df *ABS*	00000000 os_task.c
00000000 l    df *ABS*	00000000 os_time.c
00000000 l    df *ABS*	00000000 alt_sys_init.c
0001a2c8 l     F .text	00000034 alt_dev_reg
0001fcf0 l     O .rwdata	0000106c JTAG_UART
00020d5c l     O .rwdata	00000030 AV_Config
00020d8c l     O .rwdata	00000030 Audio_Subsystem_Audio
00020dbc l     O .rwdata	0000002c Char_LCD_16x2
00020de8 l     O .rwdata	0000002c IrDA
00020e14 l     O .rwdata	00000038 PS2_Port
00020e4c l     O .rwdata	00000038 PS2_Port_Dual
00020e84 l     O .rwdata	0000002c Serial_Port
00020eb0 l     O .rwdata	00000034 USB
00020ee4 l     O .rwdata	0000005c VGA_Subsystem_Char_Buf_Subsystem_Char_Buf_DMA
00020f40 l     O .rwdata	0000005c VGA_Subsystem_VGA_Pixel_DMA
00020f9c l     O .rwdata	0000005c Video_In_Subsystem_Video_In_DMA
00020ff8 l     O .rwdata	00000044 VGA_Subsystem_VGA_Pixel_RGB_Resampler
0002103c l     O .rwdata	0000002c SD_Card
00000000 l    df *ABS*	00000000 altera_avalon_jtag_uart_fd.c
00000000 l    df *ABS*	00000000 altera_avalon_jtag_uart_init.c
0001af40 l     F .text	000002a8 altera_avalon_jtag_uart_irq
0001b1e8 l     F .text	00000104 altera_avalon_jtag_uart_timeout
00000000 l    df *ABS*	00000000 altera_avalon_jtag_uart_ioctl.c
00000000 l    df *ABS*	00000000 altera_avalon_jtag_uart_read.c
00000000 l    df *ABS*	00000000 altera_avalon_jtag_uart_write.c
00000000 l    df *ABS*	00000000 altera_avalon_timer_sc.c
0001b9c4 l     F .text	0000007c alt_avalon_timer_sc_irq
00000000 l    df *ABS*	00000000 altera_up_avalon_character_lcd.c
00000000 l    df *ABS*	00000000 altera_up_avalon_irda.c
00000000 l    df *ABS*	00000000 altera_up_avalon_ps2.c
00000000 l    df *ABS*	00000000 altera_up_avalon_rs232.c
00000000 l    df *ABS*	00000000 alt_alarm_start.c
00000000 l    df *ABS*	00000000 alt_dcache_flush_all.c
00000000 l    df *ABS*	00000000 alt_dev_llist_insert.c
0001cec0 l     F .text	0000003c alt_get_errno
00000000 l    df *ABS*	00000000 alt_do_ctors.c
00000000 l    df *ABS*	00000000 alt_do_dtors.c
00000000 l    df *ABS*	00000000 alt_find_dev.c
00000000 l    df *ABS*	00000000 alt_icache_flush_all.c
00000000 l    df *ABS*	00000000 alt_io_redirect.c
0001d124 l     F .text	000000c4 alt_open_fd
00000000 l    df *ABS*	00000000 alt_irq_register.c
00000000 l    df *ABS*	00000000 alt_irq_vars.c
00000000 l    df *ABS*	00000000 alt_open.c
0001d3e4 l     F .text	0000003c alt_get_errno
0001d420 l     F .text	000000c4 alt_file_locked
00000000 l    df *ABS*	00000000 alt_tick.c
00000000 l    df *ABS*	00000000 altera_nios2_gen2_irq.c
00000000 l    df *ABS*	00000000 os_cpu_a.o
00000040 l       *ABS*	00000000 OSCtxSw_SWITCH_PC
00000000 l    df *ABS*	00000000 os_cpu_c.c
00000014 l       *ABS*	00000000 OSTCBNext_OFFSET
00000032 l       *ABS*	00000000 OSTCBPrio_OFFSET
00000000 l       *ABS*	00000000 OSTCBStkPtr_OFFSET
00000000 l    df *ABS*	00000000 alt_find_file.c
00000000 l    df *ABS*	00000000 alt_get_fd.c
00000000 l    df *ABS*	00000000 alt_icache_flush.c
00000000 l    df *ABS*	00000000 atexit.c
00000000 l    df *ABS*	00000000 exit.c
00000000 l    df *ABS*	00000000 memcmp.c
00000000 l    df *ABS*	00000000 __atexit.c
00000000 l    df *ABS*	00000000 __call_atexit.c
00000000 l    df *ABS*	00000000 alt_exit.c
000230f8 g     O .bss	00000004 alt_instruction_exception_handler
0000a7dc g     F .text	00000074 _mprec_log10
000210f6 g     O .rwdata	00000002 OSTaskNameSize
0000a8c8 g     F .text	0000008c __any_on
0000e0bc g     F .text	00000054 _isatty_r
0001ed5c g     O .rodata	00000028 __mprec_tinytens
0001239c g     F .text	000000bc alt_main
00023008 g     O .bss	00000004 video_resolution
0002c348 g     O .bss	00000100 alt_irq
0001c580 g     F .text	00000060 alt_up_ps2_disable_read_interrupt
0000e110 g     F .text	00000060 _lseek_r
00016a38 g     F .text	000000cc OS_MemInit
0002112c g       *ABS*	00000000 __flash_rwdata_start
0001a268 g     F .text	00000060 OSTimeSet
0001bb28 g     F .text	00000040 alt_up_character_lcd_send_cmd
000109c8 g     F .text	00000088 .hidden __eqdf2
00012d48 g     F .text	00000610 OSEventPendMulti
0002c448 g       *ABS*	00000000 __alt_heap_start
0001da2c g     F .text	00000024 OSTaskCreateHook
000210ce g     O .rwdata	00000002 OSMboxEn
000133b0 g     F .text	0000004c OSIntEnter
0000e9e8 g     F .text	0000009c _wcrtomb_r
0000aaf4 g     F .text	0000005c __sseek
00008554 g     F .text	00000010 __sinit
0000e890 g     F .text	00000140 __swbuf_r
0001c398 g     F .text	00000034 read_CE_bit
000210de g     O .rwdata	00000002 OSQEn
00008b60 g     F .text	0000007c _setlocale_r
000083bc g     F .text	00000068 __sfmoreglue
00012a1c g     F .text	000000cc __malloc_unlock
0001da94 g     F .text	00000020 OSTaskStatHook
0001c720 g     F .text	0000009c alt_up_ps2_read_data_byte_timeout
0001cc14 g     F .text	00000090 alt_up_rs232_read_fd
0002309c g     O .bss	00000001 OSLockNesting
000020b4 g     F .text	0000001c strerror
0002111c g     O .rwdata	00000002 OSDataSize
0002309d g     O .bss	00000001 OSRunning
0000e170 g     F .text	0000015c memmove
0001dad4 g     F .text	00000020 OSInitHookBegin
00021114 g     O .rwdata	00000002 OSTmrSize
0000853c g     F .text	00000018 _cleanup
00001974 g     F .text	000000e4 snprintf
00009958 g     F .text	000000a8 _Balloc
0002300c g     O .bss	00000004 screen_x
000230a0 g     O .bss	00000004 OSIdleCtr
00010a50 g     F .text	000000dc .hidden __gtdf2
0001d7dc g     F .text	00000024 altera_nios2_gen2_irq_init
0001d8ac g       .text	00000000 OSStartTsk
00001840 g     F .text	00000010 __errno
0001bab4 g     F .text	00000074 get_DDRAM_addr
00014838 g     F .text	000002d4 OS_TCBInit
00023124 g     O .bss	00002000 task_key_press_stk
00000000 g     F .entry	0000001c __reset
0002111a g     O .rwdata	00000002 OSTmrWheelTblSize
00000020 g       *ABS*	00000000 __flash_exceptions_start
000210ba g     O .rwdata	00000002 OSEventSize
000230a4 g     O .bss	00000001 OSPrioHighRdy
0000dba4 g     F .text	0000005c _fstat_r
0001da50 g     F .text	00000024 OSTaskDelHook
00023078 g     O .bss	00000004 errno
0000aa70 g     F .text	00000008 __seofread
0001d88c g       .text	00000000 OSStartHighRdy
00018d04 g     F .text	000001e4 OSTaskCreateExt
0000ae9c g     F .text	0000123c ___svfiprintf_internal_r
00000c58 g     F .text	0000008c VGA_info_right
00015b20 g     F .text	00000060 OSFlagPendGetFlagsRdy
000210fa g     O .rwdata	00000002 OSTaskStatStkSize
00014c9c g     F .text	00000308 OSFlagAccept
00017070 g     F .text	000000b8 OSQFlush
00016b04 g     F .text	00000140 OSQAccept
00023084 g     O .bss	00000004 alt_argv
00029068 g       *ABS*	00000000 _gp
00023010 g     O .bss	00000002 background_color
00018b58 g     F .text	000001ac OSTaskCreate
00018668 g     F .text	000004f0 OSTaskChangePrio
00023098 g     O .bss	00000004 alt_heapsem
00014b0c g     F .text	00000190 OSDebugInit
00018ee8 g     F .text	00000344 OSTaskDel
00023014 g     O .bss	00000004 game_hh
0001fb70 g     O .rwdata	00000180 alt_fd_list
00029124 g     O .bss	00000370 OSFlagTbl
00013dd4 g     F .text	000000b8 OS_EventTaskRemove
00023018 g     O .bss	00000004 SEM_read_KEYs
0001d060 g     F .text	00000090 alt_find_dev
000096e8 g     F .text	00000148 memcpy
000210e4 g     O .rwdata	00000002 OSRdyTblSize
0001bcd0 g     F .text	00000050 alt_up_character_lcd_write_fd
0000820c g     F .text	0000000c _cleanup_r
00011cb4 g     F .text	000000dc .hidden __floatsidf
0001d1e8 g     F .text	0000007c alt_io_redirect
00010b2c g     F .text	000000f4 .hidden __ltdf2
0001e1fc g       *ABS*	00000000 __DTOR_END__
0001c268 g     F .text	00000090 alt_up_irda_write_fd
0001cba0 g     F .text	00000074 alt_up_rs232_read_data
0001ddcc g     F .text	0000009c alt_exception_cause_generated_bad_addr
00012ae8 g     F .text	00000120 OSEventNameGet
000210c8 g     O .rwdata	00000002 OSFlagMax
00001a58 g     F .text	0000065c _strerror_r
0000a954 g     F .text	00000074 __fpclassifyd
0000a738 g     F .text	000000a4 __ratio
000133fc g     F .text	000000f8 OSIntExit
0000d648 g     F .text	0000001c __vfiprintf_internal
00021102 g     O .rwdata	00000002 OSTCBSize
000230a5 g     O .bss	00000001 OSPrioCur
0002301c g     O .bss	00000004 KEY2_flag
0001c064 g     F .text	00000040 alt_up_irda_get_used_space_in_read_FIFO
0001b444 g     F .text	000002bc altera_avalon_jtag_uart_read
0000f778 g     F .text	00000064 .hidden __udivsi3
000120fc g     F .text	000000a4 isatty
00000bf8 g     F .text	00000060 VGA_animated_char
000210e8 g     O .rwdata	00000002 OSStkWidth
0001edac g     O .rodata	000000c8 __mprec_tens
000210dc g     O .rwdata	00000002 OSPtrSize
00008bdc g     F .text	0000000c __locale_charset
000210bc g     O .rwdata	00000002 OSEventTblSize
0001c004 g     F .text	00000060 alt_up_irda_disable_read_interrupt
0001d800 g       .text	00000000 OSCtxSw
0001dd3c g     F .text	00000090 alt_icache_flush
00023074 g     O .bss	00000004 __malloc_top_pad
000230a8 g     O .bss	00000004 OSTCBList
0002307c g     O .bss	00000004 alt_fd_list_lock
00021078 g     O .rwdata	00000004 __mb_cur_max
00008c0c g     F .text	0000000c _localeconv_r
0000dc00 g     F .text	000004bc __sfvwrite_r
00009d64 g     F .text	0000003c __i2b
00029494 g     O .bss	00000c30 OSMemTbl
000230ac g     O .bss	00000001 OSTickStepState
0000a9c8 g     F .text	00000054 _sbrk_r
000210e0 g     O .rwdata	00000002 OSQMax
0002a0c4 g     O .bss	00000800 OSTaskStatStk
00016674 g     F .text	000000f0 OSMemNameGet
000210c0 g     O .rwdata	00000002 OSFlagEn
00023020 g     O .bss	00000004 game_mm
0000e2cc g     F .text	00000060 _read_r
00021106 g     O .rwdata	00000002 OSTimeTickHookEn
00017520 g     F .text	00000168 OSQPost
0001630c g     F .text	000000a4 OS_FlagUnlink
00021098 g     O .rwdata	00000004 alt_max_fd
0001cb1c g     F .text	00000044 alt_up_rs232_check_parity
00023024 g     O .bss	00000004 col_offset
000143c0 g     F .text	00000068 OS_MemCopy
00014428 g     F .text	000000d0 OS_Sched
0000d898 g     F .text	000000f0 _fclose_r
00016584 g     F .text	000000f0 OSMemGet
00019514 g     F .text	000001b4 OSTaskNameSet
0001c3cc g     F .text	00000030 read_num_bytes_available
000081d4 g     F .text	00000030 fflush
00023070 g     O .bss	00000004 __malloc_max_sbrked_mem
000230b0 g     O .bss	00000004 OSCtxSwCtr
00025124 g     O .bss	00002000 task_disp_vga_char_stk
0001dab4 g     F .text	00000020 OSTimeTickHook
0001d264 g     F .text	00000180 alt_irq_register
000210ca g     O .rwdata	00000002 OSFlagNameSize
0001c334 g     F .text	00000034 read_RI_bit
00013e8c g     F .text	00000100 OS_EventTaskRemoveMulti
0000f834 g     F .text	000008ac .hidden __adddf3
00013c84 g     F .text	00000150 OS_EventTaskWaitMulti
0000a4e0 g     F .text	0000010c __b2d
00023028 g     O .bss	00000004 game_ss
000210e2 g     O .rwdata	00000002 OSQSize
0000f148 g     F .text	00000538 .hidden __umoddi3
000122c8 g     F .text	000000d4 lseek
00017fd0 g     F .text	0000020c OSSemPend
00021070 g     O .rwdata	00000004 _global_impure_ptr
0002302c g     O .bss	00000002 sidebar_color
0000e32c g     F .text	00000564 _realloc_r
000210cc g     O .rwdata	00000002 OSLowestPrio
0002c448 g       *ABS*	00000000 __bss_end
0001db34 g     F .text	00000024 OSTCBInitHook
00021112 g     O .rwdata	00000002 OSTmrCfgTicksPerSec
0001d6d4 g     F .text	00000108 alt_tick
0000ebd0 g     F .text	00000578 .hidden __udivdi3
0000db00 g     F .text	00000024 _fputwc_r
000210b4 g     O .rwdata	00000002 OSEventEn
0001ed84 g     O .rodata	00000028 __mprec_bigtens
00009b48 g     F .text	00000104 __s2b
0002110e g     O .rwdata	00000002 OSTmrCfgNameSize
00011d90 g     F .text	000000a8 .hidden __floatunsidf
0000a220 g     F .text	00000060 __mcmp
0001c430 g     F .text	0000002c read_data_byte
00008574 g     F .text	00000018 __fp_lock_all
00016138 g     F .text	000000e0 OS_FlagInit
0001d638 g     F .text	0000009c alt_alarm_stop
0001c368 g     F .text	00000030 read_RE_bit
000210f0 g     O .rwdata	00000002 OSTaskIdleStkSize
00000820 g     F .text	00000168 Check_KEYs
000230ec g     O .bss	00000004 alt_irq_active
00017c08 g     F .text	000000b0 OSSemAccept
00000988 g     F .text	00000094 VGA_text
00016878 g     F .text	000000d8 OSMemPut
000163b0 g     F .text	000001d4 OSMemCreate
000230b4 g     O .bss	00000004 OSIdleCtrMax
0001c0a4 g     F .text	0000003c alt_up_irda_get_available_space_in_write_FIFO
000000fc g     F .exceptions	000000d8 alt_irq_handler
0001fb48 g     O .rwdata	00000028 alt_dev_null
00021104 g     O .rwdata	00000002 OSTicksPerSec
00023030 g     O .bss	00000004 KEY_val
0001bf70 g     F .text	00000038 alt_up_character_lcd_cursor_blink_on
0001d800 g       .text	00000000 OSIntCtxSw
0001c5e0 g     F .text	00000074 alt_up_ps2_write_data_byte
0001cea0 g     F .text	00000020 alt_dcache_flush_all
00009c4c g     F .text	00000068 __hi0bits
00011c34 g     F .text	00000080 .hidden __fixdfsi
000230b8 g     O .bss	00000004 OSTCBFreeList
0002112c g       *ABS*	00000000 __ram_rwdata_end
000181dc g     F .text	0000016c OSSemPendAbort
00021090 g     O .rwdata	00000008 alt_dev_list
00023034 g     O .bss	00000004 score
000126e0 g     F .text	000000f8 write
00021108 g     O .rwdata	00000002 OSVersionNbr
0001f250 g       *ABS*	00000000 __ram_rodata_end
00012010 g     F .text	000000b0 fstat
00001878 g     F .text	00000024 fprintf
0001cca4 g     F .text	00000094 alt_up_rs232_write_fd
00023038 g     O .bss	00000004 res_offset
00000000 g       *ABS*	00000000 __alt_mem_SDRAM
00010b2c g     F .text	000000f4 .hidden __ledf2
000210b0 g     O .rwdata	00000004 OSEndiannessTest
00009f98 g     F .text	00000140 __pow5mult
0000c1ec g     F .text	0000145c ___vfiprintf_internal_r
00023068 g     O .bss	00000004 __nlocale_changed
0000f7dc g     F .text	00000058 .hidden __umodsi3
000210c2 g     O .rwdata	00000002 OSFlagGrpSize
0002c448 g       *ABS*	00000000 end
0001c910 g     F .text	00000098 alt_up_ps2_write_fd
0001c0e0 g     F .text	00000044 alt_up_irda_check_parity
00000d9c g     F .text	00000098 VGA_clear_screen
0001ae04 g     F .text	0000013c altera_avalon_jtag_uart_init
00014690 g     F .text	000000dc OS_TaskStat
000001d4 g     F .exceptions	00000074 alt_instruction_exception_entry
0001e1fc g       *ABS*	00000000 __CTOR_LIST__
04000000 g       *ABS*	00000000 __alt_stack_pointer
0001ba40 g     F .text	00000074 alt_avalon_timer_sc_init
00011e38 g     F .text	00000064 .hidden __clzsi2
0000189c g     F .text	000000d8 _snprintf_r
0001b700 g     F .text	000002c4 altera_avalon_jtag_uart_write
00008564 g     F .text	00000004 __sfp_lock_acquire
00009604 g     F .text	000000e4 memchr
0001436c g     F .text	00000054 OS_MemClr
0001bbdc g     F .text	0000007c alt_up_character_lcd_write
000042b0 g     F .text	000021f8 ___vfprintf_internal_r
0001d8d0 g     F .text	0000015c OSTaskStkInit
000086c8 g     F .text	00000310 _free_r
0001f250 g     O .rwdata	00000051 clear_row_text
00008be8 g     F .text	00000010 __locale_mb_cur_max
000139dc g     F .text	00000198 OS_EventTaskRdy
0002303c g     O .bss	00000004 screen_y
0001e048 g     F .text	00000180 __call_exitprocs
000230bc g     O .bss	00000001 OSCPUUsage
00027124 g     O .bss	00002000 task_game_timer_stk
00023064 g     O .bss	00000004 __mlocale_changed
0002107c g     O .rwdata	00000004 __malloc_sbrk_base
00000248 g     F .text	0000003c _start
000230f0 g     O .bss	00000004 _alt_tick_rate
00017128 g     F .text	0000028c OSQPend
000042a8 g     F .text	00000008 _user_strerror
00019dd4 g     F .text	00000104 OSTimeDly
0000a0d8 g     F .text	00000148 __lshift
000230f4 g     O .bss	00000004 _alt_nticks
00012494 g     F .text	000000fc read
0001a334 g     F .text	0000096c alt_sys_init
0001be20 g     F .text	0000008c alt_up_character_lcd_shift_display
0000accc g     F .text	000001d0 __ssprint_r
0001df30 g     F .text	00000118 __register_exitproc
000230bd g     O .bss	00000001 OSTaskCtr
0001c82c g     F .text	00000058 alt_up_ps2_clear_fifo
0001cae0 g     F .text	0000003c alt_up_rs232_get_available_space_in_write_FIFO
00000a1c g     F .text	00000138 VGA_box
00019ed8 g     F .text	00000160 OSTimeDlyHMSM
00009da0 g     F .text	000001f8 __multiply
0001beac g     F .text	0000008c alt_up_character_lcd_erase_pos
0001b2ec g     F .text	00000068 altera_avalon_jtag_uart_close
0001f250 g       *ABS*	00000000 __ram_rwdata_start
0001e1fc g       *ABS*	00000000 __ram_rodata_start
000230fc g     O .bss	00000028 __malloc_current_mallinfo
000210b6 g     O .rwdata	00000002 OSEventMax
0000a5ec g     F .text	0000014c __d2b
00018348 g     F .text	00000110 OSSemPost
00013580 g     F .text	000000dc OSSchedUnlock
0001aca0 g     F .text	00000060 altera_avalon_jtag_uart_read_fd
0001dc60 g     F .text	000000dc alt_get_fd
000230c0 g     O .bss	00000004 OSMemFreeList
000136cc g     F .text	000000b0 OSStatInit
00015f14 g     F .text	000000c4 OSFlagQuery
00023040 g     O .bss	00000004 KEY1_flag
000210ec g     O .rwdata	00000002 OSTaskCreateExtEn
0000d780 g     F .text	00000054 _close_r
00023044 g     O .bss	00000004 pos_y
0001deb4 g     F .text	0000007c memcmp
000139bc g     F .text	00000020 OS_Dummy
0001ad60 g     F .text	00000050 altera_avalon_jtag_uart_close_fd
00000e34 g     F .text	00000190 get_data_bits
0002c448 g       *ABS*	00000000 __alt_stack_base
0001adb0 g     F .text	00000054 altera_avalon_jtag_uart_ioctl_fd
0001bfa8 g     F .text	0000005c alt_up_irda_enable_read_interrupt
00006580 g     F .text	00000154 __swsetup_r
0002a8c4 g     O .bss	000001e0 OSQTbl
000100e0 g     F .text	000008e8 .hidden __divdf3
00008424 g     F .text	00000118 __sfp
0000a850 g     F .text	00000078 __copybits
0001f740 g     O .rwdata	00000408 __malloc_av_
00008570 g     F .text	00000004 __sinit_lock_release
000230c4 g     O .bss	00000004 OSTCBHighRdy
00010c20 g     F .text	00000718 .hidden __muldf3
0000aa1c g     F .text	00000054 __sread
000230c8 g     O .bss	00000004 OSQFreeList
0001ca40 g     F .text	00000060 alt_up_rs232_disable_read_interrupt
0001db58 g     F .text	00000108 alt_find_file
0001cefc g     F .text	000000a4 alt_dev_llist_insert
000128fc g     F .text	00000120 __malloc_lock
00001850 g     F .text	00000028 _fprintf_r
000125f4 g     F .text	000000b0 sbrk
000020d0 g     F .text	000021d8 ___svfprintf_internal_r
00012c08 g     F .text	00000140 OSEventNameSet
00008178 g     F .text	0000005c _fflush_r
0000d7d4 g     F .text	000000c4 _calloc_r
000230cc g     O .bss	00000001 OSRdyGrp
000003a0 g     F .text	00000198 Task_read_KEYs
00023008 g       *ABS*	00000000 __bss_start
00009830 g     F .text	00000128 memset
00023048 g     O .bss	00000001 err
0000064c g     F .text	000001d4 main
00023088 g     O .bss	00000004 alt_envp
0002306c g     O .bss	00000004 __malloc_max_total_mem
000005a0 g     F .text	000000ac Task_VGA_char
0001ad00 g     F .text	00000060 altera_avalon_jtag_uart_write_fd
0000e9d0 g     F .text	00000018 __swbuf
0001efd0 g     O .rodata	00000100 OSUnMapTbl
000210e6 g     O .rwdata	00000002 OSSemEn
0001bd94 g     F .text	0000008c alt_up_character_lcd_shift_cursor
00015b80 g     F .text	00000394 OSFlagPost
0000ab50 g     F .text	00000008 __sclose
04000000 g       *ABS*	00000000 __alt_heap_limit
0000d988 g     F .text	00000014 fclose
00013b74 g     F .text	00000110 OS_EventTaskWait
0001c7bc g     F .text	00000070 alt_up_ps2_read_data_byte
0001476c g     F .text	000000cc OS_TaskStatStkChk
0001922c g     F .text	00000150 OSTaskDelReq
0002304c g     O .bss	00000004 pos_x
000068d4 g     F .text	00001688 _dtoa_r
00008df8 g     F .text	0000080c _malloc_r
0000eb44 g     F .text	00000030 __ascii_wctomb
0002109c g     O .rwdata	00000004 alt_errno
0001365c g     F .text	00000070 OSStart
0001289c g     F .text	00000060 __env_unlock
000089d8 g     F .text	000000c4 _fwalk
000196c8 g     F .text	000001d4 OSTaskResume
00016950 g     F .text	000000e8 OSMemQuery
000210f8 g     O .rwdata	00000002 OSTaskStatEn
0001c124 g     F .text	00000040 alt_up_irda_write_data
000210d2 g     O .rwdata	00000002 OSMemMax
00017688 g     F .text	00000170 OSQPostFront
0001c9a8 g     F .text	0000003c alt_up_ps2_open_dev
0000f680 g     F .text	00000084 .hidden __divsi3
000230cd g     O .bss	00000003 OSRdyTbl
000210ac g     O .rwdata	00000002 OSDebugEn
0001bba0 g     F .text	0000003c alt_up_character_lcd_open_dev
000085a4 g     F .text	00000124 _malloc_trim_r
0001c524 g     F .text	0000005c alt_up_ps2_enable_read_interrupt
0001e1fc g       *ABS*	00000000 __CTOR_END__
000210c4 g     O .rwdata	00000002 OSFlagNodeSize
0002110c g     O .rwdata	00000002 OSTmrCfgMax
0001bb68 g     F .text	00000038 alt_up_character_lcd_init
0000ab58 g     F .text	000000dc strcmp
00016c44 g     F .text	000001ac OSQCreate
0001937c g     F .text	00000198 OSTaskNameGet
0001e1fc g       *ABS*	00000000 __flash_rodata_start
000177f8 g     F .text	0000020c OSQPostOpt
0001377c g     F .text	00000220 OSTimeTick
000210f4 g     O .rwdata	00000002 OSTaskMax
0001e1fc g       *ABS*	00000000 __DTOR_LIST__
00017cb8 g     F .text	000000d8 OSSemCreate
00021118 g     O .rwdata	00000002 OSTmrWheelSize
00023050 g     O .bss	00000004 KEY3_flag
0001cd38 g     F .text	0000003c alt_up_rs232_open_dev
000109c8 g     F .text	00000088 .hidden __nedf2
000210ee g     O .rwdata	00000002 OSTaskDelEn
00018458 g     F .text	00000110 OSSemQuery
00016df0 g     F .text	00000280 OSQDel
000173b4 g     F .text	0000016c OSQPendAbort
0001a2fc g     F .text	00000038 alt_irq_init
00012590 g     F .text	00000064 alt_release_fd
0001c3fc g     F .text	00000034 read_data_valid
0001bf38 g     F .text	00000038 alt_up_character_lcd_cursor_off
0001eeb4 g     O .rodata	00000100 .hidden __clz_tab
00023060 g     O .bss	00000004 _PathLocale
0001c6bc g     F .text	00000064 alt_up_ps2_write_data_byte_with_ack
0001de68 g     F .text	00000014 atexit
0000d720 g     F .text	00000060 _write_r
000134f4 g     F .text	0000008c OSSchedLock
00008c18 g     F .text	00000018 setlocale
00014fa4 g     F .text	00000108 OSFlagCreate
00000284 g     F .text	0000011c Task_game_timer
00021074 g     O .rwdata	00000004 _impure_ptr
00023080 g     O .bss	00000004 alt_argc
00007f5c g     F .text	0000021c __sflush_r
0002106c g     O .rwdata	00000002 clear_text
0001d000 g     F .text	00000060 _do_dtors
00008c04 g     F .text	00000008 __locale_cjk_lang
000210be g     O .rwdata	00000002 OSEventMultiEn
09000000 g       *ABS*	00000000 __alt_mem_VGA_Subsystem_Char_Buf_Subsystem_Onchip_SRAM
000150ac g     F .text	00000248 OSFlagDel
000230d0 g     O .bss	00000004 OSEventFreeList
00000020 g       .exceptions	00000000 alt_irq_entry
0000a47c g     F .text	00000064 __ulp
00015568 g     F .text	000005b8 OSFlagPend
0002110a g     O .rwdata	00000002 OSTmrEn
0000858c g     F .text	00000018 __fp_unlock_all
00021088 g     O .rwdata	00000008 alt_fs_list
0001456c g     F .text	00000074 OS_StrCopy
0001c9e4 g     F .text	0000005c alt_up_rs232_enable_read_interrupt
0001cb60 g     F .text	00000040 alt_up_rs232_write_data
000210d4 g     O .rwdata	00000002 OSMemNameSize
0001daf4 g     F .text	00000020 OSInitHookEnd
00000020 g       *ABS*	00000000 __ram_exceptions_start
00021100 g     O .rwdata	00000002 OSTCBPrioTblMax
00008c30 g     F .text	0000000c localeconv
000210fc g     O .rwdata	00000002 OSTaskStatStkChkEn
00001684 g     F .text	000001bc VGA_gametime_display
000210d0 g     O .rwdata	00000002 OSMemEn
000210da g     O .rwdata	00000002 OSMutexEn
0002112c g       *ABS*	00000000 _edata
00023054 g     O .bss	00000004 KEY0_flag
0002c448 g       *ABS*	00000000 _end
000230d4 g     O .bss	00000001 OSIntNesting
0000d99c g     F .text	00000164 __fputwc
00000248 g       *ABS*	00000000 __ram_exceptions_end
0001b354 g     F .text	000000f0 altera_avalon_jtag_uart_ioctl
0001a038 g     F .text	000001d4 OSTimeDlyResume
0001541c g     F .text	0000014c OSFlagNameSet
0001989c g     F .text	000001c0 OSTaskStkChk
000210d6 g     O .rwdata	00000002 OSMemSize
0000aa78 g     F .text	0000007c __swrite
00021080 g     O .rwdata	00000004 __malloc_trim_threshold
00008bf8 g     F .text	0000000c __locale_msgcharset
000230d8 g     O .bss	00000004 OSTCBCur
0001de7c g     F .text	00000038 exit
0001c164 g     F .text	00000074 alt_up_irda_read_data
000210d8 g     O .rwdata	00000002 OSMemTblSize
00008a9c g     F .text	000000c4 _fwalk_reent
0001c45c g     F .text	000000c8 alt_up_ps2_init
0000a280 g     F .text	000001fc __mdiff
0000f704 g     F .text	00000074 .hidden __modsi3
00000ce4 g     F .text	000000b8 resample_rgb
04000000 g       *ABS*	00000000 __alt_data_end
00000020 g     F .exceptions	00000000 alt_exception
00008568 g     F .text	00000004 __sfp_lock_release
00000fc4 g     F .text	000006c0 VGA_display_sidebar
00013358 g     F .text	00000058 OSInit
00019c40 g     F .text	00000124 OSTaskQuery
0001bc58 g     F .text	00000078 alt_up_character_lcd_string
00017b60 g     F .text	000000a8 OS_QInit
000145e0 g     F .text	00000054 OS_StrLen
0001c2f8 g     F .text	0000003c alt_up_irda_open_dev
00016764 g     F .text	00000114 OSMemNameSet
000210f2 g     O .rwdata	00000002 OSTaskProfileEn
000230dc g     O .bss	00000004 OSTime
0002aaa4 g     O .bss	00000800 OSTaskIdleStk
0001e1c8 g     F .text	00000034 _exit
0001cd74 g     F .text	0000012c alt_alarm_start
000152f4 g     F .text	00000128 OSFlagNameGet
0001a20c g     F .text	0000005c OSTimeGet
00008c3c g     F .text	000001bc __smakebuf_r
00000b54 g     F .text	000000a4 VGA_char_box
0001c654 g     F .text	00000068 alt_up_ps2_wait_for_ack
0000ac34 g     F .text	00000098 strlen
0001da74 g     F .text	00000020 OSTaskSwHook
0001d4e4 g     F .text	00000154 open
0002b2a4 g     O .bss	00000b40 OSEventTbl
00010a50 g     F .text	000000dc .hidden __gedf2
0002bde4 g     O .bss	00000510 OSTCBTbl
00018568 g     F .text	00000100 OSSemSet
00023058 g     O .bss	00000004 SEM_game_timer
00021084 g     O .rwdata	00000004 __wctomb
0000c1d4 g     F .text	00000018 __sprint_r
0001d0f0 g     F .text	00000034 alt_icache_flush_all
0001bd20 g     F .text	00000074 alt_up_character_lcd_set_cursor_pos
00021120 g     O .rwdata	00000004 alt_priority_mask
00017d90 g     F .text	00000240 OSSemDel
000230e0 g     O .bss	00000004 OSFlagFreeList
000210b8 g     O .rwdata	00000002 OSEventNameSize
000064a8 g     F .text	0000001c __vfprintf_internal
000230e4 g     O .bss	00000001 OSStatRdy
0002c2f4 g     O .bss	00000054 OSTCBPrioTbl
0000eb74 g     F .text	0000005c _wctomb_r
000127d8 g     F .text	000000c4 __env_lock
0001c884 g     F .text	0000008c alt_up_ps2_read_fd
000210fe g     O .rwdata	00000002 OSTaskSwHookEn
00011338 g     F .text	000008fc .hidden __subdf3
0001c1d8 g     F .text	00000090 alt_up_irda_read_fd
00021068 g     O .rwdata	00000002 text_disp
00009cb4 g     F .text	000000b0 __lo0bits
00021124 g     O .rwdata	00000008 alt_alarm_list
000210c6 g     O .rwdata	00000002 OSFlagWidth
0001cfa0 g     F .text	00000060 _do_ctors
0001caa0 g     F .text	00000040 alt_up_rs232_get_used_space_in_read_FIFO
0000ea84 g     F .text	000000c0 wcrtomb
00011ed8 g     F .text	000000d0 close
00023090 g     O .bss	00000004 alt_envsem
000230e8 g     O .bss	00000004 OSIdleCtrRun
0001399c g     F .text	00000020 OSVersion
00021110 g     O .rwdata	00000002 OSTmrCfgWheelSize
00012208 g     F .text	00000084 alt_load
00019d64 g     F .text	00000070 OS_TaskStkClr
000210ea g     O .rwdata	00000002 OSTaskCreateEn
00013f8c g     F .text	00000068 OS_EventWaitListInit
0000db24 g     F .text	00000080 fputwc
0001db14 g     F .text	00000020 OSTaskIdleHook
0000856c g     F .text	00000004 __sinit_lock_acquire
0002305c g     O .bss	00000004 rgb_status
00009a28 g     F .text	00000120 __multadd
00019a5c g     F .text	000001e4 OSTaskSuspend
00009a00 g     F .text	00000028 _Bfree
00014634 g     F .text	0000005c OS_TaskIdle
00021116 g     O .rwdata	00000002 OSTmrTblSize
00017a04 g     F .text	0000015c OSQQuery



Disassembly of section .entry:

00000000 <__reset>:
#if NIOS2_ICACHE_SIZE > 0 && defined(ALT_ALLOW_CODE_AT_RESET) && (!defined(ALT_SIM_OPTIMIZE) || defined(NIOS2_ECC_PRESENT))
    /* Assume the instruction cache size is always a power of two. */
#if NIOS2_ICACHE_SIZE > 0x8000
    movhi r2, %hi(NIOS2_ICACHE_SIZE)
#else
    movui r2, NIOS2_ICACHE_SIZE
   0:	00840014 	movui	r2,4096
#endif

0:
    initi r2
   4:	1001483a 	initi	r2
    addi r2, r2, -NIOS2_ICACHE_LINE_SIZE
   8:	10bff804 	addi	r2,r2,-32
    bgt r2, zero, 0b
   c:	00bffd16 	blt	zero,r2,4 <__reset+0x4>
 * Jump to the _start entry point in the .text section if reset code
 * is allowed or if optimizing for RTL simulation.
 */
#if defined(ALT_ALLOW_CODE_AT_RESET) || defined(ALT_SIM_OPTIMIZE)
    /* Jump to the _start entry point in the .text section. */
    movhi r1, %hi(_start)
  10:	00400034 	movhi	at,0
    ori r1, r1, %lo(_start)
  14:	08409214 	ori	at,at,584
    jmp r1
  18:	0800683a 	jmp	at
  1c:	00000000 	call	0 <__reset>

Disassembly of section .exceptions:

00000020 <alt_exception>:

#else /* ALT_EXCEPTION_STACK disabled */
        /* 
         * Reserve space on normal stack for registers about to be pushed.
         */
        addi  sp, sp, -76
  20:	deffed04 	addi	sp,sp,-76
         * documentation for details).
         *
         * Leave a gap in the stack frame at 4(sp) for the muldiv handler to
         * store zero into.
         */
        stw   ra,  0(sp)
  24:	dfc00015 	stw	ra,0(sp)
        stw   r1,   8(sp)
  28:	d8400215 	stw	at,8(sp)
        stw   r2,  12(sp)
  2c:	d8800315 	stw	r2,12(sp)
        stw   r3,  16(sp)
  30:	d8c00415 	stw	r3,16(sp)
        stw   r4,  20(sp)
  34:	d9000515 	stw	r4,20(sp)
        stw   r5,  24(sp)
  38:	d9400615 	stw	r5,24(sp)
        stw   r6,  28(sp)
  3c:	d9800715 	stw	r6,28(sp)
        stw   r7,  32(sp)
  40:	d9c00815 	stw	r7,32(sp)
        rdctl r5, estatus   /* Read early to avoid usage stall */
  44:	000b307a 	rdctl	r5,estatus
        stw   r8,  36(sp)
  48:	da000915 	stw	r8,36(sp)
        stw   r9,  40(sp)
  4c:	da400a15 	stw	r9,40(sp)
        stw   r10, 44(sp)
  50:	da800b15 	stw	r10,44(sp)
        stw   r11, 48(sp)
  54:	dac00c15 	stw	r11,48(sp)
        stw   r12, 52(sp)
  58:	db000d15 	stw	r12,52(sp)
        stw   r13, 56(sp)
  5c:	db400e15 	stw	r13,56(sp)
        stw   r14, 60(sp)
  60:	db800f15 	stw	r14,60(sp)
        stw   r15, 64(sp)
  64:	dbc01015 	stw	r15,64(sp)
        /*
         * ea-4 contains the address of the instruction being executed
         * when the exception occured. For interrupt exceptions, we will
         * will be re-issue the isntruction. Store it in 72(sp)
         */
        stw   r5,  68(sp)  /* estatus */
  68:	d9401115 	stw	r5,68(sp)
        addi  r15, ea, -4  /* instruction that caused exception */
  6c:	ebffff04 	addi	r15,ea,-4
        stw   r15,  72(sp)
  70:	dbc01215 	stw	r15,72(sp)
#else
        /*
         * Test to see if the exception was a software exception or caused 
         * by an external interrupt, and vector accordingly.
         */
        rdctl r4, ipending
  74:	0009313a 	rdctl	r4,ipending
        andi  r2, r5, 1
  78:	2880004c 	andi	r2,r5,1
        beq   r2, zero, .Lnot_irq
  7c:	10000326 	beq	r2,zero,8c <OSCtxSw_SWITCH_PC+0x4c>
        beq   r4, zero, .Lnot_irq
  80:	20000226 	beq	r4,zero,8c <OSCtxSw_SWITCH_PC+0x4c>
        /*
         * Now that all necessary registers have been preserved, call 
         * alt_irq_handler() to process the interrupts.
         */

        call alt_irq_handler
  84:	00000fc0 	call	fc <alt_irq_handler>

        .section .exceptions.irqreturn, "xa"

        br    .Lexception_exit
  88:	00000706 	br	a8 <OSCtxSw_SWITCH_PC+0x68>
         * upon completion, so we write ea (address of instruction *after*
         * the one where the exception occured) into 72(sp). The actual
         * instruction that caused the exception is written in r2, which these
         * handlers will utilize.
         */
        stw ea, 72(sp) /* EA is PC+4 so will skip over instruction causing exception */
  8c:	df401215 	stw	ea,72(sp)
.Lunknown_16bit:
        addi.n r4, r4, 2 /* Need PC+2 to skip over instruction causing exception */
        stw r4, 72(sp)

#else /* CDX is not Enabled and all instructions are 32bits */
        ldw r2, -4(ea) /* Instruction value that caused exception */
  90:	e8bfff17 	ldw	r2,-4(ea)
         * debugger is present) or go into an infinite loop since the
         * handling behavior is undefined; in that case we will not return here.
         */

        /* Load exception-causing address as first argument (r4) */
        addi   r4, ea, -4
  94:	e93fff04 	addi	r4,ea,-4

        /* Call the instruction-exception entry */
        call   alt_instruction_exception_entry
  98:	00001d40 	call	1d4 <alt_instruction_exception_entry>
         * instruction
         *
         * Return code was 0: Skip. The instruction after the exception is
         * already stored in 72(sp).
         */
        bne   r2, r0, .Lexception_exit
  9c:	1000021e 	bne	r2,zero,a8 <OSCtxSw_SWITCH_PC+0x68>

        /*
         * Otherwise, modify 72(sp) to re-issue the instruction that caused the
         * exception.
         */
        addi  r15, ea, -4  /* instruction that caused exception */
  a0:	ebffff04 	addi	r15,ea,-4
        stw   r15,  72(sp)
  a4:	dbc01215 	stw	r15,72(sp)
        /* 
         * Restore the saved registers, so that all general purpose registers 
         * have been restored to their state at the time the interrupt occured.
         */

        ldw   r5,  68(sp)
  a8:	d9401117 	ldw	r5,68(sp)
        ldw   ea,  72(sp)  /* This becomes the PC once eret is executed */
  ac:	df401217 	ldw	ea,72(sp)
        ldw   ra,   0(sp)
  b0:	dfc00017 	ldw	ra,0(sp)

        wrctl estatus, r5
  b4:	2801707a 	wrctl	estatus,r5

        ldw   r1,   8(sp)
  b8:	d8400217 	ldw	at,8(sp)
        ldw   r2,  12(sp)
  bc:	d8800317 	ldw	r2,12(sp)
        ldw   r3,  16(sp)
  c0:	d8c00417 	ldw	r3,16(sp)
        ldw   r4,  20(sp)
  c4:	d9000517 	ldw	r4,20(sp)
        ldw   r5,  24(sp)
  c8:	d9400617 	ldw	r5,24(sp)
        ldw   r6,  28(sp)
  cc:	d9800717 	ldw	r6,28(sp)
        ldw   r7,  32(sp)
  d0:	d9c00817 	ldw	r7,32(sp)

#if defined(ALT_EXCEPTION_STACK) && defined(ALT_STACK_CHECK)
        ldw   et, %gprel(alt_exception_old_stack_limit)(gp)
#endif

        ldw   r8,  36(sp)
  d4:	da000917 	ldw	r8,36(sp)
        ldw   r9,  40(sp)
  d8:	da400a17 	ldw	r9,40(sp)
        ldw   r10, 44(sp)
  dc:	da800b17 	ldw	r10,44(sp)
        ldw   r11, 48(sp)
  e0:	dac00c17 	ldw	r11,48(sp)
        ldw   r12, 52(sp)
  e4:	db000d17 	ldw	r12,52(sp)
        ldw   r13, 56(sp)
  e8:	db400e17 	ldw	r13,56(sp)
        ldw   r14, 60(sp)
  ec:	db800f17 	ldw	r14,60(sp)
        ldw   r15, 64(sp)
  f0:	dbc01017 	ldw	r15,64(sp)
        stw   et, %gprel(alt_stack_limit_value)(gp)
        stw   zero, %gprel(alt_exception_old_stack_limit)(gp)
#endif /* ALT_STACK_CHECK */
        ldw   sp,  76(sp)
#else /* ALT_EXCEPTION_STACK disabled */
        addi  sp, sp, 76
  f4:	dec01304 	addi	sp,sp,76

        /*
         * Return to the interrupted instruction.
         */

        eret
  f8:	ef80083a 	eret

000000fc <alt_irq_handler>:
 * instruction is present if the macro ALT_CI_INTERRUPT_VECTOR defined.
 */

void alt_irq_handler (void) __attribute__ ((section (".exceptions")));
void alt_irq_handler (void)
{
  fc:	defff904 	addi	sp,sp,-28
 100:	dfc00615 	stw	ra,24(sp)
 104:	df000515 	stw	fp,20(sp)
 108:	df000504 	addi	fp,sp,20
  
  /*
   * Notify the operating system that we are at interrupt level.
   */ 
  
  ALT_OS_INT_ENTER();
 10c:	00133b00 	call	133b0 <OSIntEnter>
#ifndef NIOS2_EIC_PRESENT
static ALT_INLINE alt_u32 ALT_ALWAYS_INLINE alt_irq_pending (void)
{
  alt_u32 active;

  NIOS2_READ_IPENDING (active);
 110:	0005313a 	rdctl	r2,ipending
 114:	e0bffe15 	stw	r2,-8(fp)

  return active;
 118:	e0bffe17 	ldw	r2,-8(fp)
   * Consider the case where the high priority interupt is asserted during
   * the interrupt entry sequence for a lower priority interrupt to see why
   * this is the case.
   */

  active = alt_irq_pending ();
 11c:	e0bffb15 	stw	r2,-20(fp)

  do
  {
    i = 0;
 120:	e03ffd15 	stw	zero,-12(fp)
    mask = 1;
 124:	00800044 	movi	r2,1
 128:	e0bffc15 	stw	r2,-16(fp)
     * called to clear the interrupt condition.
     */

    do
    {
      if (active & mask)
 12c:	e0fffb17 	ldw	r3,-20(fp)
 130:	e0bffc17 	ldw	r2,-16(fp)
 134:	1884703a 	and	r2,r3,r2
 138:	10001526 	beq	r2,zero,190 <alt_irq_handler+0x94>
      { 
#ifdef ALT_ENHANCED_INTERRUPT_API_PRESENT
        alt_irq[i].handler(alt_irq[i].context); 
#else
        alt_irq[i].handler(alt_irq[i].context, i); 
 13c:	008000f4 	movhi	r2,3
 140:	10b0d204 	addi	r2,r2,-15544
 144:	e0fffd17 	ldw	r3,-12(fp)
 148:	180690fa 	slli	r3,r3,3
 14c:	10c5883a 	add	r2,r2,r3
 150:	10c00017 	ldw	r3,0(r2)
 154:	008000f4 	movhi	r2,3
 158:	10b0d204 	addi	r2,r2,-15544
 15c:	e13ffd17 	ldw	r4,-12(fp)
 160:	200890fa 	slli	r4,r4,3
 164:	1105883a 	add	r2,r2,r4
 168:	10800104 	addi	r2,r2,4
 16c:	10800017 	ldw	r2,0(r2)
 170:	e17ffd17 	ldw	r5,-12(fp)
 174:	1009883a 	mov	r4,r2
 178:	183ee83a 	callr	r3
#endif
        break;
 17c:	0001883a 	nop
#ifndef NIOS2_EIC_PRESENT
static ALT_INLINE alt_u32 ALT_ALWAYS_INLINE alt_irq_pending (void)
{
  alt_u32 active;

  NIOS2_READ_IPENDING (active);
 180:	0005313a 	rdctl	r2,ipending
 184:	e0bfff15 	stw	r2,-4(fp)

  return active;
 188:	e0bfff17 	ldw	r2,-4(fp)
 18c:	00000706 	br	1ac <alt_irq_handler+0xb0>
      }
      mask <<= 1;
 190:	e0bffc17 	ldw	r2,-16(fp)
 194:	1085883a 	add	r2,r2,r2
 198:	e0bffc15 	stw	r2,-16(fp)
      i++;
 19c:	e0bffd17 	ldw	r2,-12(fp)
 1a0:	10800044 	addi	r2,r2,1
 1a4:	e0bffd15 	stw	r2,-12(fp)

    } while (1);
 1a8:	003fe006 	br	12c <alt_irq_handler+0x30>

    active = alt_irq_pending ();
 1ac:	e0bffb15 	stw	r2,-20(fp)
    
  } while (active);
 1b0:	e0bffb17 	ldw	r2,-20(fp)
 1b4:	103fda1e 	bne	r2,zero,120 <alt_irq_handler+0x24>

  /*
   * Notify the operating system that interrupt processing is complete.
   */ 

  ALT_OS_INT_EXIT();
 1b8:	00133fc0 	call	133fc <OSIntExit>
}
 1bc:	0001883a 	nop
 1c0:	e037883a 	mov	sp,fp
 1c4:	dfc00117 	ldw	ra,4(sp)
 1c8:	df000017 	ldw	fp,0(sp)
 1cc:	dec00204 	addi	sp,sp,8
 1d0:	f800283a 	ret

000001d4 <alt_instruction_exception_entry>:
 * that handler if it has been registered. Absent a handler, it will
 * break break or hang as discussed below.
 */
int 
alt_instruction_exception_entry (alt_u32 exception_pc)
{
 1d4:	defffb04 	addi	sp,sp,-20
 1d8:	dfc00415 	stw	ra,16(sp)
 1dc:	df000315 	stw	fp,12(sp)
 1e0:	df000304 	addi	fp,sp,12
 1e4:	e13fff15 	stw	r4,-4(fp)
 * NIOS2_EXCEPTION_CAUSE_NOT_PRESENT. Your handling routine should
 * check the validity of the cause argument before proceeding.
 */
#ifdef NIOS2_HAS_EXTRA_EXCEPTION_INFO
  /* Get exception cause & "badaddr" */
  NIOS2_READ_EXCEPTION(cause);
 1e8:	000531fa 	rdctl	r2,exception
 1ec:	e0bffd15 	stw	r2,-12(fp)
  cause = ( (cause & NIOS2_EXCEPTION_REG_CAUSE_MASK) >>
 1f0:	e0bffd17 	ldw	r2,-12(fp)
 1f4:	10801f0c 	andi	r2,r2,124
 1f8:	1004d0ba 	srli	r2,r2,2
 1fc:	e0bffd15 	stw	r2,-12(fp)
              NIOS2_EXCEPTION_REG_CAUSE_OFST );

  NIOS2_READ_BADADDR(badaddr);
 200:	0005333a 	rdctl	r2,badaddr
 204:	e0bffe15 	stw	r2,-8(fp)
#else
  cause = NIOS2_EXCEPTION_CAUSE_NOT_PRESENT;
  badaddr = 0;
#endif /* NIOS2_HAS_EXTRA_EXCEPTION_INFO */

  if(alt_instruction_exception_handler) {
 208:	d0a82417 	ldw	r2,-24432(gp)
 20c:	10000726 	beq	r2,zero,22c <alt_instruction_exception_entry+0x58>
     * Call handler. Its return value indicates whether the exception-causing
     * instruction should be re-issued. The code that called us,
     * alt_eceptions_entry.S, will look at this value and adjust the ea
     * register as necessary
     */
    return alt_instruction_exception_handler(cause, exception_pc, badaddr);
 210:	d0a82417 	ldw	r2,-24432(gp)
 214:	e0fffd17 	ldw	r3,-12(fp)
 218:	e1bffe17 	ldw	r6,-8(fp)
 21c:	e17fff17 	ldw	r5,-4(fp)
 220:	1809883a 	mov	r4,r3
 224:	103ee83a 	callr	r2
 228:	00000206 	br	234 <alt_instruction_exception_entry+0x60>
   *    (a peripheral which negates its interrupt output before its
   *    interrupt handler has been executed will cause spurious interrupts)
   */
  else {
#ifdef NIOS2_HAS_DEBUG_STUB
    NIOS2_BREAK();
 22c:	003da03a 	break	0
      ;
#endif /* NIOS2_HAS_DEBUG_STUB */
  }

  /* We should not get here. Remove compiler warning. */
  return NIOS2_EXCEPTION_RETURN_REISSUE_INST;
 230:	0005883a 	mov	r2,zero
}
 234:	e037883a 	mov	sp,fp
 238:	dfc00117 	ldw	ra,4(sp)
 23c:	df000017 	ldw	fp,0(sp)
 240:	dec00204 	addi	sp,sp,8
 244:	f800283a 	ret

Disassembly of section .text:

00000248 <_start>:

    /*
     * Now that the caches are initialized, set up the stack pointer and global pointer.
     * The values provided by the linker are assumed to be correctly aligned.
     */
    movhi sp, %hi(__alt_stack_pointer)
     248:	06c10034 	movhi	sp,1024
    ori sp, sp, %lo(__alt_stack_pointer)
     24c:	dec00014 	ori	sp,sp,0
    movhi gp, %hi(_gp)
     250:	068000b4 	movhi	gp,2
    ori gp, gp, %lo(_gp)
     254:	d6a41a14 	ori	gp,gp,36968
 */
#ifndef ALT_SIM_OPTIMIZE
    /* Log that the BSS is about to be cleared. */
    ALT_LOG_PUTS(alt_log_msg_bss)

    movhi r2, %hi(__bss_start)
     258:	008000b4 	movhi	r2,2
    ori r2, r2, %lo(__bss_start)
     25c:	108c0214 	ori	r2,r2,12296

    movhi r3, %hi(__bss_end)
     260:	00c000b4 	movhi	r3,2
    ori r3, r3, %lo(__bss_end)
     264:	18f11214 	ori	r3,r3,50248

    beq r2, r3, 1f
     268:	10c00326 	beq	r2,r3,278 <_start+0x30>

0:
    stw zero, (r2)
     26c:	10000015 	stw	zero,0(r2)
    addi r2, r2, 4
     270:	10800104 	addi	r2,r2,4
    bltu r2, r3, 0b
     274:	10fffd36 	bltu	r2,r3,26c <_start+0x24>
     * section aren't defined until alt_load() has been called).
     */
    mov   et, zero
#endif

    call alt_load
     278:	00122080 	call	12208 <alt_load>

    /* Log that alt_main is about to be called. */
    ALT_LOG_PUTS(alt_log_msg_alt_main)

    /* Call the C entry point. It should never return. */
    call alt_main
     27c:	001239c0 	call	1239c <alt_main>

00000280 <alt_after_alt_main>:

    /* Wait in infinite loop in case alt_main does return. */
alt_after_alt_main:
    br alt_after_alt_main
     280:	003fff06 	br	280 <alt_after_alt_main>

00000284 <Task_game_timer>:
/* ************************************************************************** */
/*                     Track Elapsed Time: Total Game Time                    */
/* ************************************************************************** */
void
Task_game_timer(void* pdata)
{
     284:	defffa04 	addi	sp,sp,-24
     288:	dfc00515 	stw	ra,20(sp)
     28c:	df000415 	stw	fp,16(sp)
     290:	df000404 	addi	fp,sp,16
     294:	e13fff15 	stw	r4,-4(fp)
  debug("Started Game Timer");
     298:	d0a00317 	ldw	r2,-32756(gp)
     29c:	10800317 	ldw	r2,12(r2)
     2a0:	01c00c84 	movi	r7,50
     2a4:	018000b4 	movhi	r6,2
     2a8:	31b87f04 	addi	r6,r6,-7684
     2ac:	014000b4 	movhi	r5,2
     2b0:	29788304 	addi	r5,r5,-7668
     2b4:	1009883a 	mov	r4,r2
     2b8:	00018780 	call	1878 <fprintf>
  for (;;) {
    OSSemPend(SEM_game_timer, 0, &err);
     2bc:	d0a7fc17 	ldw	r2,-24592(gp)
     2c0:	d1a7f804 	addi	r6,gp,-24608
     2c4:	000b883a 	mov	r5,zero
     2c8:	1009883a 	mov	r4,r2
     2cc:	0017fd00 	call	17fd0 <OSSemPend>
    game_ss++;
     2d0:	d0a7f017 	ldw	r2,-24640(gp)
     2d4:	10800044 	addi	r2,r2,1
     2d8:	d0a7f015 	stw	r2,-24640(gp)

    if (game_ss >= 60) {
     2dc:	d0a7f017 	ldw	r2,-24640(gp)
     2e0:	10800f10 	cmplti	r2,r2,60
     2e4:	1000041e 	bne	r2,zero,2f8 <Task_game_timer+0x74>
      game_mm++;
     2e8:	d0a7ee17 	ldw	r2,-24648(gp)
     2ec:	10800044 	addi	r2,r2,1
     2f0:	d0a7ee15 	stw	r2,-24648(gp)
      game_ss = 0;
     2f4:	d027f015 	stw	zero,-24640(gp)
    }

    if (game_mm >= 60) {
     2f8:	d0a7ee17 	ldw	r2,-24648(gp)
     2fc:	10800f10 	cmplti	r2,r2,60
     300:	1000041e 	bne	r2,zero,314 <Task_game_timer+0x90>
      game_hh++;
     304:	d0a7eb17 	ldw	r2,-24660(gp)
     308:	10800044 	addi	r2,r2,1
     30c:	d0a7eb15 	stw	r2,-24660(gp)
      game_mm = 0;
     310:	d027ee15 	stw	zero,-24648(gp)
    }

    if (game_hh >= 60)
     314:	d0a7eb17 	ldw	r2,-24660(gp)
     318:	10800f10 	cmplti	r2,r2,60
     31c:	1000011e 	bne	r2,zero,324 <Task_game_timer+0xa0>
      game_hh, game_mm, game_ss = 0, 0, 0;
     320:	d027f015 	stw	zero,-24640(gp)

    debug("GAME TIME: %02d:%02d:%02d", game_hh, game_mm, game_ss);
     324:	d0a00317 	ldw	r2,-32756(gp)
     328:	12000317 	ldw	r8,12(r2)
     32c:	d0a7eb17 	ldw	r2,-24660(gp)
     330:	d0e7ee17 	ldw	r3,-24648(gp)
     334:	d127f017 	ldw	r4,-24640(gp)
     338:	d9000215 	stw	r4,8(sp)
     33c:	d8c00115 	stw	r3,4(sp)
     340:	d8800015 	stw	r2,0(sp)
     344:	01c01104 	movi	r7,68
     348:	018000b4 	movhi	r6,2
     34c:	31b87f04 	addi	r6,r6,-7684
     350:	014000b4 	movhi	r5,2
     354:	29788c04 	addi	r5,r5,-7632
     358:	4009883a 	mov	r4,r8
     35c:	00018780 	call	1878 <fprintf>

    VGA_gametime_display(game_hh, game_mm, game_ss);
     360:	d0a7eb17 	ldw	r2,-24660(gp)
     364:	d0e7ee17 	ldw	r3,-24648(gp)
     368:	d127f017 	ldw	r4,-24640(gp)
     36c:	200d883a 	mov	r6,r4
     370:	180b883a 	mov	r5,r3
     374:	1009883a 	mov	r4,r2
     378:	00016840 	call	1684 <VGA_gametime_display>

    OSSemPost(SEM_game_timer);
     37c:	d0a7fc17 	ldw	r2,-24592(gp)
     380:	1009883a 	mov	r4,r2
     384:	00183480 	call	18348 <OSSemPost>
    OSTimeDlyHMSM(0, 0, 1, 0);
     388:	000f883a 	mov	r7,zero
     38c:	01800044 	movi	r6,1
     390:	000b883a 	mov	r5,zero
     394:	0009883a 	mov	r4,zero
     398:	0019ed80 	call	19ed8 <OSTimeDlyHMSM>
  }
     39c:	003fc706 	br	2bc <Task_game_timer+0x38>

000003a0 <Task_read_KEYs>:
/* ************************************************************************** */
/*                   Detecting KEY1, KEY2, KEY3, KEY4 Press                   */
/* ************************************************************************** */
void
Task_read_KEYs(void* pdata)
{
     3a0:	defffc04 	addi	sp,sp,-16
     3a4:	dfc00315 	stw	ra,12(sp)
     3a8:	df000215 	stw	fp,8(sp)
     3ac:	df000204 	addi	fp,sp,8
     3b0:	e13fff15 	stw	r4,-4(fp)
  debug("Started: Task_read_KEYs");
     3b4:	d0a00317 	ldw	r2,-32756(gp)
     3b8:	10800317 	ldw	r2,12(r2)
     3bc:	01c014c4 	movi	r7,83
     3c0:	018000b4 	movhi	r6,2
     3c4:	31b87f04 	addi	r6,r6,-7684
     3c8:	014000b4 	movhi	r5,2
     3cc:	29789604 	addi	r5,r5,-7592
     3d0:	1009883a 	mov	r4,r2
     3d4:	00018780 	call	1878 <fprintf>
  KEY0_flag, KEY1_flag, KEY2_flag, KEY3_flag = 0, 0, 0, 0;
     3d8:	d027fa15 	stw	zero,-24600(gp)

  for (;;) {
    OSSemPend(SEM_read_KEYs, 0, &err);
     3dc:	d0a7ec17 	ldw	r2,-24656(gp)
     3e0:	d1a7f804 	addi	r6,gp,-24608
     3e4:	000b883a 	mov	r5,zero
     3e8:	1009883a 	mov	r4,r2
     3ec:	0017fd00 	call	17fd0 <OSSemPend>

    debug("%u: \tHello from Task_read_KEYs", OSTime);
     3f0:	d0a00317 	ldw	r2,-32756(gp)
     3f4:	10c00317 	ldw	r3,12(r2)
     3f8:	d0a81d17 	ldw	r2,-24460(gp)
     3fc:	d8800015 	stw	r2,0(sp)
     400:	01c01644 	movi	r7,89
     404:	018000b4 	movhi	r6,2
     408:	31b87f04 	addi	r6,r6,-7684
     40c:	014000b4 	movhi	r5,2
     410:	2978a004 	addi	r5,r5,-7552
     414:	1809883a 	mov	r4,r3
     418:	00018780 	call	1878 <fprintf>
    Check_KEYs(&KEY0_flag, &KEY1_flag, &KEY2_flag, &KEY3_flag);
     41c:	d1e7fa04 	addi	r7,gp,-24600
     420:	d1a7ed04 	addi	r6,gp,-24652
     424:	d167f604 	addi	r5,gp,-24616
     428:	d127fb04 	addi	r4,gp,-24596
     42c:	00008200 	call	820 <Check_KEYs>

    if (KEY0_flag) {
     430:	d0a7fb17 	ldw	r2,-24596(gp)
     434:	10000d26 	beq	r2,zero,46c <Task_read_KEYs+0xcc>
      debug("MOVE RIGHT");
     438:	d0a00317 	ldw	r2,-32756(gp)
     43c:	10800317 	ldw	r2,12(r2)
     440:	01c01744 	movi	r7,93
     444:	018000b4 	movhi	r6,2
     448:	31b87f04 	addi	r6,r6,-7684
     44c:	014000b4 	movhi	r5,2
     450:	2978ac04 	addi	r5,r5,-7504
     454:	1009883a 	mov	r4,r2
     458:	00018780 	call	1878 <fprintf>
      ++pos_x;
     45c:	d0a7f917 	ldw	r2,-24604(gp)
     460:	10800044 	addi	r2,r2,1
     464:	d0a7f915 	stw	r2,-24604(gp)
      KEY0_flag = 0;
     468:	d027fb15 	stw	zero,-24596(gp)
    }

    if (KEY1_flag) {
     46c:	d0a7f617 	ldw	r2,-24616(gp)
     470:	10000d26 	beq	r2,zero,4a8 <Task_read_KEYs+0x108>
      debug("MOVE DOWN");
     474:	d0a00317 	ldw	r2,-32756(gp)
     478:	10800317 	ldw	r2,12(r2)
     47c:	01c018c4 	movi	r7,99
     480:	018000b4 	movhi	r6,2
     484:	31b87f04 	addi	r6,r6,-7684
     488:	014000b4 	movhi	r5,2
     48c:	2978b304 	addi	r5,r5,-7476
     490:	1009883a 	mov	r4,r2
     494:	00018780 	call	1878 <fprintf>
      ++pos_y;
     498:	d0a7f717 	ldw	r2,-24612(gp)
     49c:	10800044 	addi	r2,r2,1
     4a0:	d0a7f715 	stw	r2,-24612(gp)
      KEY1_flag = 0;
     4a4:	d027f615 	stw	zero,-24616(gp)
    }

    if (KEY2_flag) {
     4a8:	d0a7ed17 	ldw	r2,-24652(gp)
     4ac:	10000d26 	beq	r2,zero,4e4 <Task_read_KEYs+0x144>
      debug("MOVE UP");
     4b0:	d0a00317 	ldw	r2,-32756(gp)
     4b4:	10800317 	ldw	r2,12(r2)
     4b8:	01c01a44 	movi	r7,105
     4bc:	018000b4 	movhi	r6,2
     4c0:	31b87f04 	addi	r6,r6,-7684
     4c4:	014000b4 	movhi	r5,2
     4c8:	2978b904 	addi	r5,r5,-7452
     4cc:	1009883a 	mov	r4,r2
     4d0:	00018780 	call	1878 <fprintf>
      --pos_y;
     4d4:	d0a7f717 	ldw	r2,-24612(gp)
     4d8:	10bfffc4 	addi	r2,r2,-1
     4dc:	d0a7f715 	stw	r2,-24612(gp)
      KEY2_flag = 0;
     4e0:	d027ed15 	stw	zero,-24652(gp)
    }

    if (KEY3_flag) {
     4e4:	d0a7fa17 	ldw	r2,-24600(gp)
     4e8:	10000d26 	beq	r2,zero,520 <Task_read_KEYs+0x180>
      debug("MOVE LEFT");
     4ec:	d0a00317 	ldw	r2,-32756(gp)
     4f0:	10800317 	ldw	r2,12(r2)
     4f4:	01c01bc4 	movi	r7,111
     4f8:	018000b4 	movhi	r6,2
     4fc:	31b87f04 	addi	r6,r6,-7684
     500:	014000b4 	movhi	r5,2
     504:	2978bf04 	addi	r5,r5,-7428
     508:	1009883a 	mov	r4,r2
     50c:	00018780 	call	1878 <fprintf>
      --pos_x;
     510:	d0a7f917 	ldw	r2,-24604(gp)
     514:	10bfffc4 	addi	r2,r2,-1
     518:	d0a7f915 	stw	r2,-24604(gp)
      KEY3_flag = 0;
     51c:	d027fa15 	stw	zero,-24600(gp)
    }

    OSSemPost(SEM_read_KEYs);
     520:	d0a7ec17 	ldw	r2,-24656(gp)
     524:	1009883a 	mov	r4,r2
     528:	00183480 	call	18348 <OSSemPost>
    OSTimeDly(1);
     52c:	01000044 	movi	r4,1
     530:	0019dd40 	call	19dd4 <OSTimeDly>
  }
     534:	003fa906 	br	3dc <Task_read_KEYs+0x3c>

00000538 <Task_VGA_init>:
}

/* Initial Display Setup */
static void
Task_VGA_init(void)
{
     538:	defffe04 	addi	sp,sp,-8
     53c:	dfc00115 	stw	ra,4(sp)
     540:	df000015 	stw	fp,0(sp)
     544:	d839883a 	mov	fp,sp
  debug("Initializing VGA Display");
     548:	d0a00317 	ldw	r2,-32756(gp)
     54c:	10800317 	ldw	r2,12(r2)
     550:	01c01f44 	movi	r7,125
     554:	018000b4 	movhi	r6,2
     558:	31b87f04 	addi	r6,r6,-7684
     55c:	014000b4 	movhi	r5,2
     560:	2978c504 	addi	r5,r5,-7404
     564:	1009883a 	mov	r4,r2
     568:	00018780 	call	1878 <fprintf>

  VGA_clear_screen();
     56c:	0000d9c0 	call	d9c <VGA_clear_screen>
  VGA_display_sidebar(background_color);
     570:	d0a7ea0b 	ldhu	r2,-24664(gp)
     574:	10bfffcc 	andi	r2,r2,65535
     578:	10a0001c 	xori	r2,r2,32768
     57c:	10a00004 	addi	r2,r2,-32768
     580:	1009883a 	mov	r4,r2
     584:	0000fc40 	call	fc4 <VGA_display_sidebar>
}
     588:	0001883a 	nop
     58c:	e037883a 	mov	sp,fp
     590:	dfc00117 	ldw	ra,4(sp)
     594:	df000017 	ldw	fp,0(sp)
     598:	dec00204 	addi	sp,sp,8
     59c:	f800283a 	ret

000005a0 <Task_VGA_char>:

/* Display Character using VGA Output */
void
Task_VGA_char(void* pdata)
{
     5a0:	defffa04 	addi	sp,sp,-24
     5a4:	dfc00515 	stw	ra,20(sp)
     5a8:	df000415 	stw	fp,16(sp)
     5ac:	df000404 	addi	fp,sp,16
     5b0:	e13fff15 	stw	r4,-4(fp)
  debug("Started: Task_VGA_char");
     5b4:	d0a00317 	ldw	r2,-32756(gp)
     5b8:	10800317 	ldw	r2,12(r2)
     5bc:	01c021c4 	movi	r7,135
     5c0:	018000b4 	movhi	r6,2
     5c4:	31b87f04 	addi	r6,r6,-7684
     5c8:	014000b4 	movhi	r5,2
     5cc:	2978cf04 	addi	r5,r5,-7364
     5d0:	1009883a 	mov	r4,r2
     5d4:	00018780 	call	1878 <fprintf>

  for (;;) {
    debug(
     5d8:	d0a00317 	ldw	r2,-32756(gp)
     5dc:	12000317 	ldw	r8,12(r2)
     5e0:	d0a81d17 	ldw	r2,-24460(gp)
     5e4:	d0e7f917 	ldw	r3,-24604(gp)
     5e8:	d127f717 	ldw	r4,-24612(gp)
     5ec:	d9000215 	stw	r4,8(sp)
     5f0:	d8c00115 	stw	r3,4(sp)
     5f4:	d8800015 	stw	r2,0(sp)
     5f8:	01c022c4 	movi	r7,139
     5fc:	018000b4 	movhi	r6,2
     600:	31b87f04 	addi	r6,r6,-7684
     604:	014000b4 	movhi	r5,2
     608:	2978d904 	addi	r5,r5,-7324
     60c:	4009883a 	mov	r4,r8
     610:	00018780 	call	1878 <fprintf>
      "%u: \tTask_VGA_char: (pos_x, pos_y) = (%d, %d)", OSTime, pos_x, pos_y);

    VGA_animated_char(pos_x, pos_y, text_disp, background_color);
     614:	d0a7f917 	ldw	r2,-24604(gp)
     618:	d0e7f717 	ldw	r3,-24612(gp)
     61c:	d127ea0b 	ldhu	r4,-24664(gp)
     620:	213fffcc 	andi	r4,r4,65535
     624:	2120001c 	xori	r4,r4,32768
     628:	21200004 	addi	r4,r4,-32768
     62c:	200f883a 	mov	r7,r4
     630:	d1a00004 	addi	r6,gp,-32768
     634:	180b883a 	mov	r5,r3
     638:	1009883a 	mov	r4,r2
     63c:	0000bf80 	call	bf8 <VGA_animated_char>

    OSTimeDly(1);
     640:	01000044 	movi	r4,1
     644:	0019dd40 	call	19dd4 <OSTimeDly>
  }
     648:	003fe306 	br	5d8 <Task_VGA_char+0x38>

0000064c <main>:
}

/* The main function creates two task and starts multi-tasking */
int
main(void)
{
     64c:	defff804 	addi	sp,sp,-32
     650:	dfc00715 	stw	ra,28(sp)
     654:	df000615 	stw	fp,24(sp)
     658:	df000604 	addi	fp,sp,24

  /* ***************************** Initialization *****************************
   */

  score = 0;
     65c:	d027f315 	stw	zero,-24628(gp)
  game_hh, game_mm, game_ss = 0, 0, 0;
     660:	d027f015 	stw	zero,-24640(gp)

  KEY0_flag, KEY1_flag, KEY2_flag, KEY3_flag = 0, 0, 0, 0;
     664:	d027fa15 	stw	zero,-24600(gp)

  /* ************************ Semaphores Initialization ***********************
   */

  SEM_read_KEYs = OSSemCreate(1);
     668:	01000044 	movi	r4,1
     66c:	0017cb80 	call	17cb8 <OSSemCreate>
     670:	d0a7ec15 	stw	r2,-24656(gp)
  SEM_game_timer = OSSemCreate(1);
     674:	01000044 	movi	r4,1
     678:	0017cb80 	call	17cb8 <OSSemCreate>
     67c:	d0a7fc15 	stw	r2,-24592(gp)

  /* **************************** VGA Display Setup ***************************
   */

  video_resolution = (int*)(PIXEL_BUF_CTRL_BASE + 0x8);
     680:	00bfc834 	movhi	r2,65312
     684:	108c0a04 	addi	r2,r2,12328
     688:	d0a7e815 	stw	r2,-24672(gp)
  rgb_status = (int*)(RGB_RESAMPLER_BASE);
     68c:	00bfc834 	movhi	r2,65312
     690:	108c0404 	addi	r2,r2,12304
     694:	d0a7fd15 	stw	r2,-24588(gp)

  screen_x = *video_resolution & 0xFFFF;
     698:	d0a7e817 	ldw	r2,-24672(gp)
     69c:	10800017 	ldw	r2,0(r2)
     6a0:	10bfffcc 	andi	r2,r2,65535
     6a4:	d0a7e915 	stw	r2,-24668(gp)
  screen_y = (*video_resolution >> 16) & 0xFFFF;
     6a8:	d0a7e817 	ldw	r2,-24672(gp)
     6ac:	10800017 	ldw	r2,0(r2)
     6b0:	1004d43a 	srli	r2,r2,16
     6b4:	d0a7f515 	stw	r2,-24620(gp)

  /* letter initially positioned at the centre of screen */
  pos_x = 40;
     6b8:	00800a04 	movi	r2,40
     6bc:	d0a7f915 	stw	r2,-24604(gp)
  pos_y = 30;
     6c0:	00800784 	movi	r2,30
     6c4:	d0a7f715 	stw	r2,-24612(gp)

  int db = get_data_bits(*rgb_status & 0x3F);
     6c8:	d0a7fd17 	ldw	r2,-24588(gp)
     6cc:	10800017 	ldw	r2,0(r2)
     6d0:	10800fcc 	andi	r2,r2,63
     6d4:	1009883a 	mov	r4,r2
     6d8:	0000e340 	call	e34 <get_data_bits>
     6dc:	e0bfff15 	stw	r2,-4(fp)

  /* check if resolution is smaller than the standard 320 x 240 */
  res_offset = (screen_x == 160) ? 1 : 0;
     6e0:	d0a7e917 	ldw	r2,-24668(gp)
     6e4:	10802820 	cmpeqi	r2,r2,160
     6e8:	10803fcc 	andi	r2,r2,255
     6ec:	d0a7f415 	stw	r2,-24624(gp)

  /* check if number of data bits is less than the standard 16-bits */
  col_offset = (db == 8) ? 1 : 0;
     6f0:	e0bfff17 	ldw	r2,-4(fp)
     6f4:	10800220 	cmpeqi	r2,r2,8
     6f8:	10803fcc 	andi	r2,r2,255
     6fc:	d0a7ef15 	stw	r2,-24644(gp)

  /* update color */
  background_color = resample_rgb(db, INTEL_RED);
     700:	01403db4 	movhi	r5,246
     704:	294a46c4 	addi	r5,r5,10523
     708:	e13fff17 	ldw	r4,-4(fp)
     70c:	0000ce40 	call	ce4 <resample_rgb>
     710:	d0a7ea0d 	sth	r2,-24664(gp)
  VGA_animated_char(pos_x, pos_y, text_disp, background_color);
     714:	d0a7f917 	ldw	r2,-24604(gp)
     718:	d0e7f717 	ldw	r3,-24612(gp)
     71c:	d127ea0b 	ldhu	r4,-24664(gp)
     720:	213fffcc 	andi	r4,r4,65535
     724:	2120001c 	xori	r4,r4,32768
     728:	21200004 	addi	r4,r4,-32768
     72c:	200f883a 	mov	r7,r4
     730:	d1a00004 	addi	r6,gp,-32768
     734:	180b883a 	mov	r5,r3
     738:	1009883a 	mov	r4,r2
     73c:	0000bf80 	call	bf8 <VGA_animated_char>

  /* **************************************************************************
   */

  Task_VGA_init(); /* Initial Display Layout Setup */
     740:	00005380 	call	538 <Task_VGA_init>

  OSTaskCreateExt(Task_game_timer,
     744:	d8000415 	stw	zero,16(sp)
     748:	d8000315 	stw	zero,12(sp)
     74c:	00820004 	movi	r2,2048
     750:	d8800215 	stw	r2,8(sp)
     754:	008000b4 	movhi	r2,2
     758:	109c4904 	addi	r2,r2,28964
     75c:	d8800115 	stw	r2,4(sp)
     760:	00800084 	movi	r2,2
     764:	d8800015 	stw	r2,0(sp)
     768:	01c00084 	movi	r7,2
     76c:	018000f4 	movhi	r6,3
     770:	31a44804 	addi	r6,r6,-28384
     774:	000b883a 	mov	r5,zero
     778:	01000034 	movhi	r4,0
     77c:	2100a104 	addi	r4,r4,644
     780:	0018d040 	call	18d04 <OSTaskCreateExt>
                  task_game_timer_stk,
                  TASK_STACKSIZE,
                  NULL,
                  0);

  OSTaskCreateExt(Task_read_KEYs,
     784:	d8000415 	stw	zero,16(sp)
     788:	d8000315 	stw	zero,12(sp)
     78c:	00820004 	movi	r2,2048
     790:	d8800215 	stw	r2,8(sp)
     794:	008000b4 	movhi	r2,2
     798:	108c4904 	addi	r2,r2,12580
     79c:	d8800115 	stw	r2,4(sp)
     7a0:	00800104 	movi	r2,4
     7a4:	d8800015 	stw	r2,0(sp)
     7a8:	01c00104 	movi	r7,4
     7ac:	018000b4 	movhi	r6,2
     7b0:	31944804 	addi	r6,r6,20768
     7b4:	000b883a 	mov	r5,zero
     7b8:	01000034 	movhi	r4,0
     7bc:	2100e804 	addi	r4,r4,928
     7c0:	0018d040 	call	18d04 <OSTaskCreateExt>
                  task_key_press_stk,
                  TASK_STACKSIZE,
                  NULL,
                  0);

  OSTaskCreateExt(Task_VGA_char,
     7c4:	d8000415 	stw	zero,16(sp)
     7c8:	d8000315 	stw	zero,12(sp)
     7cc:	00820004 	movi	r2,2048
     7d0:	d8800215 	stw	r2,8(sp)
     7d4:	008000b4 	movhi	r2,2
     7d8:	10944904 	addi	r2,r2,20772
     7dc:	d8800115 	stw	r2,4(sp)
     7e0:	00800144 	movi	r2,5
     7e4:	d8800015 	stw	r2,0(sp)
     7e8:	01c00144 	movi	r7,5
     7ec:	018000b4 	movhi	r6,2
     7f0:	319c4804 	addi	r6,r6,28960
     7f4:	000b883a 	mov	r5,zero
     7f8:	01000034 	movhi	r4,0
     7fc:	21016804 	addi	r4,r4,1440
     800:	0018d040 	call	18d04 <OSTaskCreateExt>
                  task_disp_vga_char_stk,
                  TASK_STACKSIZE,
                  NULL,
                  0);

  OSStart();
     804:	001365c0 	call	1365c <OSStart>
  return 0;
     808:	0005883a 	mov	r2,zero
}
     80c:	e037883a 	mov	sp,fp
     810:	dfc00117 	ldw	ra,4(sp)
     814:	df000017 	ldw	fp,0(sp)
     818:	dec00204 	addi	sp,sp,8
     81c:	f800283a 	ret

00000820 <Check_KEYs>:
extern unsigned KEY_val;
extern int KEY0_flag, KEY1_flag, KEY2_flag, KEY3_flag;

void
Check_KEYs(int* KEY0_ptr, int* KEY1_ptr, int* KEY2_ptr, int* KEY3_ptr)
{
     820:	defff904 	addi	sp,sp,-28
     824:	dfc00615 	stw	ra,24(sp)
     828:	df000515 	stw	fp,20(sp)
     82c:	df000504 	addi	fp,sp,20
     830:	e13ffc15 	stw	r4,-16(fp)
     834:	e17ffd15 	stw	r5,-12(fp)
     838:	e1bffe15 	stw	r6,-8(fp)
     83c:	e1ffff15 	stw	r7,-4(fp)

  KEY_val = *(KEY_ptr);
     840:	00bfc834 	movhi	r2,65312
     844:	10801404 	addi	r2,r2,80
     848:	10800017 	ldw	r2,0(r2)
     84c:	d0a7f215 	stw	r2,-24632(gp)

  if (KEY_val == KEY0) {
     850:	d0a7f217 	ldw	r2,-24632(gp)
     854:	10800058 	cmpnei	r2,r2,1
     858:	10000c1e 	bne	r2,zero,88c <Check_KEYs+0x6c>
    debug("KEY0 Pressed!"); // check KEY0
     85c:	d0a00317 	ldw	r2,-32756(gp)
     860:	10800317 	ldw	r2,12(r2)
     864:	01c00544 	movi	r7,21
     868:	018000b4 	movhi	r6,2
     86c:	31b8e804 	addi	r6,r6,-7264
     870:	014000b4 	movhi	r5,2
     874:	2978ea04 	addi	r5,r5,-7256
     878:	1009883a 	mov	r4,r2
     87c:	00018780 	call	1878 <fprintf>
    KEY0_flag = 1;
     880:	00800044 	movi	r2,1
     884:	d0a7fb15 	stw	r2,-24596(gp)
     888:	00002c06 	br	93c <Check_KEYs+0x11c>
  } else if (KEY_val == KEY1) // check KEY1
     88c:	d0a7f217 	ldw	r2,-24632(gp)
     890:	10800098 	cmpnei	r2,r2,2
     894:	10000c1e 	bne	r2,zero,8c8 <Check_KEYs+0xa8>
  {
    debug("KEY1 Pressed!");
     898:	d0a00317 	ldw	r2,-32756(gp)
     89c:	10800317 	ldw	r2,12(r2)
     8a0:	01c00644 	movi	r7,25
     8a4:	018000b4 	movhi	r6,2
     8a8:	31b8e804 	addi	r6,r6,-7264
     8ac:	014000b4 	movhi	r5,2
     8b0:	2978f104 	addi	r5,r5,-7228
     8b4:	1009883a 	mov	r4,r2
     8b8:	00018780 	call	1878 <fprintf>
    KEY1_flag = 1;
     8bc:	00800044 	movi	r2,1
     8c0:	d0a7f615 	stw	r2,-24616(gp)
     8c4:	00001d06 	br	93c <Check_KEYs+0x11c>
  } else if (KEY_val == KEY2) // check KEY2
     8c8:	d0a7f217 	ldw	r2,-24632(gp)
     8cc:	10800118 	cmpnei	r2,r2,4
     8d0:	10000c1e 	bne	r2,zero,904 <Check_KEYs+0xe4>
  {
    debug("KEY2 Pressed!");
     8d4:	d0a00317 	ldw	r2,-32756(gp)
     8d8:	10800317 	ldw	r2,12(r2)
     8dc:	01c00744 	movi	r7,29
     8e0:	018000b4 	movhi	r6,2
     8e4:	31b8e804 	addi	r6,r6,-7264
     8e8:	014000b4 	movhi	r5,2
     8ec:	2978f804 	addi	r5,r5,-7200
     8f0:	1009883a 	mov	r4,r2
     8f4:	00018780 	call	1878 <fprintf>
    KEY2_flag = 1;
     8f8:	00800044 	movi	r2,1
     8fc:	d0a7ed15 	stw	r2,-24652(gp)
     900:	00000e06 	br	93c <Check_KEYs+0x11c>
  } else if (KEY_val == KEY3) // check KEY3
     904:	d0a7f217 	ldw	r2,-24632(gp)
     908:	10800218 	cmpnei	r2,r2,8
     90c:	10000b1e 	bne	r2,zero,93c <Check_KEYs+0x11c>
  {
    debug("KEY3 Pressed!");
     910:	d0a00317 	ldw	r2,-32756(gp)
     914:	10800317 	ldw	r2,12(r2)
     918:	01c00844 	movi	r7,33
     91c:	018000b4 	movhi	r6,2
     920:	31b8e804 	addi	r6,r6,-7264
     924:	014000b4 	movhi	r5,2
     928:	2978ff04 	addi	r5,r5,-7172
     92c:	1009883a 	mov	r4,r2
     930:	00018780 	call	1878 <fprintf>
    KEY3_flag = 1;
     934:	00800044 	movi	r2,1
     938:	d0a7fa15 	stw	r2,-24600(gp)
  }

  if (KEY_val)
     93c:	d0a7f217 	ldw	r2,-24632(gp)
     940:	10000b26 	beq	r2,zero,970 <Check_KEYs+0x150>
    debug("KEY_value: %d", KEY_val);
     944:	d0a00317 	ldw	r2,-32756(gp)
     948:	10c00317 	ldw	r3,12(r2)
     94c:	d0a7f217 	ldw	r2,-24632(gp)
     950:	d8800015 	stw	r2,0(sp)
     954:	01c00984 	movi	r7,38
     958:	018000b4 	movhi	r6,2
     95c:	31b8e804 	addi	r6,r6,-7264
     960:	014000b4 	movhi	r5,2
     964:	29790604 	addi	r5,r5,-7144
     968:	1809883a 	mov	r4,r3
     96c:	00018780 	call	1878 <fprintf>
}
     970:	0001883a 	nop
     974:	e037883a 	mov	sp,fp
     978:	dfc00117 	ldw	ra,4(sp)
     97c:	df000017 	ldw	fp,0(sp)
     980:	dec00204 	addi	sp,sp,8
     984:	f800283a 	ret

00000988 <VGA_text>:
/*******************************************************************************
 * Subroutine to send a string of text to the video monitor
 ******************************************************************************/
void
VGA_text(int x, int y, char* text_ptr)
{
     988:	defffa04 	addi	sp,sp,-24
     98c:	df000515 	stw	fp,20(sp)
     990:	df000504 	addi	fp,sp,20
     994:	e13ffd15 	stw	r4,-12(fp)
     998:	e17ffe15 	stw	r5,-8(fp)
     99c:	e1bfff15 	stw	r6,-4(fp)
  int offset;
  volatile char* char_buf = (char*)FPGA_CHAR_BASE; // video character buffer
     9a0:	00824034 	movhi	r2,2304
     9a4:	e0bffc15 	stw	r2,-16(fp)

  /* assume that the text string fits on one line */
  offset = (y << 7) + x;
     9a8:	e0bffe17 	ldw	r2,-8(fp)
     9ac:	100691fa 	slli	r3,r2,7
     9b0:	e0bffd17 	ldw	r2,-12(fp)
     9b4:	1885883a 	add	r2,r3,r2
     9b8:	e0bffb15 	stw	r2,-20(fp)
  while (*(text_ptr)) {
     9bc:	00000c06 	br	9f0 <VGA_text+0x68>
    *(char_buf + offset) = *(text_ptr); // write to the character buffer
     9c0:	e0bffb17 	ldw	r2,-20(fp)
     9c4:	e0fffc17 	ldw	r3,-16(fp)
     9c8:	1885883a 	add	r2,r3,r2
     9cc:	e0ffff17 	ldw	r3,-4(fp)
     9d0:	18c00003 	ldbu	r3,0(r3)
     9d4:	10c00005 	stb	r3,0(r2)
    ++text_ptr;
     9d8:	e0bfff17 	ldw	r2,-4(fp)
     9dc:	10800044 	addi	r2,r2,1
     9e0:	e0bfff15 	stw	r2,-4(fp)
    ++offset;
     9e4:	e0bffb17 	ldw	r2,-20(fp)
     9e8:	10800044 	addi	r2,r2,1
     9ec:	e0bffb15 	stw	r2,-20(fp)
  int offset;
  volatile char* char_buf = (char*)FPGA_CHAR_BASE; // video character buffer

  /* assume that the text string fits on one line */
  offset = (y << 7) + x;
  while (*(text_ptr)) {
     9f0:	e0bfff17 	ldw	r2,-4(fp)
     9f4:	10800003 	ldbu	r2,0(r2)
     9f8:	10803fcc 	andi	r2,r2,255
     9fc:	1080201c 	xori	r2,r2,128
     a00:	10bfe004 	addi	r2,r2,-128
     a04:	103fee1e 	bne	r2,zero,9c0 <VGA_text+0x38>
    *(char_buf + offset) = *(text_ptr); // write to the character buffer
    ++text_ptr;
    ++offset;
  }
}
     a08:	0001883a 	nop
     a0c:	e037883a 	mov	sp,fp
     a10:	df000017 	ldw	fp,0(sp)
     a14:	dec00104 	addi	sp,sp,4
     a18:	f800283a 	ret

00000a1c <VGA_box>:
/*        Takes in points assuming 320x240 resolution and adjusts based on    */
/*        differences in resolution and color bits.                           */
/* ************************************************************************** */
void
VGA_box(int x1, int y1, int x2, int y2, short pixel_color)
{
     a1c:	defff404 	addi	sp,sp,-48
     a20:	df000b15 	stw	fp,44(sp)
     a24:	df000b04 	addi	fp,sp,44
     a28:	e13ffb15 	stw	r4,-20(fp)
     a2c:	e17ffc15 	stw	r5,-16(fp)
     a30:	e1bffd15 	stw	r6,-12(fp)
     a34:	e1fffe15 	stw	r7,-8(fp)
     a38:	e0800117 	ldw	r2,4(fp)
     a3c:	e0bfff0d 	sth	r2,-4(fp)
  int pixel_buf_ptr = *(int*)PIXEL_BUF_CTRL_BASE;
     a40:	00bfc834 	movhi	r2,65312
     a44:	108c0804 	addi	r2,r2,12320
     a48:	10800017 	ldw	r2,0(r2)
     a4c:	e0bff715 	stw	r2,-36(fp)
  int pixel_ptr, row, col;

  int x_factor = 0x1 << (res_offset + col_offset);
     a50:	d0e7f417 	ldw	r3,-24624(gp)
     a54:	d0a7ef17 	ldw	r2,-24644(gp)
     a58:	1885883a 	add	r2,r3,r2
     a5c:	00c00044 	movi	r3,1
     a60:	1884983a 	sll	r2,r3,r2
     a64:	e0bff815 	stw	r2,-32(fp)
  int y_factor = 0x1 << (res_offset);
     a68:	d0a7f417 	ldw	r2,-24624(gp)
     a6c:	00c00044 	movi	r3,1
     a70:	1884983a 	sll	r2,r3,r2
     a74:	e0bff915 	stw	r2,-28(fp)

  x1 = x1 / x_factor;
     a78:	e0fffb17 	ldw	r3,-20(fp)
     a7c:	e0bff817 	ldw	r2,-32(fp)
     a80:	1885283a 	div	r2,r3,r2
     a84:	e0bffb15 	stw	r2,-20(fp)
  x2 = x2 / x_factor;
     a88:	e0fffd17 	ldw	r3,-12(fp)
     a8c:	e0bff817 	ldw	r2,-32(fp)
     a90:	1885283a 	div	r2,r3,r2
     a94:	e0bffd15 	stw	r2,-12(fp)
  y1 = y1 / y_factor;
     a98:	e0fffc17 	ldw	r3,-16(fp)
     a9c:	e0bff917 	ldw	r2,-28(fp)
     aa0:	1885283a 	div	r2,r3,r2
     aa4:	e0bffc15 	stw	r2,-16(fp)
  y2 = y2 / y_factor;
     aa8:	e0fffe17 	ldw	r3,-8(fp)
     aac:	e0bff917 	ldw	r2,-28(fp)
     ab0:	1885283a 	div	r2,r3,r2
     ab4:	e0bffe15 	stw	r2,-8(fp)

  /* assume that the box coordinates are valid */
  for (row = y1; row <= y2; row++)
     ab8:	e0bffc17 	ldw	r2,-16(fp)
     abc:	e0bff515 	stw	r2,-44(fp)
     ac0:	00001c06 	br	b34 <VGA_box+0x118>
    for (col = x1; col <= x2; ++col) {
     ac4:	e0bffb17 	ldw	r2,-20(fp)
     ac8:	e0bff615 	stw	r2,-40(fp)
     acc:	00001306 	br	b1c <VGA_box+0x100>
      pixel_ptr =
        pixel_buf_ptr + (row << (10 - res_offset - col_offset)) + (col << 1);
     ad0:	d0a7f417 	ldw	r2,-24624(gp)
     ad4:	00c00284 	movi	r3,10
     ad8:	1887c83a 	sub	r3,r3,r2
     adc:	d0a7ef17 	ldw	r2,-24644(gp)
     ae0:	1885c83a 	sub	r2,r3,r2
     ae4:	e0fff517 	ldw	r3,-44(fp)
     ae8:	1886983a 	sll	r3,r3,r2
     aec:	e0bff717 	ldw	r2,-36(fp)
     af0:	1887883a 	add	r3,r3,r2
     af4:	e0bff617 	ldw	r2,-40(fp)
     af8:	1085883a 	add	r2,r2,r2
  y2 = y2 / y_factor;

  /* assume that the box coordinates are valid */
  for (row = y1; row <= y2; row++)
    for (col = x1; col <= x2; ++col) {
      pixel_ptr =
     afc:	1885883a 	add	r2,r3,r2
     b00:	e0bffa15 	stw	r2,-24(fp)
        pixel_buf_ptr + (row << (10 - res_offset - col_offset)) + (col << 1);
      *(short*)pixel_ptr = pixel_color; // set pixel color
     b04:	e0bffa17 	ldw	r2,-24(fp)
     b08:	e0ffff0b 	ldhu	r3,-4(fp)
     b0c:	10c0000d 	sth	r3,0(r2)
  y1 = y1 / y_factor;
  y2 = y2 / y_factor;

  /* assume that the box coordinates are valid */
  for (row = y1; row <= y2; row++)
    for (col = x1; col <= x2; ++col) {
     b10:	e0bff617 	ldw	r2,-40(fp)
     b14:	10800044 	addi	r2,r2,1
     b18:	e0bff615 	stw	r2,-40(fp)
     b1c:	e0bff617 	ldw	r2,-40(fp)
     b20:	e0fffd17 	ldw	r3,-12(fp)
     b24:	18bfea0e 	bge	r3,r2,ad0 <VGA_box+0xb4>
  x2 = x2 / x_factor;
  y1 = y1 / y_factor;
  y2 = y2 / y_factor;

  /* assume that the box coordinates are valid */
  for (row = y1; row <= y2; row++)
     b28:	e0bff517 	ldw	r2,-44(fp)
     b2c:	10800044 	addi	r2,r2,1
     b30:	e0bff515 	stw	r2,-44(fp)
     b34:	e0bff517 	ldw	r2,-44(fp)
     b38:	e0fffe17 	ldw	r3,-8(fp)
     b3c:	18bfe10e 	bge	r3,r2,ac4 <VGA_box+0xa8>
    for (col = x1; col <= x2; ++col) {
      pixel_ptr =
        pixel_buf_ptr + (row << (10 - res_offset - col_offset)) + (col << 1);
      *(short*)pixel_ptr = pixel_color; // set pixel color
    }
}
     b40:	0001883a 	nop
     b44:	e037883a 	mov	sp,fp
     b48:	df000017 	ldw	fp,0(sp)
     b4c:	dec00104 	addi	sp,sp,4
     b50:	f800283a 	ret

00000b54 <VGA_char_box>:
/*              Character to Pixel mapping: 1 character = 4 pixels            */
/* ************************************************************************** */

void
VGA_char_box(int x, int y, short color)
{
     b54:	defff604 	addi	sp,sp,-40
     b58:	dfc00915 	stw	ra,36(sp)
     b5c:	df000815 	stw	fp,32(sp)
     b60:	df000804 	addi	fp,sp,32
     b64:	e13ffd15 	stw	r4,-12(fp)
     b68:	e17ffe15 	stw	r5,-8(fp)
     b6c:	3005883a 	mov	r2,r6
     b70:	e0bfff0d 	sth	r2,-4(fp)
  int x1 = x * 4;
     b74:	e0bffd17 	ldw	r2,-12(fp)
     b78:	1085883a 	add	r2,r2,r2
     b7c:	1085883a 	add	r2,r2,r2
     b80:	e0bff915 	stw	r2,-28(fp)
  int y1 = y * 4;
     b84:	e0bffe17 	ldw	r2,-8(fp)
     b88:	1085883a 	add	r2,r2,r2
     b8c:	1085883a 	add	r2,r2,r2
     b90:	e0bffa15 	stw	r2,-24(fp)
  int x2 = ((x + 1) * 4) - 1;
     b94:	e0bffd17 	ldw	r2,-12(fp)
     b98:	10800044 	addi	r2,r2,1
     b9c:	1085883a 	add	r2,r2,r2
     ba0:	1085883a 	add	r2,r2,r2
     ba4:	10bfffc4 	addi	r2,r2,-1
     ba8:	e0bffb15 	stw	r2,-20(fp)
  int y2 = ((y + 1) * 4) - 1;
     bac:	e0bffe17 	ldw	r2,-8(fp)
     bb0:	10800044 	addi	r2,r2,1
     bb4:	1085883a 	add	r2,r2,r2
     bb8:	1085883a 	add	r2,r2,r2
     bbc:	10bfffc4 	addi	r2,r2,-1
     bc0:	e0bffc15 	stw	r2,-16(fp)

  VGA_box(x1, y1, x2, y2, color);
     bc4:	e0bfff0f 	ldh	r2,-4(fp)
     bc8:	d8800015 	stw	r2,0(sp)
     bcc:	e1fffc17 	ldw	r7,-16(fp)
     bd0:	e1bffb17 	ldw	r6,-20(fp)
     bd4:	e17ffa17 	ldw	r5,-24(fp)
     bd8:	e13ff917 	ldw	r4,-28(fp)
     bdc:	0000a1c0 	call	a1c <VGA_box>
}
     be0:	0001883a 	nop
     be4:	e037883a 	mov	sp,fp
     be8:	dfc00117 	ldw	ra,4(sp)
     bec:	df000017 	ldw	fp,0(sp)
     bf0:	dec00204 	addi	sp,sp,8
     bf4:	f800283a 	ret

00000bf8 <VGA_animated_char>:
/* ************************************************************************** */
/*         Synced Animated Character embedded on top of character box         */
/* ************************************************************************** */
void
VGA_animated_char(int x, int y, char* text_ptr, short char_bg_color)
{
     bf8:	defffa04 	addi	sp,sp,-24
     bfc:	dfc00515 	stw	ra,20(sp)
     c00:	df000415 	stw	fp,16(sp)
     c04:	df000404 	addi	fp,sp,16
     c08:	e13ffc15 	stw	r4,-16(fp)
     c0c:	e17ffd15 	stw	r5,-12(fp)
     c10:	e1bffe15 	stw	r6,-8(fp)
     c14:	3805883a 	mov	r2,r7
     c18:	e0bfff0d 	sth	r2,-4(fp)
  /* displaying character for the first time */
  VGA_char_box(x, y, char_bg_color);
     c1c:	e0bfff0f 	ldh	r2,-4(fp)
     c20:	100d883a 	mov	r6,r2
     c24:	e17ffd17 	ldw	r5,-12(fp)
     c28:	e13ffc17 	ldw	r4,-16(fp)
     c2c:	0000b540 	call	b54 <VGA_char_box>
  VGA_text(x, y, text_ptr);
     c30:	e1bffe17 	ldw	r6,-8(fp)
     c34:	e17ffd17 	ldw	r5,-12(fp)
     c38:	e13ffc17 	ldw	r4,-16(fp)
     c3c:	00009880 	call	988 <VGA_text>
}
     c40:	0001883a 	nop
     c44:	e037883a 	mov	sp,fp
     c48:	dfc00117 	ldw	ra,4(sp)
     c4c:	df000017 	ldw	fp,0(sp)
     c50:	dec00204 	addi	sp,sp,8
     c54:	f800283a 	ret

00000c58 <VGA_info_right>:
/* ************************************************************************** */
/*            Display Character and Pixel Configuration for Sidebar           */
/* ************************************************************************** */
void
VGA_info_right(int x, int y, char* text_ptr, short char_bg_color)
{
     c58:	defff904 	addi	sp,sp,-28
     c5c:	dfc00615 	stw	ra,24(sp)
     c60:	df000515 	stw	fp,20(sp)
     c64:	df000504 	addi	fp,sp,20
     c68:	e13ffc15 	stw	r4,-16(fp)
     c6c:	e17ffd15 	stw	r5,-12(fp)
     c70:	e1bffe15 	stw	r6,-8(fp)
     c74:	3805883a 	mov	r2,r7
     c78:	e0bfff0d 	sth	r2,-4(fp)
  int i = 0;
     c7c:	e03ffb15 	stw	zero,-20(fp)
  for (i = x; i < x + 10; i++)
     c80:	e0bffc17 	ldw	r2,-16(fp)
     c84:	e0bffb15 	stw	r2,-20(fp)
     c88:	00000806 	br	cac <VGA_info_right+0x54>
    VGA_char_box(i, y, char_bg_color);
     c8c:	e0bfff0f 	ldh	r2,-4(fp)
     c90:	100d883a 	mov	r6,r2
     c94:	e17ffd17 	ldw	r5,-12(fp)
     c98:	e13ffb17 	ldw	r4,-20(fp)
     c9c:	0000b540 	call	b54 <VGA_char_box>
/* ************************************************************************** */
void
VGA_info_right(int x, int y, char* text_ptr, short char_bg_color)
{
  int i = 0;
  for (i = x; i < x + 10; i++)
     ca0:	e0bffb17 	ldw	r2,-20(fp)
     ca4:	10800044 	addi	r2,r2,1
     ca8:	e0bffb15 	stw	r2,-20(fp)
     cac:	e0bffc17 	ldw	r2,-16(fp)
     cb0:	10800284 	addi	r2,r2,10
     cb4:	e0fffb17 	ldw	r3,-20(fp)
     cb8:	18bff416 	blt	r3,r2,c8c <VGA_info_right+0x34>
    VGA_char_box(i, y, char_bg_color);

  VGA_text(x, y, text_ptr);
     cbc:	e1bffe17 	ldw	r6,-8(fp)
     cc0:	e17ffd17 	ldw	r5,-12(fp)
     cc4:	e13ffc17 	ldw	r4,-16(fp)
     cc8:	00009880 	call	988 <VGA_text>
}
     ccc:	0001883a 	nop
     cd0:	e037883a 	mov	sp,fp
     cd4:	dfc00117 	ldw	ra,4(sp)
     cd8:	df000017 	ldw	fp,0(sp)
     cdc:	dec00204 	addi	sp,sp,8
     ce0:	f800283a 	ret

00000ce4 <resample_rgb>:
/* ************************************************************************** */
/*               Resamples 24-bit color to 16-bit or 8-bit color              */
/* ************************************************************************** */
int
resample_rgb(int num_bits, int color)
{
     ce4:	defffd04 	addi	sp,sp,-12
     ce8:	df000215 	stw	fp,8(sp)
     cec:	df000204 	addi	fp,sp,8
     cf0:	e13ffe15 	stw	r4,-8(fp)
     cf4:	e17fff15 	stw	r5,-4(fp)
  if (num_bits == 8) {
     cf8:	e0bffe17 	ldw	r2,-8(fp)
     cfc:	10800218 	cmpnei	r2,r2,8
     d00:	1000121e 	bne	r2,zero,d4c <resample_rgb+0x68>

    color = (((color >> 16) & 0x000000E0) | ((color >> 11) & 0x0000001C) |
     d04:	e0bfff17 	ldw	r2,-4(fp)
     d08:	1005d43a 	srai	r2,r2,16
     d0c:	10c0380c 	andi	r3,r2,224
     d10:	e0bfff17 	ldw	r2,-4(fp)
     d14:	1005d2fa 	srai	r2,r2,11
     d18:	1080070c 	andi	r2,r2,28
     d1c:	1886b03a 	or	r3,r3,r2
             ((color >> 6) & 0x00000003));
     d20:	e0bfff17 	ldw	r2,-4(fp)
     d24:	1005d1ba 	srai	r2,r2,6
     d28:	108000cc 	andi	r2,r2,3
int
resample_rgb(int num_bits, int color)
{
  if (num_bits == 8) {

    color = (((color >> 16) & 0x000000E0) | ((color >> 11) & 0x0000001C) |
     d2c:	1884b03a 	or	r2,r3,r2
     d30:	e0bfff15 	stw	r2,-4(fp)
             ((color >> 6) & 0x00000003));

    color = (color << 8) | color;
     d34:	e0bfff17 	ldw	r2,-4(fp)
     d38:	1004923a 	slli	r2,r2,8
     d3c:	e0ffff17 	ldw	r3,-4(fp)
     d40:	1884b03a 	or	r2,r3,r2
     d44:	e0bfff15 	stw	r2,-4(fp)
     d48:	00000f06 	br	d88 <resample_rgb+0xa4>

  } else if (num_bits == 16) {
     d4c:	e0bffe17 	ldw	r2,-8(fp)
     d50:	10800418 	cmpnei	r2,r2,16
     d54:	10000c1e 	bne	r2,zero,d88 <resample_rgb+0xa4>

    color = (((color >> 8) & 0x0000F800) | ((color >> 5) & 0x000007E0) |
     d58:	e0bfff17 	ldw	r2,-4(fp)
     d5c:	1005d23a 	srai	r2,r2,8
     d60:	10fe000c 	andi	r3,r2,63488
     d64:	e0bfff17 	ldw	r2,-4(fp)
     d68:	1005d17a 	srai	r2,r2,5
     d6c:	1081f80c 	andi	r2,r2,2016
     d70:	1886b03a 	or	r3,r3,r2
             ((color >> 3) & 0x0000001F));
     d74:	e0bfff17 	ldw	r2,-4(fp)
     d78:	1005d0fa 	srai	r2,r2,3
     d7c:	108007cc 	andi	r2,r2,31

    color = (color << 8) | color;

  } else if (num_bits == 16) {

    color = (((color >> 8) & 0x0000F800) | ((color >> 5) & 0x000007E0) |
     d80:	1884b03a 	or	r2,r3,r2
     d84:	e0bfff15 	stw	r2,-4(fp)
             ((color >> 3) & 0x0000001F));
  }

  return color;
     d88:	e0bfff17 	ldw	r2,-4(fp)
}
     d8c:	e037883a 	mov	sp,fp
     d90:	df000017 	ldw	fp,0(sp)
     d94:	dec00104 	addi	sp,sp,4
     d98:	f800283a 	ret

00000d9c <VGA_clear_screen>:

void
VGA_clear_screen(void)
{
     d9c:	defffc04 	addi	sp,sp,-16
     da0:	dfc00315 	stw	ra,12(sp)
     da4:	df000215 	stw	fp,8(sp)
     da8:	df000204 	addi	fp,sp,8
  debug("Clearing the screen");
     dac:	d0a00317 	ldw	r2,-32756(gp)
     db0:	10800317 	ldw	r2,12(r2)
     db4:	01c02604 	movi	r7,152
     db8:	018000b4 	movhi	r6,2
     dbc:	31b8e804 	addi	r6,r6,-7264
     dc0:	014000b4 	movhi	r5,2
     dc4:	29790d04 	addi	r5,r5,-7116
     dc8:	1009883a 	mov	r4,r2
     dcc:	00018780 	call	1878 <fprintf>
  VGA_box(0, 0, STANDARD_X, STANDARD_Y, 0); /* clear the screen */
     dd0:	d8000015 	stw	zero,0(sp)
     dd4:	01c03c04 	movi	r7,240
     dd8:	01805004 	movi	r6,320
     ddc:	000b883a 	mov	r5,zero
     de0:	0009883a 	mov	r4,zero
     de4:	0000a1c0 	call	a1c <VGA_box>

  /* clearing all characters from the screen */
  for (int i = 0; i < 60; i++)
     de8:	e03fff15 	stw	zero,-4(fp)
     dec:	00000806 	br	e10 <VGA_clear_screen+0x74>
    VGA_text(0, i, clear_row_text);
     df0:	018000b4 	movhi	r6,2
     df4:	31bc9404 	addi	r6,r6,-3504
     df8:	e17fff17 	ldw	r5,-4(fp)
     dfc:	0009883a 	mov	r4,zero
     e00:	00009880 	call	988 <VGA_text>
{
  debug("Clearing the screen");
  VGA_box(0, 0, STANDARD_X, STANDARD_Y, 0); /* clear the screen */

  /* clearing all characters from the screen */
  for (int i = 0; i < 60; i++)
     e04:	e0bfff17 	ldw	r2,-4(fp)
     e08:	10800044 	addi	r2,r2,1
     e0c:	e0bfff15 	stw	r2,-4(fp)
     e10:	e0bfff17 	ldw	r2,-4(fp)
     e14:	10800f10 	cmplti	r2,r2,60
     e18:	103ff51e 	bne	r2,zero,df0 <VGA_clear_screen+0x54>
    VGA_text(0, i, clear_row_text);
}
     e1c:	0001883a 	nop
     e20:	e037883a 	mov	sp,fp
     e24:	dfc00117 	ldw	ra,4(sp)
     e28:	df000017 	ldw	fp,0(sp)
     e2c:	dec00204 	addi	sp,sp,8
     e30:	f800283a 	ret

00000e34 <get_data_bits>:
/*                 Finds the number of data bits from the mode                */
/* ************************************************************************** */

int
get_data_bits(int mode)
{
     e34:	defffe04 	addi	sp,sp,-8
     e38:	df000115 	stw	fp,4(sp)
     e3c:	df000104 	addi	fp,sp,4
     e40:	e13fff15 	stw	r4,-4(fp)
  switch (mode) {
     e44:	e0bfff17 	ldw	r2,-4(fp)
     e48:	10800ea8 	cmpgeui	r2,r2,58
     e4c:	1000591e 	bne	r2,zero,fb4 <get_data_bits+0x180>
     e50:	e0bfff17 	ldw	r2,-4(fp)
     e54:	100690ba 	slli	r3,r2,2
     e58:	00800034 	movhi	r2,0
     e5c:	10839b04 	addi	r2,r2,3692
     e60:	1885883a 	add	r2,r3,r2
     e64:	10800017 	ldw	r2,0(r2)
     e68:	1000683a 	jmp	r2
     e6c:	00000f54 	movui	zero,61
     e70:	00000fb4 	movhi	zero,62
     e74:	00000fb4 	movhi	zero,62
     e78:	00000fb4 	movhi	zero,62
     e7c:	00000fb4 	movhi	zero,62
     e80:	00000fb4 	movhi	zero,62
     e84:	00000fb4 	movhi	zero,62
     e88:	00000f5c 	xori	zero,zero,61
     e8c:	00000fb4 	movhi	zero,62
     e90:	00000fb4 	movhi	zero,62
     e94:	00000fb4 	movhi	zero,62
     e98:	00000fb4 	movhi	zero,62
     e9c:	00000fb4 	movhi	zero,62
     ea0:	00000fb4 	movhi	zero,62
     ea4:	00000fb4 	movhi	zero,62
     ea8:	00000fb4 	movhi	zero,62
     eac:	00000fb4 	movhi	zero,62
     eb0:	00000f64 	muli	zero,zero,61
     eb4:	00000f6c 	andhi	zero,zero,61
     eb8:	00000fb4 	movhi	zero,62
     ebc:	00000f74 	movhi	zero,61
     ec0:	00000fb4 	movhi	zero,62
     ec4:	00000fb4 	movhi	zero,62
     ec8:	00000f7c 	xorhi	zero,zero,61
     ecc:	00000fb4 	movhi	zero,62
     ed0:	00000f84 	movi	zero,62
     ed4:	00000fb4 	movhi	zero,62
     ed8:	00000fb4 	movhi	zero,62
     edc:	00000fb4 	movhi	zero,62
     ee0:	00000fb4 	movhi	zero,62
     ee4:	00000fb4 	movhi	zero,62
     ee8:	00000fb4 	movhi	zero,62
     eec:	00000fb4 	movhi	zero,62
     ef0:	00000fb4 	movhi	zero,62
     ef4:	00000fb4 	movhi	zero,62
     ef8:	00000fb4 	movhi	zero,62
     efc:	00000fb4 	movhi	zero,62
     f00:	00000fb4 	movhi	zero,62
     f04:	00000fb4 	movhi	zero,62
     f08:	00000fb4 	movhi	zero,62
     f0c:	00000fb4 	movhi	zero,62
     f10:	00000fb4 	movhi	zero,62
     f14:	00000fb4 	movhi	zero,62
     f18:	00000fb4 	movhi	zero,62
     f1c:	00000fb4 	movhi	zero,62
     f20:	00000fb4 	movhi	zero,62
     f24:	00000fb4 	movhi	zero,62
     f28:	00000fb4 	movhi	zero,62
     f2c:	00000fb4 	movhi	zero,62
     f30:	00000f8c 	andi	zero,zero,62
     f34:	00000f94 	movui	zero,62
     f38:	00000f9c 	xori	zero,zero,62
     f3c:	00000fb4 	movhi	zero,62
     f40:	00000fb4 	movhi	zero,62
     f44:	00000fb4 	movhi	zero,62
     f48:	00000fa4 	muli	zero,zero,62
     f4c:	00000fb4 	movhi	zero,62
     f50:	00000fac 	andhi	zero,zero,62
    case 0x0:
      return 1;
     f54:	00800044 	movi	r2,1
     f58:	00001606 	br	fb4 <get_data_bits+0x180>
    case 0x7:
      return 8;
     f5c:	00800204 	movi	r2,8
     f60:	00001406 	br	fb4 <get_data_bits+0x180>
    case 0x11:
      return 8;
     f64:	00800204 	movi	r2,8
     f68:	00001206 	br	fb4 <get_data_bits+0x180>
    case 0x12:
      return 9;
     f6c:	00800244 	movi	r2,9
     f70:	00001006 	br	fb4 <get_data_bits+0x180>
    case 0x14:
      return 16;
     f74:	00800404 	movi	r2,16
     f78:	00000e06 	br	fb4 <get_data_bits+0x180>
    case 0x17:
      return 24;
     f7c:	00800604 	movi	r2,24
     f80:	00000c06 	br	fb4 <get_data_bits+0x180>
    case 0x19:
      return 30;
     f84:	00800784 	movi	r2,30
     f88:	00000a06 	br	fb4 <get_data_bits+0x180>
    case 0x31:
      return 8;
     f8c:	00800204 	movi	r2,8
     f90:	00000806 	br	fb4 <get_data_bits+0x180>
    case 0x32:
      return 12;
     f94:	00800304 	movi	r2,12
     f98:	00000606 	br	fb4 <get_data_bits+0x180>
    case 0x33:
      return 16;
     f9c:	00800404 	movi	r2,16
     fa0:	00000406 	br	fb4 <get_data_bits+0x180>
    case 0x37:
      return 32;
     fa4:	00800804 	movi	r2,32
     fa8:	00000206 	br	fb4 <get_data_bits+0x180>
    case 0x39:
      return 40;
     fac:	00800a04 	movi	r2,40
     fb0:	00000006 	br	fb4 <get_data_bits+0x180>
  }
}
     fb4:	e037883a 	mov	sp,fp
     fb8:	df000017 	ldw	fp,0(sp)
     fbc:	dec00104 	addi	sp,sp,4
     fc0:	f800283a 	ret

00000fc4 <VGA_display_sidebar>:
/*                            Display Right Sidebar                           */
/* ************************************************************************** */

void
VGA_display_sidebar(short sidebar_color)
{
     fc4:	defffd04 	addi	sp,sp,-12
     fc8:	dfc00215 	stw	ra,8(sp)
     fcc:	df000115 	stw	fp,4(sp)
     fd0:	df000104 	addi	fp,sp,4
     fd4:	2005883a 	mov	r2,r4
     fd8:	e0bfff0d 	sth	r2,-4(fp)
  VGA_info_right(70, 0, "          ", sidebar_color);
     fdc:	e0bfff0f 	ldh	r2,-4(fp)
     fe0:	100f883a 	mov	r7,r2
     fe4:	018000b4 	movhi	r6,2
     fe8:	31b91604 	addi	r6,r6,-7080
     fec:	000b883a 	mov	r5,zero
     ff0:	01001184 	movi	r4,70
     ff4:	0000c580 	call	c58 <VGA_info_right>
  VGA_info_right(70, 1, " CATCH    ", sidebar_color);
     ff8:	e0bfff0f 	ldh	r2,-4(fp)
     ffc:	100f883a 	mov	r7,r2
    1000:	018000b4 	movhi	r6,2
    1004:	31b91904 	addi	r6,r6,-7068
    1008:	01400044 	movi	r5,1
    100c:	01001184 	movi	r4,70
    1010:	0000c580 	call	c58 <VGA_info_right>
  VGA_info_right(70, 2, " THE      ", sidebar_color);
    1014:	e0bfff0f 	ldh	r2,-4(fp)
    1018:	100f883a 	mov	r7,r2
    101c:	018000b4 	movhi	r6,2
    1020:	31b91c04 	addi	r6,r6,-7056
    1024:	01400084 	movi	r5,2
    1028:	01001184 	movi	r4,70
    102c:	0000c580 	call	c58 <VGA_info_right>
  VGA_info_right(70, 3, " NUMBERS! ", sidebar_color);
    1030:	e0bfff0f 	ldh	r2,-4(fp)
    1034:	100f883a 	mov	r7,r2
    1038:	018000b4 	movhi	r6,2
    103c:	31b91f04 	addi	r6,r6,-7044
    1040:	014000c4 	movi	r5,3
    1044:	01001184 	movi	r4,70
    1048:	0000c580 	call	c58 <VGA_info_right>
  VGA_info_right(70, 4, "          ", sidebar_color);
    104c:	e0bfff0f 	ldh	r2,-4(fp)
    1050:	100f883a 	mov	r7,r2
    1054:	018000b4 	movhi	r6,2
    1058:	31b91604 	addi	r6,r6,-7080
    105c:	01400104 	movi	r5,4
    1060:	01001184 	movi	r4,70
    1064:	0000c580 	call	c58 <VGA_info_right>
  VGA_info_right(70, 5, " SCORE:   ", sidebar_color);
    1068:	e0bfff0f 	ldh	r2,-4(fp)
    106c:	100f883a 	mov	r7,r2
    1070:	018000b4 	movhi	r6,2
    1074:	31b92204 	addi	r6,r6,-7032
    1078:	01400144 	movi	r5,5
    107c:	01001184 	movi	r4,70
    1080:	0000c580 	call	c58 <VGA_info_right>
  VGA_info_right(70, 6, "        0 ", sidebar_color);
    1084:	e0bfff0f 	ldh	r2,-4(fp)
    1088:	100f883a 	mov	r7,r2
    108c:	018000b4 	movhi	r6,2
    1090:	31b92504 	addi	r6,r6,-7020
    1094:	01400184 	movi	r5,6
    1098:	01001184 	movi	r4,70
    109c:	0000c580 	call	c58 <VGA_info_right>
  VGA_info_right(70, 7, "          ", sidebar_color);
    10a0:	e0bfff0f 	ldh	r2,-4(fp)
    10a4:	100f883a 	mov	r7,r2
    10a8:	018000b4 	movhi	r6,2
    10ac:	31b91604 	addi	r6,r6,-7080
    10b0:	014001c4 	movi	r5,7
    10b4:	01001184 	movi	r4,70
    10b8:	0000c580 	call	c58 <VGA_info_right>
  VGA_info_right(70, 8, " TIME:    ", sidebar_color);
    10bc:	e0bfff0f 	ldh	r2,-4(fp)
    10c0:	100f883a 	mov	r7,r2
    10c4:	018000b4 	movhi	r6,2
    10c8:	31b92804 	addi	r6,r6,-7008
    10cc:	01400204 	movi	r5,8
    10d0:	01001184 	movi	r4,70
    10d4:	0000c580 	call	c58 <VGA_info_right>
  VGA_info_right(70, 9, " 00:00:00 ", sidebar_color);
    10d8:	e0bfff0f 	ldh	r2,-4(fp)
    10dc:	100f883a 	mov	r7,r2
    10e0:	018000b4 	movhi	r6,2
    10e4:	31b92b04 	addi	r6,r6,-6996
    10e8:	01400244 	movi	r5,9
    10ec:	01001184 	movi	r4,70
    10f0:	0000c580 	call	c58 <VGA_info_right>
  VGA_info_right(70, 10, "          ", sidebar_color);
    10f4:	e0bfff0f 	ldh	r2,-4(fp)
    10f8:	100f883a 	mov	r7,r2
    10fc:	018000b4 	movhi	r6,2
    1100:	31b91604 	addi	r6,r6,-7080
    1104:	01400284 	movi	r5,10
    1108:	01001184 	movi	r4,70
    110c:	0000c580 	call	c58 <VGA_info_right>
  VGA_info_right(70, 11, "          ", sidebar_color);
    1110:	e0bfff0f 	ldh	r2,-4(fp)
    1114:	100f883a 	mov	r7,r2
    1118:	018000b4 	movhi	r6,2
    111c:	31b91604 	addi	r6,r6,-7080
    1120:	014002c4 	movi	r5,11
    1124:	01001184 	movi	r4,70
    1128:	0000c580 	call	c58 <VGA_info_right>
  VGA_info_right(70, 12, "          ", sidebar_color);
    112c:	e0bfff0f 	ldh	r2,-4(fp)
    1130:	100f883a 	mov	r7,r2
    1134:	018000b4 	movhi	r6,2
    1138:	31b91604 	addi	r6,r6,-7080
    113c:	01400304 	movi	r5,12
    1140:	01001184 	movi	r4,70
    1144:	0000c580 	call	c58 <VGA_info_right>
  VGA_info_right(70, 13, "          ", sidebar_color);
    1148:	e0bfff0f 	ldh	r2,-4(fp)
    114c:	100f883a 	mov	r7,r2
    1150:	018000b4 	movhi	r6,2
    1154:	31b91604 	addi	r6,r6,-7080
    1158:	01400344 	movi	r5,13
    115c:	01001184 	movi	r4,70
    1160:	0000c580 	call	c58 <VGA_info_right>
  VGA_info_right(70, 14, "          ", sidebar_color);
    1164:	e0bfff0f 	ldh	r2,-4(fp)
    1168:	100f883a 	mov	r7,r2
    116c:	018000b4 	movhi	r6,2
    1170:	31b91604 	addi	r6,r6,-7080
    1174:	01400384 	movi	r5,14
    1178:	01001184 	movi	r4,70
    117c:	0000c580 	call	c58 <VGA_info_right>
  VGA_info_right(70, 15, "          ", sidebar_color);
    1180:	e0bfff0f 	ldh	r2,-4(fp)
    1184:	100f883a 	mov	r7,r2
    1188:	018000b4 	movhi	r6,2
    118c:	31b91604 	addi	r6,r6,-7080
    1190:	014003c4 	movi	r5,15
    1194:	01001184 	movi	r4,70
    1198:	0000c580 	call	c58 <VGA_info_right>
  VGA_info_right(70, 16, "          ", sidebar_color);
    119c:	e0bfff0f 	ldh	r2,-4(fp)
    11a0:	100f883a 	mov	r7,r2
    11a4:	018000b4 	movhi	r6,2
    11a8:	31b91604 	addi	r6,r6,-7080
    11ac:	01400404 	movi	r5,16
    11b0:	01001184 	movi	r4,70
    11b4:	0000c580 	call	c58 <VGA_info_right>
  VGA_info_right(70, 17, "          ", sidebar_color);
    11b8:	e0bfff0f 	ldh	r2,-4(fp)
    11bc:	100f883a 	mov	r7,r2
    11c0:	018000b4 	movhi	r6,2
    11c4:	31b91604 	addi	r6,r6,-7080
    11c8:	01400444 	movi	r5,17
    11cc:	01001184 	movi	r4,70
    11d0:	0000c580 	call	c58 <VGA_info_right>
  VGA_info_right(70, 18, "          ", sidebar_color);
    11d4:	e0bfff0f 	ldh	r2,-4(fp)
    11d8:	100f883a 	mov	r7,r2
    11dc:	018000b4 	movhi	r6,2
    11e0:	31b91604 	addi	r6,r6,-7080
    11e4:	01400484 	movi	r5,18
    11e8:	01001184 	movi	r4,70
    11ec:	0000c580 	call	c58 <VGA_info_right>
  VGA_info_right(70, 19, "          ", sidebar_color);
    11f0:	e0bfff0f 	ldh	r2,-4(fp)
    11f4:	100f883a 	mov	r7,r2
    11f8:	018000b4 	movhi	r6,2
    11fc:	31b91604 	addi	r6,r6,-7080
    1200:	014004c4 	movi	r5,19
    1204:	01001184 	movi	r4,70
    1208:	0000c580 	call	c58 <VGA_info_right>
  VGA_info_right(70, 20, "          ", sidebar_color);
    120c:	e0bfff0f 	ldh	r2,-4(fp)
    1210:	100f883a 	mov	r7,r2
    1214:	018000b4 	movhi	r6,2
    1218:	31b91604 	addi	r6,r6,-7080
    121c:	01400504 	movi	r5,20
    1220:	01001184 	movi	r4,70
    1224:	0000c580 	call	c58 <VGA_info_right>
  VGA_info_right(70, 21, "          ", sidebar_color);
    1228:	e0bfff0f 	ldh	r2,-4(fp)
    122c:	100f883a 	mov	r7,r2
    1230:	018000b4 	movhi	r6,2
    1234:	31b91604 	addi	r6,r6,-7080
    1238:	01400544 	movi	r5,21
    123c:	01001184 	movi	r4,70
    1240:	0000c580 	call	c58 <VGA_info_right>
  VGA_info_right(70, 22, "          ", sidebar_color);
    1244:	e0bfff0f 	ldh	r2,-4(fp)
    1248:	100f883a 	mov	r7,r2
    124c:	018000b4 	movhi	r6,2
    1250:	31b91604 	addi	r6,r6,-7080
    1254:	01400584 	movi	r5,22
    1258:	01001184 	movi	r4,70
    125c:	0000c580 	call	c58 <VGA_info_right>
  VGA_info_right(70, 23, "          ", sidebar_color);
    1260:	e0bfff0f 	ldh	r2,-4(fp)
    1264:	100f883a 	mov	r7,r2
    1268:	018000b4 	movhi	r6,2
    126c:	31b91604 	addi	r6,r6,-7080
    1270:	014005c4 	movi	r5,23
    1274:	01001184 	movi	r4,70
    1278:	0000c580 	call	c58 <VGA_info_right>
  VGA_info_right(70, 24, "          ", sidebar_color);
    127c:	e0bfff0f 	ldh	r2,-4(fp)
    1280:	100f883a 	mov	r7,r2
    1284:	018000b4 	movhi	r6,2
    1288:	31b91604 	addi	r6,r6,-7080
    128c:	01400604 	movi	r5,24
    1290:	01001184 	movi	r4,70
    1294:	0000c580 	call	c58 <VGA_info_right>
  VGA_info_right(70, 25, "          ", sidebar_color);
    1298:	e0bfff0f 	ldh	r2,-4(fp)
    129c:	100f883a 	mov	r7,r2
    12a0:	018000b4 	movhi	r6,2
    12a4:	31b91604 	addi	r6,r6,-7080
    12a8:	01400644 	movi	r5,25
    12ac:	01001184 	movi	r4,70
    12b0:	0000c580 	call	c58 <VGA_info_right>
  VGA_info_right(70, 26, "          ", sidebar_color);
    12b4:	e0bfff0f 	ldh	r2,-4(fp)
    12b8:	100f883a 	mov	r7,r2
    12bc:	018000b4 	movhi	r6,2
    12c0:	31b91604 	addi	r6,r6,-7080
    12c4:	01400684 	movi	r5,26
    12c8:	01001184 	movi	r4,70
    12cc:	0000c580 	call	c58 <VGA_info_right>
  VGA_info_right(70, 27, "          ", sidebar_color);
    12d0:	e0bfff0f 	ldh	r2,-4(fp)
    12d4:	100f883a 	mov	r7,r2
    12d8:	018000b4 	movhi	r6,2
    12dc:	31b91604 	addi	r6,r6,-7080
    12e0:	014006c4 	movi	r5,27
    12e4:	01001184 	movi	r4,70
    12e8:	0000c580 	call	c58 <VGA_info_right>
  VGA_info_right(70, 28, "          ", sidebar_color);
    12ec:	e0bfff0f 	ldh	r2,-4(fp)
    12f0:	100f883a 	mov	r7,r2
    12f4:	018000b4 	movhi	r6,2
    12f8:	31b91604 	addi	r6,r6,-7080
    12fc:	01400704 	movi	r5,28
    1300:	01001184 	movi	r4,70
    1304:	0000c580 	call	c58 <VGA_info_right>
  VGA_info_right(70, 29, "          ", sidebar_color);
    1308:	e0bfff0f 	ldh	r2,-4(fp)
    130c:	100f883a 	mov	r7,r2
    1310:	018000b4 	movhi	r6,2
    1314:	31b91604 	addi	r6,r6,-7080
    1318:	01400744 	movi	r5,29
    131c:	01001184 	movi	r4,70
    1320:	0000c580 	call	c58 <VGA_info_right>
  VGA_info_right(70, 30, "          ", sidebar_color);
    1324:	e0bfff0f 	ldh	r2,-4(fp)
    1328:	100f883a 	mov	r7,r2
    132c:	018000b4 	movhi	r6,2
    1330:	31b91604 	addi	r6,r6,-7080
    1334:	01400784 	movi	r5,30
    1338:	01001184 	movi	r4,70
    133c:	0000c580 	call	c58 <VGA_info_right>
  VGA_info_right(70, 31, "          ", sidebar_color);
    1340:	e0bfff0f 	ldh	r2,-4(fp)
    1344:	100f883a 	mov	r7,r2
    1348:	018000b4 	movhi	r6,2
    134c:	31b91604 	addi	r6,r6,-7080
    1350:	014007c4 	movi	r5,31
    1354:	01001184 	movi	r4,70
    1358:	0000c580 	call	c58 <VGA_info_right>
  VGA_info_right(70, 32, "          ", sidebar_color);
    135c:	e0bfff0f 	ldh	r2,-4(fp)
    1360:	100f883a 	mov	r7,r2
    1364:	018000b4 	movhi	r6,2
    1368:	31b91604 	addi	r6,r6,-7080
    136c:	01400804 	movi	r5,32
    1370:	01001184 	movi	r4,70
    1374:	0000c580 	call	c58 <VGA_info_right>
  VGA_info_right(70, 33, "          ", sidebar_color);
    1378:	e0bfff0f 	ldh	r2,-4(fp)
    137c:	100f883a 	mov	r7,r2
    1380:	018000b4 	movhi	r6,2
    1384:	31b91604 	addi	r6,r6,-7080
    1388:	01400844 	movi	r5,33
    138c:	01001184 	movi	r4,70
    1390:	0000c580 	call	c58 <VGA_info_right>
  VGA_info_right(70, 34, "          ", sidebar_color);
    1394:	e0bfff0f 	ldh	r2,-4(fp)
    1398:	100f883a 	mov	r7,r2
    139c:	018000b4 	movhi	r6,2
    13a0:	31b91604 	addi	r6,r6,-7080
    13a4:	01400884 	movi	r5,34
    13a8:	01001184 	movi	r4,70
    13ac:	0000c580 	call	c58 <VGA_info_right>
  VGA_info_right(70, 35, "          ", sidebar_color);
    13b0:	e0bfff0f 	ldh	r2,-4(fp)
    13b4:	100f883a 	mov	r7,r2
    13b8:	018000b4 	movhi	r6,2
    13bc:	31b91604 	addi	r6,r6,-7080
    13c0:	014008c4 	movi	r5,35
    13c4:	01001184 	movi	r4,70
    13c8:	0000c580 	call	c58 <VGA_info_right>
  VGA_info_right(70, 36, "          ", sidebar_color);
    13cc:	e0bfff0f 	ldh	r2,-4(fp)
    13d0:	100f883a 	mov	r7,r2
    13d4:	018000b4 	movhi	r6,2
    13d8:	31b91604 	addi	r6,r6,-7080
    13dc:	01400904 	movi	r5,36
    13e0:	01001184 	movi	r4,70
    13e4:	0000c580 	call	c58 <VGA_info_right>
  VGA_info_right(70, 37, "          ", sidebar_color);
    13e8:	e0bfff0f 	ldh	r2,-4(fp)
    13ec:	100f883a 	mov	r7,r2
    13f0:	018000b4 	movhi	r6,2
    13f4:	31b91604 	addi	r6,r6,-7080
    13f8:	01400944 	movi	r5,37
    13fc:	01001184 	movi	r4,70
    1400:	0000c580 	call	c58 <VGA_info_right>
  VGA_info_right(70, 38, "          ", sidebar_color);
    1404:	e0bfff0f 	ldh	r2,-4(fp)
    1408:	100f883a 	mov	r7,r2
    140c:	018000b4 	movhi	r6,2
    1410:	31b91604 	addi	r6,r6,-7080
    1414:	01400984 	movi	r5,38
    1418:	01001184 	movi	r4,70
    141c:	0000c580 	call	c58 <VGA_info_right>
  VGA_info_right(70, 39, "          ", sidebar_color);
    1420:	e0bfff0f 	ldh	r2,-4(fp)
    1424:	100f883a 	mov	r7,r2
    1428:	018000b4 	movhi	r6,2
    142c:	31b91604 	addi	r6,r6,-7080
    1430:	014009c4 	movi	r5,39
    1434:	01001184 	movi	r4,70
    1438:	0000c580 	call	c58 <VGA_info_right>
  VGA_info_right(70, 40, "          ", sidebar_color);
    143c:	e0bfff0f 	ldh	r2,-4(fp)
    1440:	100f883a 	mov	r7,r2
    1444:	018000b4 	movhi	r6,2
    1448:	31b91604 	addi	r6,r6,-7080
    144c:	01400a04 	movi	r5,40
    1450:	01001184 	movi	r4,70
    1454:	0000c580 	call	c58 <VGA_info_right>
  VGA_info_right(70, 41, "          ", sidebar_color);
    1458:	e0bfff0f 	ldh	r2,-4(fp)
    145c:	100f883a 	mov	r7,r2
    1460:	018000b4 	movhi	r6,2
    1464:	31b91604 	addi	r6,r6,-7080
    1468:	01400a44 	movi	r5,41
    146c:	01001184 	movi	r4,70
    1470:	0000c580 	call	c58 <VGA_info_right>
  VGA_info_right(70, 42, "          ", sidebar_color);
    1474:	e0bfff0f 	ldh	r2,-4(fp)
    1478:	100f883a 	mov	r7,r2
    147c:	018000b4 	movhi	r6,2
    1480:	31b91604 	addi	r6,r6,-7080
    1484:	01400a84 	movi	r5,42
    1488:	01001184 	movi	r4,70
    148c:	0000c580 	call	c58 <VGA_info_right>
  VGA_info_right(70, 43, "          ", sidebar_color);
    1490:	e0bfff0f 	ldh	r2,-4(fp)
    1494:	100f883a 	mov	r7,r2
    1498:	018000b4 	movhi	r6,2
    149c:	31b91604 	addi	r6,r6,-7080
    14a0:	01400ac4 	movi	r5,43
    14a4:	01001184 	movi	r4,70
    14a8:	0000c580 	call	c58 <VGA_info_right>
  VGA_info_right(70, 44, "          ", sidebar_color);
    14ac:	e0bfff0f 	ldh	r2,-4(fp)
    14b0:	100f883a 	mov	r7,r2
    14b4:	018000b4 	movhi	r6,2
    14b8:	31b91604 	addi	r6,r6,-7080
    14bc:	01400b04 	movi	r5,44
    14c0:	01001184 	movi	r4,70
    14c4:	0000c580 	call	c58 <VGA_info_right>
  VGA_info_right(70, 45, "          ", sidebar_color);
    14c8:	e0bfff0f 	ldh	r2,-4(fp)
    14cc:	100f883a 	mov	r7,r2
    14d0:	018000b4 	movhi	r6,2
    14d4:	31b91604 	addi	r6,r6,-7080
    14d8:	01400b44 	movi	r5,45
    14dc:	01001184 	movi	r4,70
    14e0:	0000c580 	call	c58 <VGA_info_right>
  VGA_info_right(70, 46, "          ", sidebar_color);
    14e4:	e0bfff0f 	ldh	r2,-4(fp)
    14e8:	100f883a 	mov	r7,r2
    14ec:	018000b4 	movhi	r6,2
    14f0:	31b91604 	addi	r6,r6,-7080
    14f4:	01400b84 	movi	r5,46
    14f8:	01001184 	movi	r4,70
    14fc:	0000c580 	call	c58 <VGA_info_right>
  VGA_info_right(70, 47, "          ", sidebar_color);
    1500:	e0bfff0f 	ldh	r2,-4(fp)
    1504:	100f883a 	mov	r7,r2
    1508:	018000b4 	movhi	r6,2
    150c:	31b91604 	addi	r6,r6,-7080
    1510:	01400bc4 	movi	r5,47
    1514:	01001184 	movi	r4,70
    1518:	0000c580 	call	c58 <VGA_info_right>
  VGA_info_right(70, 48, "          ", sidebar_color);
    151c:	e0bfff0f 	ldh	r2,-4(fp)
    1520:	100f883a 	mov	r7,r2
    1524:	018000b4 	movhi	r6,2
    1528:	31b91604 	addi	r6,r6,-7080
    152c:	01400c04 	movi	r5,48
    1530:	01001184 	movi	r4,70
    1534:	0000c580 	call	c58 <VGA_info_right>
  VGA_info_right(70, 49, "          ", sidebar_color);
    1538:	e0bfff0f 	ldh	r2,-4(fp)
    153c:	100f883a 	mov	r7,r2
    1540:	018000b4 	movhi	r6,2
    1544:	31b91604 	addi	r6,r6,-7080
    1548:	01400c44 	movi	r5,49
    154c:	01001184 	movi	r4,70
    1550:	0000c580 	call	c58 <VGA_info_right>
  VGA_info_right(70, 50, "          ", sidebar_color);
    1554:	e0bfff0f 	ldh	r2,-4(fp)
    1558:	100f883a 	mov	r7,r2
    155c:	018000b4 	movhi	r6,2
    1560:	31b91604 	addi	r6,r6,-7080
    1564:	01400c84 	movi	r5,50
    1568:	01001184 	movi	r4,70
    156c:	0000c580 	call	c58 <VGA_info_right>
  VGA_info_right(70, 51, "          ", sidebar_color);
    1570:	e0bfff0f 	ldh	r2,-4(fp)
    1574:	100f883a 	mov	r7,r2
    1578:	018000b4 	movhi	r6,2
    157c:	31b91604 	addi	r6,r6,-7080
    1580:	01400cc4 	movi	r5,51
    1584:	01001184 	movi	r4,70
    1588:	0000c580 	call	c58 <VGA_info_right>
  VGA_info_right(70, 52, "          ", sidebar_color);
    158c:	e0bfff0f 	ldh	r2,-4(fp)
    1590:	100f883a 	mov	r7,r2
    1594:	018000b4 	movhi	r6,2
    1598:	31b91604 	addi	r6,r6,-7080
    159c:	01400d04 	movi	r5,52
    15a0:	01001184 	movi	r4,70
    15a4:	0000c580 	call	c58 <VGA_info_right>
  VGA_info_right(70, 53, "          ", sidebar_color);
    15a8:	e0bfff0f 	ldh	r2,-4(fp)
    15ac:	100f883a 	mov	r7,r2
    15b0:	018000b4 	movhi	r6,2
    15b4:	31b91604 	addi	r6,r6,-7080
    15b8:	01400d44 	movi	r5,53
    15bc:	01001184 	movi	r4,70
    15c0:	0000c580 	call	c58 <VGA_info_right>
  VGA_info_right(70, 54, "          ", sidebar_color);
    15c4:	e0bfff0f 	ldh	r2,-4(fp)
    15c8:	100f883a 	mov	r7,r2
    15cc:	018000b4 	movhi	r6,2
    15d0:	31b91604 	addi	r6,r6,-7080
    15d4:	01400d84 	movi	r5,54
    15d8:	01001184 	movi	r4,70
    15dc:	0000c580 	call	c58 <VGA_info_right>
  VGA_info_right(70, 55, "          ", sidebar_color);
    15e0:	e0bfff0f 	ldh	r2,-4(fp)
    15e4:	100f883a 	mov	r7,r2
    15e8:	018000b4 	movhi	r6,2
    15ec:	31b91604 	addi	r6,r6,-7080
    15f0:	01400dc4 	movi	r5,55
    15f4:	01001184 	movi	r4,70
    15f8:	0000c580 	call	c58 <VGA_info_right>
  VGA_info_right(70, 56, " PRESS    ", sidebar_color);
    15fc:	e0bfff0f 	ldh	r2,-4(fp)
    1600:	100f883a 	mov	r7,r2
    1604:	018000b4 	movhi	r6,2
    1608:	31b92e04 	addi	r6,r6,-6984
    160c:	01400e04 	movi	r5,56
    1610:	01001184 	movi	r4,70
    1614:	0000c580 	call	c58 <VGA_info_right>
  VGA_info_right(70, 57, "  ESC     ", sidebar_color);
    1618:	e0bfff0f 	ldh	r2,-4(fp)
    161c:	100f883a 	mov	r7,r2
    1620:	018000b4 	movhi	r6,2
    1624:	31b93104 	addi	r6,r6,-6972
    1628:	01400e44 	movi	r5,57
    162c:	01001184 	movi	r4,70
    1630:	0000c580 	call	c58 <VGA_info_right>
  VGA_info_right(70, 58, " TO QUIT  ", sidebar_color);
    1634:	e0bfff0f 	ldh	r2,-4(fp)
    1638:	100f883a 	mov	r7,r2
    163c:	018000b4 	movhi	r6,2
    1640:	31b93404 	addi	r6,r6,-6960
    1644:	01400e84 	movi	r5,58
    1648:	01001184 	movi	r4,70
    164c:	0000c580 	call	c58 <VGA_info_right>
  VGA_info_right(70, 59, "          ", sidebar_color);
    1650:	e0bfff0f 	ldh	r2,-4(fp)
    1654:	100f883a 	mov	r7,r2
    1658:	018000b4 	movhi	r6,2
    165c:	31b91604 	addi	r6,r6,-7080
    1660:	01400ec4 	movi	r5,59
    1664:	01001184 	movi	r4,70
    1668:	0000c580 	call	c58 <VGA_info_right>
}
    166c:	0001883a 	nop
    1670:	e037883a 	mov	sp,fp
    1674:	dfc00117 	ldw	ra,4(sp)
    1678:	df000017 	ldw	fp,0(sp)
    167c:	dec00204 	addi	sp,sp,8
    1680:	f800283a 	ret

00001684 <VGA_gametime_display>:
/* ************************************************************************** */
/*                              Display Game Time                             */
/* ************************************************************************** */
void
VGA_gametime_display(int hour, int minute, int second)
{
    1684:	defff404 	addi	sp,sp,-48
    1688:	dfc00b15 	stw	ra,44(sp)
    168c:	df000a15 	stw	fp,40(sp)
    1690:	dc000915 	stw	r16,36(sp)
    1694:	df000a04 	addi	fp,sp,40
    1698:	e13ffc15 	stw	r4,-16(fp)
    169c:	e17ffd15 	stw	r5,-12(fp)
    16a0:	e1bffe15 	stw	r6,-8(fp)
  char buffer[10];

  int cx;
  cx = snprintf(buffer, 10, " %02d:%02d:%02d\0", game_hh, game_mm, game_ss);
    16a4:	d167eb17 	ldw	r5,-24660(gp)
    16a8:	d0a7ee17 	ldw	r2,-24648(gp)
    16ac:	d0e7f017 	ldw	r3,-24640(gp)
    16b0:	e13ff904 	addi	r4,fp,-28
    16b4:	d8c00115 	stw	r3,4(sp)
    16b8:	d8800015 	stw	r2,0(sp)
    16bc:	280f883a 	mov	r7,r5
    16c0:	018000b4 	movhi	r6,2
    16c4:	31b93704 	addi	r6,r6,-6948
    16c8:	01400284 	movi	r5,10
    16cc:	00019740 	call	1974 <snprintf>
    16d0:	e0bff815 	stw	r2,-32(fp)

  debug("buffer: %s", buffer);
    16d4:	d0a00317 	ldw	r2,-32756(gp)
    16d8:	10c00317 	ldw	r3,12(r2)
    16dc:	e0bff904 	addi	r2,fp,-28
    16e0:	d8800015 	stw	r2,0(sp)
    16e4:	01c044c4 	movi	r7,275
    16e8:	018000b4 	movhi	r6,2
    16ec:	31b8e804 	addi	r6,r6,-7264
    16f0:	014000b4 	movhi	r5,2
    16f4:	29793c04 	addi	r5,r5,-6928
    16f8:	1809883a 	mov	r4,r3
    16fc:	00018780 	call	1878 <fprintf>
  check(cx >= 0, "cx out of range");
    1700:	e0bff817 	ldw	r2,-32(fp)
    1704:	10001d0e 	bge	r2,zero,177c <VGA_gametime_display+0xf8>
    1708:	d0a00317 	ldw	r2,-32756(gp)
    170c:	14000317 	ldw	r16,12(r2)
    1710:	00018400 	call	1840 <__errno>
    1714:	10800017 	ldw	r2,0(r2)
    1718:	10000526 	beq	r2,zero,1730 <VGA_gametime_display+0xac>
    171c:	00018400 	call	1840 <__errno>
    1720:	10800017 	ldw	r2,0(r2)
    1724:	1009883a 	mov	r4,r2
    1728:	00020b40 	call	20b4 <strerror>
    172c:	00000206 	br	1738 <VGA_gametime_display+0xb4>
    1730:	008000b4 	movhi	r2,2
    1734:	10b94304 	addi	r2,r2,-6900
    1738:	d8800015 	stw	r2,0(sp)
    173c:	01c04504 	movi	r7,276
    1740:	018000b4 	movhi	r6,2
    1744:	31b8e804 	addi	r6,r6,-7264
    1748:	014000b4 	movhi	r5,2
    174c:	29794504 	addi	r5,r5,-6892
    1750:	8009883a 	mov	r4,r16
    1754:	00018780 	call	1878 <fprintf>
    1758:	00018400 	call	1840 <__errno>
    175c:	10000015 	stw	zero,0(r2)
    1760:	0001883a 	nop

  VGA_text(70, 9, buffer);
  return;

error:
  log_err("Error caused while formatting string");
    1764:	d0a00317 	ldw	r2,-32756(gp)
    1768:	14000317 	ldw	r16,12(r2)
    176c:	00018400 	call	1840 <__errno>
    1770:	10800017 	ldw	r2,0(r2)
    1774:	10000c26 	beq	r2,zero,17a8 <VGA_gametime_display+0x124>
    1778:	00000606 	br	1794 <VGA_gametime_display+0x110>
  cx = snprintf(buffer, 10, " %02d:%02d:%02d\0", game_hh, game_mm, game_ss);

  debug("buffer: %s", buffer);
  check(cx >= 0, "cx out of range");

  VGA_text(70, 9, buffer);
    177c:	e0bff904 	addi	r2,fp,-28
    1780:	100d883a 	mov	r6,r2
    1784:	01400244 	movi	r5,9
    1788:	01001184 	movi	r4,70
    178c:	00009880 	call	988 <VGA_text>
    1790:	00002506 	br	1828 <VGA_gametime_display+0x1a4>
  return;

error:
  log_err("Error caused while formatting string");
    1794:	00018400 	call	1840 <__errno>
    1798:	10800017 	ldw	r2,0(r2)
    179c:	1009883a 	mov	r4,r2
    17a0:	00020b40 	call	20b4 <strerror>
    17a4:	00000206 	br	17b0 <VGA_gametime_display+0x12c>
    17a8:	008000b4 	movhi	r2,2
    17ac:	10b94304 	addi	r2,r2,-6900
    17b0:	d8800015 	stw	r2,0(sp)
    17b4:	01c04684 	movi	r7,282
    17b8:	018000b4 	movhi	r6,2
    17bc:	31b8e804 	addi	r6,r6,-7264
    17c0:	014000b4 	movhi	r5,2
    17c4:	29795004 	addi	r5,r5,-6848
    17c8:	8009883a 	mov	r4,r16
    17cc:	00018780 	call	1878 <fprintf>
  log_err("buffer: %s", buffer);
    17d0:	d0a00317 	ldw	r2,-32756(gp)
    17d4:	14000317 	ldw	r16,12(r2)
    17d8:	00018400 	call	1840 <__errno>
    17dc:	10800017 	ldw	r2,0(r2)
    17e0:	10000526 	beq	r2,zero,17f8 <VGA_gametime_display+0x174>
    17e4:	00018400 	call	1840 <__errno>
    17e8:	10800017 	ldw	r2,0(r2)
    17ec:	1009883a 	mov	r4,r2
    17f0:	00020b40 	call	20b4 <strerror>
    17f4:	00000206 	br	1800 <VGA_gametime_display+0x17c>
    17f8:	008000b4 	movhi	r2,2
    17fc:	10b94304 	addi	r2,r2,-6900
    1800:	e0fff904 	addi	r3,fp,-28
    1804:	d8c00115 	stw	r3,4(sp)
    1808:	d8800015 	stw	r2,0(sp)
    180c:	01c046c4 	movi	r7,283
    1810:	018000b4 	movhi	r6,2
    1814:	31b8e804 	addi	r6,r6,-7264
    1818:	014000b4 	movhi	r5,2
    181c:	29796104 	addi	r5,r5,-6780
    1820:	8009883a 	mov	r4,r16
    1824:	00018780 	call	1878 <fprintf>
    1828:	e6ffff04 	addi	sp,fp,-4
    182c:	dfc00217 	ldw	ra,8(sp)
    1830:	df000117 	ldw	fp,4(sp)
    1834:	dc000017 	ldw	r16,0(sp)
    1838:	dec00304 	addi	sp,sp,12
    183c:	f800283a 	ret

00001840 <__errno>:
    1840:	008000b4 	movhi	r2,2
    1844:	10841d04 	addi	r2,r2,4212
    1848:	10800017 	ldw	r2,0(r2)
    184c:	f800283a 	ret

00001850 <_fprintf_r>:
    1850:	defffe04 	addi	sp,sp,-8
    1854:	2809883a 	mov	r4,r5
    1858:	300b883a 	mov	r5,r6
    185c:	dfc00015 	stw	ra,0(sp)
    1860:	d9c00115 	stw	r7,4(sp)
    1864:	d9800104 	addi	r6,sp,4
    1868:	00064a80 	call	64a8 <__vfprintf_internal>
    186c:	dfc00017 	ldw	ra,0(sp)
    1870:	dec00204 	addi	sp,sp,8
    1874:	f800283a 	ret

00001878 <fprintf>:
    1878:	defffd04 	addi	sp,sp,-12
    187c:	dfc00015 	stw	ra,0(sp)
    1880:	d9800115 	stw	r6,4(sp)
    1884:	d9c00215 	stw	r7,8(sp)
    1888:	d9800104 	addi	r6,sp,4
    188c:	00064a80 	call	64a8 <__vfprintf_internal>
    1890:	dfc00017 	ldw	ra,0(sp)
    1894:	dec00304 	addi	sp,sp,12
    1898:	f800283a 	ret

0000189c <_snprintf_r>:
    189c:	30003116 	blt	r6,zero,1964 <_snprintf_r+0xc8>
    18a0:	deffe404 	addi	sp,sp,-112
    18a4:	00c08204 	movi	r3,520
    18a8:	dc001a15 	stw	r16,104(sp)
    18ac:	3005883a 	mov	r2,r6
    18b0:	dfc01b15 	stw	ra,108(sp)
    18b4:	d8c0030d 	sth	r3,12(sp)
    18b8:	d9400015 	stw	r5,0(sp)
    18bc:	d9400415 	stw	r5,16(sp)
    18c0:	380d883a 	mov	r6,r7
    18c4:	2021883a 	mov	r16,r4
    18c8:	10001026 	beq	r2,zero,190c <_snprintf_r+0x70>
    18cc:	10bfffc4 	addi	r2,r2,-1
    18d0:	d8800215 	stw	r2,8(sp)
    18d4:	d8800515 	stw	r2,20(sp)
    18d8:	d9c01c04 	addi	r7,sp,112
    18dc:	00bfffc4 	movi	r2,-1
    18e0:	d80b883a 	mov	r5,sp
    18e4:	d880038d 	sth	r2,14(sp)
    18e8:	00020d00 	call	20d0 <___svfprintf_internal_r>
    18ec:	00ffffc4 	movi	r3,-1
    18f0:	10c01316 	blt	r2,r3,1940 <_snprintf_r+0xa4>
    18f4:	d8c00017 	ldw	r3,0(sp)
    18f8:	18000005 	stb	zero,0(r3)
    18fc:	dfc01b17 	ldw	ra,108(sp)
    1900:	dc001a17 	ldw	r16,104(sp)
    1904:	dec01c04 	addi	sp,sp,112
    1908:	f800283a 	ret
    190c:	00bfffc4 	movi	r2,-1
    1910:	d9c01c04 	addi	r7,sp,112
    1914:	d80b883a 	mov	r5,sp
    1918:	d8000215 	stw	zero,8(sp)
    191c:	d8000515 	stw	zero,20(sp)
    1920:	d880038d 	sth	r2,14(sp)
    1924:	00020d00 	call	20d0 <___svfprintf_internal_r>
    1928:	00ffffc4 	movi	r3,-1
    192c:	10c00716 	blt	r2,r3,194c <_snprintf_r+0xb0>
    1930:	dfc01b17 	ldw	ra,108(sp)
    1934:	dc001a17 	ldw	r16,104(sp)
    1938:	dec01c04 	addi	sp,sp,112
    193c:	f800283a 	ret
    1940:	00c022c4 	movi	r3,139
    1944:	80c00015 	stw	r3,0(r16)
    1948:	003fea06 	br	18f4 <_snprintf_r+0x58>
    194c:	00c022c4 	movi	r3,139
    1950:	80c00015 	stw	r3,0(r16)
    1954:	dfc01b17 	ldw	ra,108(sp)
    1958:	dc001a17 	ldw	r16,104(sp)
    195c:	dec01c04 	addi	sp,sp,112
    1960:	f800283a 	ret
    1964:	008022c4 	movi	r2,139
    1968:	20800015 	stw	r2,0(r4)
    196c:	00bfffc4 	movi	r2,-1
    1970:	f800283a 	ret

00001974 <snprintf>:
    1974:	deffe304 	addi	sp,sp,-116
    1978:	dfc01b15 	stw	ra,108(sp)
    197c:	dc001a15 	stw	r16,104(sp)
    1980:	d9c01c15 	stw	r7,112(sp)
    1984:	008000b4 	movhi	r2,2
    1988:	10841d04 	addi	r2,r2,4212
    198c:	14000017 	ldw	r16,0(r2)
    1990:	28002d16 	blt	r5,zero,1a48 <snprintf+0xd4>
    1994:	00808204 	movi	r2,520
    1998:	d880030d 	sth	r2,12(sp)
    199c:	d9000015 	stw	r4,0(sp)
    19a0:	d9000415 	stw	r4,16(sp)
    19a4:	28001126 	beq	r5,zero,19ec <snprintf+0x78>
    19a8:	28bfffc4 	addi	r2,r5,-1
    19ac:	d8800215 	stw	r2,8(sp)
    19b0:	d8800515 	stw	r2,20(sp)
    19b4:	d9c01c04 	addi	r7,sp,112
    19b8:	00bfffc4 	movi	r2,-1
    19bc:	d80b883a 	mov	r5,sp
    19c0:	8009883a 	mov	r4,r16
    19c4:	d880038d 	sth	r2,14(sp)
    19c8:	00020d00 	call	20d0 <___svfprintf_internal_r>
    19cc:	00ffffc4 	movi	r3,-1
    19d0:	10c01416 	blt	r2,r3,1a24 <snprintf+0xb0>
    19d4:	d8c00017 	ldw	r3,0(sp)
    19d8:	18000005 	stb	zero,0(r3)
    19dc:	dfc01b17 	ldw	ra,108(sp)
    19e0:	dc001a17 	ldw	r16,104(sp)
    19e4:	dec01d04 	addi	sp,sp,116
    19e8:	f800283a 	ret
    19ec:	00bfffc4 	movi	r2,-1
    19f0:	d9c01c04 	addi	r7,sp,112
    19f4:	d80b883a 	mov	r5,sp
    19f8:	8009883a 	mov	r4,r16
    19fc:	d8000215 	stw	zero,8(sp)
    1a00:	d8000515 	stw	zero,20(sp)
    1a04:	d880038d 	sth	r2,14(sp)
    1a08:	00020d00 	call	20d0 <___svfprintf_internal_r>
    1a0c:	00ffffc4 	movi	r3,-1
    1a10:	10c00716 	blt	r2,r3,1a30 <snprintf+0xbc>
    1a14:	dfc01b17 	ldw	ra,108(sp)
    1a18:	dc001a17 	ldw	r16,104(sp)
    1a1c:	dec01d04 	addi	sp,sp,116
    1a20:	f800283a 	ret
    1a24:	00c022c4 	movi	r3,139
    1a28:	80c00015 	stw	r3,0(r16)
    1a2c:	003fe906 	br	19d4 <snprintf+0x60>
    1a30:	00c022c4 	movi	r3,139
    1a34:	80c00015 	stw	r3,0(r16)
    1a38:	dfc01b17 	ldw	ra,108(sp)
    1a3c:	dc001a17 	ldw	r16,104(sp)
    1a40:	dec01d04 	addi	sp,sp,116
    1a44:	f800283a 	ret
    1a48:	008022c4 	movi	r2,139
    1a4c:	80800015 	stw	r2,0(r16)
    1a50:	00bfffc4 	movi	r2,-1
    1a54:	003fef06 	br	1a14 <snprintf+0xa0>

00001a58 <_strerror_r>:
    1a58:	deffff04 	addi	sp,sp,-4
    1a5c:	2807883a 	mov	r3,r5
    1a60:	dfc00015 	stw	ra,0(sp)
    1a64:	00802384 	movi	r2,142
    1a68:	300b883a 	mov	r5,r6
    1a6c:	10c18736 	bltu	r2,r3,208c <_strerror_r+0x634>
    1a70:	181090ba 	slli	r8,r3,2
    1a74:	00800034 	movhi	r2,0
    1a78:	1086a204 	addi	r2,r2,6792
    1a7c:	4085883a 	add	r2,r8,r2
    1a80:	10800017 	ldw	r2,0(r2)
    1a84:	1000683a 	jmp	r2
    1a88:	00001cc4 	movi	zero,115
    1a8c:	00002080 	call	208 <alt_instruction_exception_entry+0x34>
    1a90:	00002074 	movhi	zero,129
    1a94:	00002068 	cmpgeui	zero,zero,129
    1a98:	0000205c 	xori	zero,zero,129
    1a9c:	00002050 	cmplti	zero,zero,129
    1aa0:	00002044 	movi	zero,129
    1aa4:	00002038 	rdprs	zero,zero,128
    1aa8:	0000202c 	andhi	zero,zero,128
    1aac:	00002020 	cmpeqi	zero,zero,128
    1ab0:	00002014 	movui	zero,128
    1ab4:	00002008 	cmpgei	zero,zero,128
    1ab8:	00001ffc 	xorhi	zero,zero,127
    1abc:	00001ff0 	cmpltui	zero,zero,127
    1ac0:	00001fe4 	muli	zero,zero,127
    1ac4:	0000208c 	andi	zero,zero,130
    1ac8:	00001fd8 	cmpnei	zero,zero,127
    1acc:	00001fcc 	andi	zero,zero,127
    1ad0:	00001fc0 	call	1fc <alt_instruction_exception_entry+0x28>
    1ad4:	00001fb4 	movhi	zero,126
    1ad8:	00001fa8 	cmpgeui	zero,zero,126
    1adc:	00001f9c 	xori	zero,zero,126
    1ae0:	00001f90 	cmplti	zero,zero,126
    1ae4:	00001f84 	movi	zero,126
    1ae8:	00001f78 	rdprs	zero,zero,125
    1aec:	00001f6c 	andhi	zero,zero,125
    1af0:	00001f60 	cmpeqi	zero,zero,125
    1af4:	00001f54 	movui	zero,125
    1af8:	00001f48 	cmpgei	zero,zero,125
    1afc:	00001f3c 	xorhi	zero,zero,124
    1b00:	00001f30 	cmpltui	zero,zero,124
    1b04:	00001f24 	muli	zero,zero,124
    1b08:	00001f18 	cmpnei	zero,zero,124
    1b0c:	00001f0c 	andi	zero,zero,124
    1b10:	00001f00 	call	1f0 <alt_instruction_exception_entry+0x1c>
    1b14:	00001ef4 	movhi	zero,123
    1b18:	00001ee8 	cmpgeui	zero,zero,123
    1b1c:	0000208c 	andi	zero,zero,130
    1b20:	0000208c 	andi	zero,zero,130
    1b24:	0000208c 	andi	zero,zero,130
    1b28:	0000208c 	andi	zero,zero,130
    1b2c:	0000208c 	andi	zero,zero,130
    1b30:	0000208c 	andi	zero,zero,130
    1b34:	0000208c 	andi	zero,zero,130
    1b38:	0000208c 	andi	zero,zero,130
    1b3c:	00001edc 	xori	zero,zero,123
    1b40:	00001ed0 	cmplti	zero,zero,123
    1b44:	0000208c 	andi	zero,zero,130
    1b48:	0000208c 	andi	zero,zero,130
    1b4c:	0000208c 	andi	zero,zero,130
    1b50:	0000208c 	andi	zero,zero,130
    1b54:	0000208c 	andi	zero,zero,130
    1b58:	0000208c 	andi	zero,zero,130
    1b5c:	0000208c 	andi	zero,zero,130
    1b60:	0000208c 	andi	zero,zero,130
    1b64:	0000208c 	andi	zero,zero,130
    1b68:	0000208c 	andi	zero,zero,130
    1b6c:	0000208c 	andi	zero,zero,130
    1b70:	0000208c 	andi	zero,zero,130
    1b74:	0000208c 	andi	zero,zero,130
    1b78:	00001ec4 	movi	zero,123
    1b7c:	00001eb8 	rdprs	zero,zero,122
    1b80:	00001eac 	andhi	zero,zero,122
    1b84:	00001ea0 	cmpeqi	zero,zero,122
    1b88:	0000208c 	andi	zero,zero,130
    1b8c:	0000208c 	andi	zero,zero,130
    1b90:	0000208c 	andi	zero,zero,130
    1b94:	00001e94 	movui	zero,122
    1b98:	0000208c 	andi	zero,zero,130
    1b9c:	0000208c 	andi	zero,zero,130
    1ba0:	0000208c 	andi	zero,zero,130
    1ba4:	00001e88 	cmpgei	zero,zero,122
    1ba8:	0000208c 	andi	zero,zero,130
    1bac:	0000208c 	andi	zero,zero,130
    1bb0:	00001e7c 	xorhi	zero,zero,121
    1bb4:	0000208c 	andi	zero,zero,130
    1bb8:	0000208c 	andi	zero,zero,130
    1bbc:	00001e70 	cmpltui	zero,zero,121
    1bc0:	0000208c 	andi	zero,zero,130
    1bc4:	0000208c 	andi	zero,zero,130
    1bc8:	0000208c 	andi	zero,zero,130
    1bcc:	0000208c 	andi	zero,zero,130
    1bd0:	0000208c 	andi	zero,zero,130
    1bd4:	0000208c 	andi	zero,zero,130
    1bd8:	0000208c 	andi	zero,zero,130
    1bdc:	0000208c 	andi	zero,zero,130
    1be0:	0000208c 	andi	zero,zero,130
    1be4:	0000208c 	andi	zero,zero,130
    1be8:	00001e64 	muli	zero,zero,121
    1bec:	0000208c 	andi	zero,zero,130
    1bf0:	00001e58 	cmpnei	zero,zero,121
    1bf4:	00001e4c 	andi	zero,zero,121
    1bf8:	00001e40 	call	1e4 <alt_instruction_exception_entry+0x10>
    1bfc:	0000208c 	andi	zero,zero,130
    1c00:	0000208c 	andi	zero,zero,130
    1c04:	00001e34 	movhi	zero,120
    1c08:	0000208c 	andi	zero,zero,130
    1c0c:	0000208c 	andi	zero,zero,130
    1c10:	0000208c 	andi	zero,zero,130
    1c14:	0000208c 	andi	zero,zero,130
    1c18:	0000208c 	andi	zero,zero,130
    1c1c:	0000208c 	andi	zero,zero,130
    1c20:	0000208c 	andi	zero,zero,130
    1c24:	0000208c 	andi	zero,zero,130
    1c28:	00001e28 	cmpgeui	zero,zero,120
    1c2c:	00001e1c 	xori	zero,zero,120
    1c30:	00001e10 	cmplti	zero,zero,120
    1c34:	00001e04 	movi	zero,120
    1c38:	00001df8 	rdprs	zero,zero,119
    1c3c:	00001dec 	andhi	zero,zero,119
    1c40:	0000208c 	andi	zero,zero,130
    1c44:	00001de0 	cmpeqi	zero,zero,119
    1c48:	00001dd4 	movui	zero,119
    1c4c:	00001dc8 	cmpgei	zero,zero,119
    1c50:	00001dbc 	xorhi	zero,zero,118
    1c54:	00001db0 	cmpltui	zero,zero,118
    1c58:	00001da4 	muli	zero,zero,118
    1c5c:	00001d98 	cmpnei	zero,zero,118
    1c60:	00001d8c 	andi	zero,zero,118
    1c64:	00001d80 	call	1d8 <alt_instruction_exception_entry+0x4>
    1c68:	00001d74 	movhi	zero,117
    1c6c:	00001d68 	cmpgeui	zero,zero,117
    1c70:	00001d5c 	xori	zero,zero,117
    1c74:	00001d50 	cmplti	zero,zero,117
    1c78:	0000208c 	andi	zero,zero,130
    1c7c:	00001d44 	movi	zero,117
    1c80:	00001d38 	rdprs	zero,zero,116
    1c84:	00001d2c 	andhi	zero,zero,116
    1c88:	00001d20 	cmpeqi	zero,zero,116
    1c8c:	0000208c 	andi	zero,zero,130
    1c90:	0000208c 	andi	zero,zero,130
    1c94:	0000208c 	andi	zero,zero,130
    1c98:	0000208c 	andi	zero,zero,130
    1c9c:	0000208c 	andi	zero,zero,130
    1ca0:	00001d14 	movui	zero,116
    1ca4:	0000208c 	andi	zero,zero,130
    1ca8:	0000208c 	andi	zero,zero,130
    1cac:	0000208c 	andi	zero,zero,130
    1cb0:	00001d08 	cmpgei	zero,zero,116
    1cb4:	00001cfc 	xorhi	zero,zero,115
    1cb8:	00001cf0 	cmpltui	zero,zero,115
    1cbc:	00001ce4 	muli	zero,zero,115
    1cc0:	00001cd8 	cmpnei	zero,zero,115
    1cc4:	008000b4 	movhi	r2,2
    1cc8:	10b96c04 	addi	r2,r2,-6736
    1ccc:	dfc00017 	ldw	ra,0(sp)
    1cd0:	dec00104 	addi	sp,sp,4
    1cd4:	f800283a 	ret
    1cd8:	008000b4 	movhi	r2,2
    1cdc:	10bb0904 	addi	r2,r2,-5084
    1ce0:	003ffa06 	br	1ccc <_strerror_r+0x274>
    1ce4:	008000b4 	movhi	r2,2
    1ce8:	10bb0304 	addi	r2,r2,-5108
    1cec:	003ff706 	br	1ccc <_strerror_r+0x274>
    1cf0:	008000b4 	movhi	r2,2
    1cf4:	10bafe04 	addi	r2,r2,-5128
    1cf8:	003ff406 	br	1ccc <_strerror_r+0x274>
    1cfc:	008000b4 	movhi	r2,2
    1d00:	10bb1704 	addi	r2,r2,-5028
    1d04:	003ff106 	br	1ccc <_strerror_r+0x274>
    1d08:	008000b4 	movhi	r2,2
    1d0c:	10ba5504 	addi	r2,r2,-5804
    1d10:	003fee06 	br	1ccc <_strerror_r+0x274>
    1d14:	008000b4 	movhi	r2,2
    1d18:	10ba2304 	addi	r2,r2,-6004
    1d1c:	003feb06 	br	1ccc <_strerror_r+0x274>
    1d20:	008000b4 	movhi	r2,2
    1d24:	10baf104 	addi	r2,r2,-5180
    1d28:	003fe806 	br	1ccc <_strerror_r+0x274>
    1d2c:	008000b4 	movhi	r2,2
    1d30:	10baf704 	addi	r2,r2,-5156
    1d34:	003fe506 	br	1ccc <_strerror_r+0x274>
    1d38:	008000b4 	movhi	r2,2
    1d3c:	10b9f204 	addi	r2,r2,-6200
    1d40:	003fe206 	br	1ccc <_strerror_r+0x274>
    1d44:	008000b4 	movhi	r2,2
    1d48:	10bae204 	addi	r2,r2,-5240
    1d4c:	003fdf06 	br	1ccc <_strerror_r+0x274>
    1d50:	008000b4 	movhi	r2,2
    1d54:	10ba7f04 	addi	r2,r2,-5636
    1d58:	003fdc06 	br	1ccc <_strerror_r+0x274>
    1d5c:	008000b4 	movhi	r2,2
    1d60:	10bb2104 	addi	r2,r2,-4988
    1d64:	003fd906 	br	1ccc <_strerror_r+0x274>
    1d68:	008000b4 	movhi	r2,2
    1d6c:	10b9a404 	addi	r2,r2,-6512
    1d70:	003fd606 	br	1ccc <_strerror_r+0x274>
    1d74:	008000b4 	movhi	r2,2
    1d78:	10b99604 	addi	r2,r2,-6568
    1d7c:	003fd306 	br	1ccc <_strerror_r+0x274>
    1d80:	008000b4 	movhi	r2,2
    1d84:	10b9d804 	addi	r2,r2,-6304
    1d88:	003fd006 	br	1ccc <_strerror_r+0x274>
    1d8c:	008000b4 	movhi	r2,2
    1d90:	10ba1804 	addi	r2,r2,-6048
    1d94:	003fcd06 	br	1ccc <_strerror_r+0x274>
    1d98:	008000b4 	movhi	r2,2
    1d9c:	10b9d404 	addi	r2,r2,-6320
    1da0:	003fca06 	br	1ccc <_strerror_r+0x274>
    1da4:	008000b4 	movhi	r2,2
    1da8:	10bb2604 	addi	r2,r2,-4968
    1dac:	003fc706 	br	1ccc <_strerror_r+0x274>
    1db0:	008000b4 	movhi	r2,2
    1db4:	10b9e904 	addi	r2,r2,-6236
    1db8:	003fc406 	br	1ccc <_strerror_r+0x274>
    1dbc:	008000b4 	movhi	r2,2
    1dc0:	10ba5e04 	addi	r2,r2,-5768
    1dc4:	003fc106 	br	1ccc <_strerror_r+0x274>
    1dc8:	008000b4 	movhi	r2,2
    1dcc:	10bae804 	addi	r2,r2,-5216
    1dd0:	003fbe06 	br	1ccc <_strerror_r+0x274>
    1dd4:	008000b4 	movhi	r2,2
    1dd8:	10badc04 	addi	r2,r2,-5264
    1ddc:	003fbb06 	br	1ccc <_strerror_r+0x274>
    1de0:	008000b4 	movhi	r2,2
    1de4:	10bad004 	addi	r2,r2,-5312
    1de8:	003fb806 	br	1ccc <_strerror_r+0x274>
    1dec:	008000b4 	movhi	r2,2
    1df0:	10baca04 	addi	r2,r2,-5336
    1df4:	003fb506 	br	1ccc <_strerror_r+0x274>
    1df8:	008000b4 	movhi	r2,2
    1dfc:	10bac204 	addi	r2,r2,-5368
    1e00:	003fb206 	br	1ccc <_strerror_r+0x274>
    1e04:	008000b4 	movhi	r2,2
    1e08:	10baba04 	addi	r2,r2,-5400
    1e0c:	003faf06 	br	1ccc <_strerror_r+0x274>
    1e10:	008000b4 	movhi	r2,2
    1e14:	10baae04 	addi	r2,r2,-5448
    1e18:	003fac06 	br	1ccc <_strerror_r+0x274>
    1e1c:	008000b4 	movhi	r2,2
    1e20:	10baa504 	addi	r2,r2,-5484
    1e24:	003fa906 	br	1ccc <_strerror_r+0x274>
    1e28:	008000b4 	movhi	r2,2
    1e2c:	10bad504 	addi	r2,r2,-5292
    1e30:	003fa606 	br	1ccc <_strerror_r+0x274>
    1e34:	008000b4 	movhi	r2,2
    1e38:	10bb0e04 	addi	r2,r2,-5064
    1e3c:	003fa306 	br	1ccc <_strerror_r+0x274>
    1e40:	008000b4 	movhi	r2,2
    1e44:	10ba9f04 	addi	r2,r2,-5508
    1e48:	003fa006 	br	1ccc <_strerror_r+0x274>
    1e4c:	008000b4 	movhi	r2,2
    1e50:	10ba9804 	addi	r2,r2,-5536
    1e54:	003f9d06 	br	1ccc <_strerror_r+0x274>
    1e58:	008000b4 	movhi	r2,2
    1e5c:	10ba9304 	addi	r2,r2,-5556
    1e60:	003f9a06 	br	1ccc <_strerror_r+0x274>
    1e64:	008000b4 	movhi	r2,2
    1e68:	10ba8c04 	addi	r2,r2,-5584
    1e6c:	003f9706 	br	1ccc <_strerror_r+0x274>
    1e70:	008000b4 	movhi	r2,2
    1e74:	10ba8904 	addi	r2,r2,-5596
    1e78:	003f9406 	br	1ccc <_strerror_r+0x274>
    1e7c:	008000b4 	movhi	r2,2
    1e80:	10ba8404 	addi	r2,r2,-5616
    1e84:	003f9106 	br	1ccc <_strerror_r+0x274>
    1e88:	008000b4 	movhi	r2,2
    1e8c:	10ba7b04 	addi	r2,r2,-5652
    1e90:	003f8e06 	br	1ccc <_strerror_r+0x274>
    1e94:	008000b4 	movhi	r2,2
    1e98:	10ba7504 	addi	r2,r2,-5676
    1e9c:	003f8b06 	br	1ccc <_strerror_r+0x274>
    1ea0:	008000b4 	movhi	r2,2
    1ea4:	10ba7004 	addi	r2,r2,-5696
    1ea8:	003f8806 	br	1ccc <_strerror_r+0x274>
    1eac:	008000b4 	movhi	r2,2
    1eb0:	10ba6a04 	addi	r2,r2,-5720
    1eb4:	003f8506 	br	1ccc <_strerror_r+0x274>
    1eb8:	008000b4 	movhi	r2,2
    1ebc:	10baac04 	addi	r2,r2,-5456
    1ec0:	003f8206 	br	1ccc <_strerror_r+0x274>
    1ec4:	008000b4 	movhi	r2,2
    1ec8:	10ba6604 	addi	r2,r2,-5736
    1ecc:	003f7f06 	br	1ccc <_strerror_r+0x274>
    1ed0:	008000b4 	movhi	r2,2
    1ed4:	10ba6404 	addi	r2,r2,-5744
    1ed8:	003f7c06 	br	1ccc <_strerror_r+0x274>
    1edc:	008000b4 	movhi	r2,2
    1ee0:	10ba5b04 	addi	r2,r2,-5780
    1ee4:	003f7906 	br	1ccc <_strerror_r+0x274>
    1ee8:	008000b4 	movhi	r2,2
    1eec:	10ba5004 	addi	r2,r2,-5824
    1ef0:	003f7606 	br	1ccc <_strerror_r+0x274>
    1ef4:	008000b4 	movhi	r2,2
    1ef8:	10ba4904 	addi	r2,r2,-5852
    1efc:	003f7306 	br	1ccc <_strerror_r+0x274>
    1f00:	008000b4 	movhi	r2,2
    1f04:	10ba4404 	addi	r2,r2,-5872
    1f08:	003f7006 	br	1ccc <_strerror_r+0x274>
    1f0c:	008000b4 	movhi	r2,2
    1f10:	10ba3804 	addi	r2,r2,-5920
    1f14:	003f6d06 	br	1ccc <_strerror_r+0x274>
    1f18:	008000b4 	movhi	r2,2
    1f1c:	10ba3504 	addi	r2,r2,-5932
    1f20:	003f6a06 	br	1ccc <_strerror_r+0x274>
    1f24:	008000b4 	movhi	r2,2
    1f28:	10ba3104 	addi	r2,r2,-5948
    1f2c:	003f6706 	br	1ccc <_strerror_r+0x274>
    1f30:	008000b4 	movhi	r2,2
    1f34:	10ba2b04 	addi	r2,r2,-5972
    1f38:	003f6406 	br	1ccc <_strerror_r+0x274>
    1f3c:	008000b4 	movhi	r2,2
    1f40:	10ba2704 	addi	r2,r2,-5988
    1f44:	003f6106 	br	1ccc <_strerror_r+0x274>
    1f48:	008000b4 	movhi	r2,2
    1f4c:	10ba1d04 	addi	r2,r2,-6028
    1f50:	003f5e06 	br	1ccc <_strerror_r+0x274>
    1f54:	008000b4 	movhi	r2,2
    1f58:	10ba1404 	addi	r2,r2,-6064
    1f5c:	003f5b06 	br	1ccc <_strerror_r+0x274>
    1f60:	008000b4 	movhi	r2,2
    1f64:	10ba1004 	addi	r2,r2,-6080
    1f68:	003f5806 	br	1ccc <_strerror_r+0x274>
    1f6c:	008000b4 	movhi	r2,2
    1f70:	10ba0a04 	addi	r2,r2,-6104
    1f74:	003f5506 	br	1ccc <_strerror_r+0x274>
    1f78:	008000b4 	movhi	r2,2
    1f7c:	10ba0204 	addi	r2,r2,-6136
    1f80:	003f5206 	br	1ccc <_strerror_r+0x274>
    1f84:	008000b4 	movhi	r2,2
    1f88:	10b9fa04 	addi	r2,r2,-6168
    1f8c:	003f4f06 	br	1ccc <_strerror_r+0x274>
    1f90:	008000b4 	movhi	r2,2
    1f94:	10b9e404 	addi	r2,r2,-6256
    1f98:	003f4c06 	br	1ccc <_strerror_r+0x274>
    1f9c:	008000b4 	movhi	r2,2
    1fa0:	10b9e004 	addi	r2,r2,-6272
    1fa4:	003f4906 	br	1ccc <_strerror_r+0x274>
    1fa8:	008000b4 	movhi	r2,2
    1fac:	10b9d004 	addi	r2,r2,-6336
    1fb0:	003f4606 	br	1ccc <_strerror_r+0x274>
    1fb4:	008000b4 	movhi	r2,2
    1fb8:	10b9cc04 	addi	r2,r2,-6352
    1fbc:	003f4306 	br	1ccc <_strerror_r+0x274>
    1fc0:	008000b4 	movhi	r2,2
    1fc4:	10b9c704 	addi	r2,r2,-6372
    1fc8:	003f4006 	br	1ccc <_strerror_r+0x274>
    1fcc:	008000b4 	movhi	r2,2
    1fd0:	10b9c404 	addi	r2,r2,-6384
    1fd4:	003f3d06 	br	1ccc <_strerror_r+0x274>
    1fd8:	008000b4 	movhi	r2,2
    1fdc:	10b9be04 	addi	r2,r2,-6408
    1fe0:	003f3a06 	br	1ccc <_strerror_r+0x274>
    1fe4:	008000b4 	movhi	r2,2
    1fe8:	10b9bb04 	addi	r2,r2,-6420
    1fec:	003f3706 	br	1ccc <_strerror_r+0x274>
    1ff0:	008000b4 	movhi	r2,2
    1ff4:	10b9b604 	addi	r2,r2,-6440
    1ff8:	003f3406 	br	1ccc <_strerror_r+0x274>
    1ffc:	008000b4 	movhi	r2,2
    2000:	10b9b104 	addi	r2,r2,-6460
    2004:	003f3106 	br	1ccc <_strerror_r+0x274>
    2008:	008000b4 	movhi	r2,2
    200c:	10b9ac04 	addi	r2,r2,-6480
    2010:	003f2e06 	br	1ccc <_strerror_r+0x274>
    2014:	008000b4 	movhi	r2,2
    2018:	10b9a104 	addi	r2,r2,-6524
    201c:	003f2b06 	br	1ccc <_strerror_r+0x274>
    2020:	008000b4 	movhi	r2,2
    2024:	10b99d04 	addi	r2,r2,-6540
    2028:	003f2806 	br	1ccc <_strerror_r+0x274>
    202c:	008000b4 	movhi	r2,2
    2030:	10b99104 	addi	r2,r2,-6588
    2034:	003f2506 	br	1ccc <_strerror_r+0x274>
    2038:	008000b4 	movhi	r2,2
    203c:	10b98c04 	addi	r2,r2,-6608
    2040:	003f2206 	br	1ccc <_strerror_r+0x274>
    2044:	008000b4 	movhi	r2,2
    2048:	10b98504 	addi	r2,r2,-6636
    204c:	003f1f06 	br	1ccc <_strerror_r+0x274>
    2050:	008000b4 	movhi	r2,2
    2054:	10b98204 	addi	r2,r2,-6648
    2058:	003f1c06 	br	1ccc <_strerror_r+0x274>
    205c:	008000b4 	movhi	r2,2
    2060:	10b97c04 	addi	r2,r2,-6672
    2064:	003f1906 	br	1ccc <_strerror_r+0x274>
    2068:	008000b4 	movhi	r2,2
    206c:	10b97804 	addi	r2,r2,-6688
    2070:	003f1606 	br	1ccc <_strerror_r+0x274>
    2074:	008000b4 	movhi	r2,2
    2078:	10b97104 	addi	r2,r2,-6716
    207c:	003f1306 	br	1ccc <_strerror_r+0x274>
    2080:	008000b4 	movhi	r2,2
    2084:	10b96e04 	addi	r2,r2,-6728
    2088:	003f1006 	br	1ccc <_strerror_r+0x274>
    208c:	38000726 	beq	r7,zero,20ac <_strerror_r+0x654>
    2090:	380d883a 	mov	r6,r7
    2094:	1809883a 	mov	r4,r3
    2098:	00042a80 	call	42a8 <_user_strerror>
    209c:	103f0b1e 	bne	r2,zero,1ccc <_strerror_r+0x274>
    20a0:	008000b4 	movhi	r2,2
    20a4:	10bb3404 	addi	r2,r2,-4912
    20a8:	003f0806 	br	1ccc <_strerror_r+0x274>
    20ac:	200f883a 	mov	r7,r4
    20b0:	003ff706 	br	2090 <_strerror_r+0x638>

000020b4 <strerror>:
    20b4:	008000b4 	movhi	r2,2
    20b8:	10841d04 	addi	r2,r2,4212
    20bc:	200b883a 	mov	r5,r4
    20c0:	11000017 	ldw	r4,0(r2)
    20c4:	000f883a 	mov	r7,zero
    20c8:	000d883a 	mov	r6,zero
    20cc:	0001a581 	jmpi	1a58 <_strerror_r>

000020d0 <___svfprintf_internal_r>:
    20d0:	deffb704 	addi	sp,sp,-292
    20d4:	dfc04815 	stw	ra,288(sp)
    20d8:	ddc04615 	stw	r23,280(sp)
    20dc:	d9402c15 	stw	r5,176(sp)
    20e0:	d9003915 	stw	r4,228(sp)
    20e4:	302f883a 	mov	r23,r6
    20e8:	d9c02d15 	stw	r7,180(sp)
    20ec:	df004715 	stw	fp,284(sp)
    20f0:	dd804515 	stw	r22,276(sp)
    20f4:	dd404415 	stw	r21,272(sp)
    20f8:	dd004315 	stw	r20,268(sp)
    20fc:	dcc04215 	stw	r19,264(sp)
    2100:	dc804115 	stw	r18,260(sp)
    2104:	dc404015 	stw	r17,256(sp)
    2108:	dc003f15 	stw	r16,252(sp)
    210c:	0008c0c0 	call	8c0c <_localeconv_r>
    2110:	10800017 	ldw	r2,0(r2)
    2114:	1009883a 	mov	r4,r2
    2118:	d8803415 	stw	r2,208(sp)
    211c:	000ac340 	call	ac34 <strlen>
    2120:	d8c02c17 	ldw	r3,176(sp)
    2124:	d8803815 	stw	r2,224(sp)
    2128:	1880030b 	ldhu	r2,12(r3)
    212c:	1080200c 	andi	r2,r2,128
    2130:	10000226 	beq	r2,zero,213c <___svfprintf_internal_r+0x6c>
    2134:	18800417 	ldw	r2,16(r3)
    2138:	10067f26 	beq	r2,zero,3b38 <___svfprintf_internal_r+0x1a68>
    213c:	dcc03917 	ldw	r19,228(sp)
    2140:	d8c00404 	addi	r3,sp,16
    2144:	054000b4 	movhi	r21,2
    2148:	d9001e04 	addi	r4,sp,120
    214c:	ad7b3c84 	addi	r21,r21,-4878
    2150:	d8c01e15 	stw	r3,120(sp)
    2154:	d8002015 	stw	zero,128(sp)
    2158:	d8001f15 	stw	zero,124(sp)
    215c:	d8003315 	stw	zero,204(sp)
    2160:	d8003615 	stw	zero,216(sp)
    2164:	d8003715 	stw	zero,220(sp)
    2168:	1811883a 	mov	r8,r3
    216c:	d8003a15 	stw	zero,232(sp)
    2170:	d8003b15 	stw	zero,236(sp)
    2174:	d8002f15 	stw	zero,188(sp)
    2178:	d9002815 	stw	r4,160(sp)
    217c:	b8800007 	ldb	r2,0(r23)
    2180:	10026726 	beq	r2,zero,2b20 <___svfprintf_internal_r+0xa50>
    2184:	00c00944 	movi	r3,37
    2188:	b821883a 	mov	r16,r23
    218c:	10c0021e 	bne	r2,r3,2198 <___svfprintf_internal_r+0xc8>
    2190:	00001406 	br	21e4 <___svfprintf_internal_r+0x114>
    2194:	10c00326 	beq	r2,r3,21a4 <___svfprintf_internal_r+0xd4>
    2198:	84000044 	addi	r16,r16,1
    219c:	80800007 	ldb	r2,0(r16)
    21a0:	103ffc1e 	bne	r2,zero,2194 <___svfprintf_internal_r+0xc4>
    21a4:	85e3c83a 	sub	r17,r16,r23
    21a8:	88000e26 	beq	r17,zero,21e4 <___svfprintf_internal_r+0x114>
    21ac:	d8c02017 	ldw	r3,128(sp)
    21b0:	d8801f17 	ldw	r2,124(sp)
    21b4:	45c00015 	stw	r23,0(r8)
    21b8:	1c47883a 	add	r3,r3,r17
    21bc:	10800044 	addi	r2,r2,1
    21c0:	d8c02015 	stw	r3,128(sp)
    21c4:	44400115 	stw	r17,4(r8)
    21c8:	d8801f15 	stw	r2,124(sp)
    21cc:	00c001c4 	movi	r3,7
    21d0:	18809716 	blt	r3,r2,2430 <___svfprintf_internal_r+0x360>
    21d4:	42000204 	addi	r8,r8,8
    21d8:	d9402f17 	ldw	r5,188(sp)
    21dc:	2c4b883a 	add	r5,r5,r17
    21e0:	d9402f15 	stw	r5,188(sp)
    21e4:	80800007 	ldb	r2,0(r16)
    21e8:	10009826 	beq	r2,zero,244c <___svfprintf_internal_r+0x37c>
    21ec:	84400047 	ldb	r17,1(r16)
    21f0:	00bfffc4 	movi	r2,-1
    21f4:	85c00044 	addi	r23,r16,1
    21f8:	d8002785 	stb	zero,158(sp)
    21fc:	0007883a 	mov	r3,zero
    2200:	000f883a 	mov	r7,zero
    2204:	d8802915 	stw	r2,164(sp)
    2208:	d8003115 	stw	zero,196(sp)
    220c:	0025883a 	mov	r18,zero
    2210:	01401604 	movi	r5,88
    2214:	01800244 	movi	r6,9
    2218:	02800a84 	movi	r10,42
    221c:	02401b04 	movi	r9,108
    2220:	bdc00044 	addi	r23,r23,1
    2224:	88bff804 	addi	r2,r17,-32
    2228:	2882f036 	bltu	r5,r2,2dec <___svfprintf_internal_r+0xd1c>
    222c:	100490ba 	slli	r2,r2,2
    2230:	01000034 	movhi	r4,0
    2234:	21089104 	addi	r4,r4,8772
    2238:	1105883a 	add	r2,r2,r4
    223c:	10800017 	ldw	r2,0(r2)
    2240:	1000683a 	jmp	r2
    2244:	00002d54 	movui	zero,181
    2248:	00002dec 	andhi	zero,zero,183
    224c:	00002dec 	andhi	zero,zero,183
    2250:	00002d48 	cmpgei	zero,zero,181
    2254:	00002dec 	andhi	zero,zero,183
    2258:	00002dec 	andhi	zero,zero,183
    225c:	00002dec 	andhi	zero,zero,183
    2260:	00002dec 	andhi	zero,zero,183
    2264:	00002dec 	andhi	zero,zero,183
    2268:	00002dec 	andhi	zero,zero,183
    226c:	000024a8 	cmpgeui	zero,zero,146
    2270:	00002c84 	movi	zero,178
    2274:	00002dec 	andhi	zero,zero,183
    2278:	000023b8 	rdprs	zero,zero,142
    227c:	000024d0 	cmplti	zero,zero,147
    2280:	00002dec 	andhi	zero,zero,183
    2284:	00002544 	movi	zero,149
    2288:	00002510 	cmplti	zero,zero,148
    228c:	00002510 	cmplti	zero,zero,148
    2290:	00002510 	cmplti	zero,zero,148
    2294:	00002510 	cmplti	zero,zero,148
    2298:	00002510 	cmplti	zero,zero,148
    229c:	00002510 	cmplti	zero,zero,148
    22a0:	00002510 	cmplti	zero,zero,148
    22a4:	00002510 	cmplti	zero,zero,148
    22a8:	00002510 	cmplti	zero,zero,148
    22ac:	00002dec 	andhi	zero,zero,183
    22b0:	00002dec 	andhi	zero,zero,183
    22b4:	00002dec 	andhi	zero,zero,183
    22b8:	00002dec 	andhi	zero,zero,183
    22bc:	00002dec 	andhi	zero,zero,183
    22c0:	00002dec 	andhi	zero,zero,183
    22c4:	00002dec 	andhi	zero,zero,183
    22c8:	00002dec 	andhi	zero,zero,183
    22cc:	00002dec 	andhi	zero,zero,183
    22d0:	00002dec 	andhi	zero,zero,183
    22d4:	000025fc 	xorhi	zero,zero,151
    22d8:	00002550 	cmplti	zero,zero,149
    22dc:	00002dec 	andhi	zero,zero,183
    22e0:	00002550 	cmplti	zero,zero,149
    22e4:	00002dec 	andhi	zero,zero,183
    22e8:	00002dec 	andhi	zero,zero,183
    22ec:	00002dec 	andhi	zero,zero,183
    22f0:	00002dec 	andhi	zero,zero,183
    22f4:	000025f0 	cmpltui	zero,zero,151
    22f8:	00002dec 	andhi	zero,zero,183
    22fc:	00002dec 	andhi	zero,zero,183
    2300:	000026b8 	rdprs	zero,zero,154
    2304:	00002dec 	andhi	zero,zero,183
    2308:	00002dec 	andhi	zero,zero,183
    230c:	00002dec 	andhi	zero,zero,183
    2310:	00002dec 	andhi	zero,zero,183
    2314:	00002dec 	andhi	zero,zero,183
    2318:	00002b28 	cmpgeui	zero,zero,172
    231c:	00002dec 	andhi	zero,zero,183
    2320:	00002dec 	andhi	zero,zero,183
    2324:	00002b88 	cmpgei	zero,zero,174
    2328:	00002dec 	andhi	zero,zero,183
    232c:	00002dec 	andhi	zero,zero,183
    2330:	00002dec 	andhi	zero,zero,183
    2334:	00002dec 	andhi	zero,zero,183
    2338:	00002dec 	andhi	zero,zero,183
    233c:	00002dec 	andhi	zero,zero,183
    2340:	00002dec 	andhi	zero,zero,183
    2344:	00002dec 	andhi	zero,zero,183
    2348:	00002dec 	andhi	zero,zero,183
    234c:	00002dec 	andhi	zero,zero,183
    2350:	00002c38 	rdprs	zero,zero,176
    2354:	00002d74 	movhi	zero,181
    2358:	00002550 	cmplti	zero,zero,149
    235c:	00002550 	cmplti	zero,zero,149
    2360:	00002550 	cmplti	zero,zero,149
    2364:	00002dc8 	cmpgei	zero,zero,183
    2368:	00002d74 	movhi	zero,181
    236c:	00002dec 	andhi	zero,zero,183
    2370:	00002dec 	andhi	zero,zero,183
    2374:	00002d84 	movi	zero,182
    2378:	00002dec 	andhi	zero,zero,183
    237c:	00002d94 	movui	zero,182
    2380:	00002c74 	movhi	zero,177
    2384:	000023c4 	movi	zero,143
    2388:	00002c94 	movui	zero,178
    238c:	00002dec 	andhi	zero,zero,183
    2390:	00002ca0 	cmpeqi	zero,zero,178
    2394:	00002dec 	andhi	zero,zero,183
    2398:	00002cfc 	xorhi	zero,zero,179
    239c:	00002dec 	andhi	zero,zero,183
    23a0:	00002dec 	andhi	zero,zero,183
    23a4:	00002d0c 	andi	zero,zero,180
    23a8:	d9003117 	ldw	r4,196(sp)
    23ac:	d8802d15 	stw	r2,180(sp)
    23b0:	0109c83a 	sub	r4,zero,r4
    23b4:	d9003115 	stw	r4,196(sp)
    23b8:	94800114 	ori	r18,r18,4
    23bc:	bc400007 	ldb	r17,0(r23)
    23c0:	003f9706 	br	2220 <___svfprintf_internal_r+0x150>
    23c4:	00800c04 	movi	r2,48
    23c8:	d9002d17 	ldw	r4,180(sp)
    23cc:	d9402917 	ldw	r5,164(sp)
    23d0:	d8802705 	stb	r2,156(sp)
    23d4:	00801e04 	movi	r2,120
    23d8:	d8802745 	stb	r2,157(sp)
    23dc:	d8002785 	stb	zero,158(sp)
    23e0:	20c00104 	addi	r3,r4,4
    23e4:	25000017 	ldw	r20,0(r4)
    23e8:	002d883a 	mov	r22,zero
    23ec:	90800094 	ori	r2,r18,2
    23f0:	28028616 	blt	r5,zero,2e0c <___svfprintf_internal_r+0xd3c>
    23f4:	00bfdfc4 	movi	r2,-129
    23f8:	90a4703a 	and	r18,r18,r2
    23fc:	d8c02d15 	stw	r3,180(sp)
    2400:	94800094 	ori	r18,r18,2
    2404:	a002731e 	bne	r20,zero,2dd4 <___svfprintf_internal_r+0xd04>
    2408:	008000b4 	movhi	r2,2
    240c:	10bb3504 	addi	r2,r2,-4908
    2410:	d8803a15 	stw	r2,232(sp)
    2414:	04401e04 	movi	r17,120
    2418:	d8c02917 	ldw	r3,164(sp)
    241c:	0039883a 	mov	fp,zero
    2420:	1801d526 	beq	r3,zero,2b78 <___svfprintf_internal_r+0xaa8>
    2424:	0029883a 	mov	r20,zero
    2428:	002d883a 	mov	r22,zero
    242c:	0001f106 	br	2bf4 <___svfprintf_internal_r+0xb24>
    2430:	d9402c17 	ldw	r5,176(sp)
    2434:	d9801e04 	addi	r6,sp,120
    2438:	9809883a 	mov	r4,r19
    243c:	000accc0 	call	accc <__ssprint_r>
    2440:	1000081e 	bne	r2,zero,2464 <___svfprintf_internal_r+0x394>
    2444:	da000404 	addi	r8,sp,16
    2448:	003f6306 	br	21d8 <___svfprintf_internal_r+0x108>
    244c:	d8802017 	ldw	r2,128(sp)
    2450:	10000426 	beq	r2,zero,2464 <___svfprintf_internal_r+0x394>
    2454:	d9402c17 	ldw	r5,176(sp)
    2458:	d9003917 	ldw	r4,228(sp)
    245c:	d9801e04 	addi	r6,sp,120
    2460:	000accc0 	call	accc <__ssprint_r>
    2464:	d8802c17 	ldw	r2,176(sp)
    2468:	10c0030b 	ldhu	r3,12(r2)
    246c:	d8802f17 	ldw	r2,188(sp)
    2470:	18c0100c 	andi	r3,r3,64
    2474:	1805f51e 	bne	r3,zero,3c4c <___svfprintf_internal_r+0x1b7c>
    2478:	dfc04817 	ldw	ra,288(sp)
    247c:	df004717 	ldw	fp,284(sp)
    2480:	ddc04617 	ldw	r23,280(sp)
    2484:	dd804517 	ldw	r22,276(sp)
    2488:	dd404417 	ldw	r21,272(sp)
    248c:	dd004317 	ldw	r20,268(sp)
    2490:	dcc04217 	ldw	r19,264(sp)
    2494:	dc804117 	ldw	r18,260(sp)
    2498:	dc404017 	ldw	r17,256(sp)
    249c:	dc003f17 	ldw	r16,252(sp)
    24a0:	dec04904 	addi	sp,sp,292
    24a4:	f800283a 	ret
    24a8:	d8802d17 	ldw	r2,180(sp)
    24ac:	d9002d17 	ldw	r4,180(sp)
    24b0:	10800017 	ldw	r2,0(r2)
    24b4:	d8803115 	stw	r2,196(sp)
    24b8:	20800104 	addi	r2,r4,4
    24bc:	d9003117 	ldw	r4,196(sp)
    24c0:	203fb916 	blt	r4,zero,23a8 <___svfprintf_internal_r+0x2d8>
    24c4:	d8802d15 	stw	r2,180(sp)
    24c8:	bc400007 	ldb	r17,0(r23)
    24cc:	003f5406 	br	2220 <___svfprintf_internal_r+0x150>
    24d0:	bc400007 	ldb	r17,0(r23)
    24d4:	bac00044 	addi	r11,r23,1
    24d8:	8a873926 	beq	r17,r10,41c0 <___svfprintf_internal_r+0x20f0>
    24dc:	88bff404 	addi	r2,r17,-48
    24e0:	0009883a 	mov	r4,zero
    24e4:	30868836 	bltu	r6,r2,3f08 <___svfprintf_internal_r+0x1e38>
    24e8:	5c400007 	ldb	r17,0(r11)
    24ec:	210002a4 	muli	r4,r4,10
    24f0:	5dc00044 	addi	r23,r11,1
    24f4:	b817883a 	mov	r11,r23
    24f8:	2089883a 	add	r4,r4,r2
    24fc:	88bff404 	addi	r2,r17,-48
    2500:	30bff92e 	bgeu	r6,r2,24e8 <___svfprintf_internal_r+0x418>
    2504:	2005d716 	blt	r4,zero,3c64 <___svfprintf_internal_r+0x1b94>
    2508:	d9002915 	stw	r4,164(sp)
    250c:	003f4506 	br	2224 <___svfprintf_internal_r+0x154>
    2510:	b809883a 	mov	r4,r23
    2514:	d8003115 	stw	zero,196(sp)
    2518:	88bff404 	addi	r2,r17,-48
    251c:	0017883a 	mov	r11,zero
    2520:	24400007 	ldb	r17,0(r4)
    2524:	5ac002a4 	muli	r11,r11,10
    2528:	bdc00044 	addi	r23,r23,1
    252c:	b809883a 	mov	r4,r23
    2530:	12d7883a 	add	r11,r2,r11
    2534:	88bff404 	addi	r2,r17,-48
    2538:	30bff92e 	bgeu	r6,r2,2520 <___svfprintf_internal_r+0x450>
    253c:	dac03115 	stw	r11,196(sp)
    2540:	003f3806 	br	2224 <___svfprintf_internal_r+0x154>
    2544:	94802014 	ori	r18,r18,128
    2548:	bc400007 	ldb	r17,0(r23)
    254c:	003f3406 	br	2220 <___svfprintf_internal_r+0x150>
    2550:	18c03fcc 	andi	r3,r3,255
    2554:	1807471e 	bne	r3,zero,4274 <___svfprintf_internal_r+0x21a4>
    2558:	9080020c 	andi	r2,r18,8
    255c:	10047d26 	beq	r2,zero,3754 <___svfprintf_internal_r+0x1684>
    2560:	d8c02d17 	ldw	r3,180(sp)
    2564:	d9002d17 	ldw	r4,180(sp)
    2568:	d9402d17 	ldw	r5,180(sp)
    256c:	18c00017 	ldw	r3,0(r3)
    2570:	21000117 	ldw	r4,4(r4)
    2574:	29400204 	addi	r5,r5,8
    2578:	d8c03615 	stw	r3,216(sp)
    257c:	d9003715 	stw	r4,220(sp)
    2580:	d9402d15 	stw	r5,180(sp)
    2584:	d9003617 	ldw	r4,216(sp)
    2588:	d9403717 	ldw	r5,220(sp)
    258c:	da003e15 	stw	r8,248(sp)
    2590:	04000044 	movi	r16,1
    2594:	000a9540 	call	a954 <__fpclassifyd>
    2598:	da003e17 	ldw	r8,248(sp)
    259c:	14044b1e 	bne	r2,r16,36cc <___svfprintf_internal_r+0x15fc>
    25a0:	d9003617 	ldw	r4,216(sp)
    25a4:	d9403717 	ldw	r5,220(sp)
    25a8:	000d883a 	mov	r6,zero
    25ac:	000f883a 	mov	r7,zero
    25b0:	0010b2c0 	call	10b2c <__ledf2>
    25b4:	da003e17 	ldw	r8,248(sp)
    25b8:	1005f316 	blt	r2,zero,3d88 <___svfprintf_internal_r+0x1cb8>
    25bc:	df002783 	ldbu	fp,158(sp)
    25c0:	008011c4 	movi	r2,71
    25c4:	1445590e 	bge	r2,r17,3b2c <___svfprintf_internal_r+0x1a5c>
    25c8:	040000b4 	movhi	r16,2
    25cc:	843b2d04 	addi	r16,r16,-4940
    25d0:	00c000c4 	movi	r3,3
    25d4:	00bfdfc4 	movi	r2,-129
    25d8:	d8c02a15 	stw	r3,168(sp)
    25dc:	90a4703a 	and	r18,r18,r2
    25e0:	d8c02e15 	stw	r3,184(sp)
    25e4:	d8002915 	stw	zero,164(sp)
    25e8:	d8003215 	stw	zero,200(sp)
    25ec:	00006606 	br	2788 <___svfprintf_internal_r+0x6b8>
    25f0:	94800214 	ori	r18,r18,8
    25f4:	bc400007 	ldb	r17,0(r23)
    25f8:	003f0906 	br	2220 <___svfprintf_internal_r+0x150>
    25fc:	18c03fcc 	andi	r3,r3,255
    2600:	1807181e 	bne	r3,zero,4264 <___svfprintf_internal_r+0x2194>
    2604:	94800414 	ori	r18,r18,16
    2608:	9080080c 	andi	r2,r18,32
    260c:	10039626 	beq	r2,zero,3468 <___svfprintf_internal_r+0x1398>
    2610:	d9402d17 	ldw	r5,180(sp)
    2614:	28800117 	ldw	r2,4(r5)
    2618:	2d000017 	ldw	r20,0(r5)
    261c:	29400204 	addi	r5,r5,8
    2620:	d9402d15 	stw	r5,180(sp)
    2624:	102d883a 	mov	r22,r2
    2628:	10039816 	blt	r2,zero,348c <___svfprintf_internal_r+0x13bc>
    262c:	d9402917 	ldw	r5,164(sp)
    2630:	df002783 	ldbu	fp,158(sp)
    2634:	2803ab16 	blt	r5,zero,34e4 <___svfprintf_internal_r+0x1414>
    2638:	00ffdfc4 	movi	r3,-129
    263c:	a584b03a 	or	r2,r20,r22
    2640:	90e4703a 	and	r18,r18,r3
    2644:	10014a26 	beq	r2,zero,2b70 <___svfprintf_internal_r+0xaa0>
    2648:	b0034b26 	beq	r22,zero,3378 <___svfprintf_internal_r+0x12a8>
    264c:	dc402a15 	stw	r17,168(sp)
    2650:	dc001e04 	addi	r16,sp,120
    2654:	b023883a 	mov	r17,r22
    2658:	402d883a 	mov	r22,r8
    265c:	a009883a 	mov	r4,r20
    2660:	880b883a 	mov	r5,r17
    2664:	01800284 	movi	r6,10
    2668:	000f883a 	mov	r7,zero
    266c:	000f1480 	call	f148 <__umoddi3>
    2670:	10800c04 	addi	r2,r2,48
    2674:	843fffc4 	addi	r16,r16,-1
    2678:	a009883a 	mov	r4,r20
    267c:	880b883a 	mov	r5,r17
    2680:	80800005 	stb	r2,0(r16)
    2684:	01800284 	movi	r6,10
    2688:	000f883a 	mov	r7,zero
    268c:	000ebd00 	call	ebd0 <__udivdi3>
    2690:	1029883a 	mov	r20,r2
    2694:	10c4b03a 	or	r2,r2,r3
    2698:	1823883a 	mov	r17,r3
    269c:	103fef1e 	bne	r2,zero,265c <___svfprintf_internal_r+0x58c>
    26a0:	d8c02817 	ldw	r3,160(sp)
    26a4:	dc402a17 	ldw	r17,168(sp)
    26a8:	b011883a 	mov	r8,r22
    26ac:	1c07c83a 	sub	r3,r3,r16
    26b0:	d8c02e15 	stw	r3,184(sp)
    26b4:	00002e06 	br	2770 <___svfprintf_internal_r+0x6a0>
    26b8:	18c03fcc 	andi	r3,r3,255
    26bc:	1806e71e 	bne	r3,zero,425c <___svfprintf_internal_r+0x218c>
    26c0:	94800414 	ori	r18,r18,16
    26c4:	9080080c 	andi	r2,r18,32
    26c8:	1002d426 	beq	r2,zero,321c <___svfprintf_internal_r+0x114c>
    26cc:	d9402d17 	ldw	r5,180(sp)
    26d0:	d8c02917 	ldw	r3,164(sp)
    26d4:	d8002785 	stb	zero,158(sp)
    26d8:	28800204 	addi	r2,r5,8
    26dc:	2d000017 	ldw	r20,0(r5)
    26e0:	2d800117 	ldw	r22,4(r5)
    26e4:	18041516 	blt	r3,zero,373c <___svfprintf_internal_r+0x166c>
    26e8:	013fdfc4 	movi	r4,-129
    26ec:	a586b03a 	or	r3,r20,r22
    26f0:	d8802d15 	stw	r2,180(sp)
    26f4:	9124703a 	and	r18,r18,r4
    26f8:	1802d51e 	bne	r3,zero,3250 <___svfprintf_internal_r+0x1180>
    26fc:	d9402917 	ldw	r5,164(sp)
    2700:	0039883a 	mov	fp,zero
    2704:	2806be26 	beq	r5,zero,4200 <___svfprintf_internal_r+0x2130>
    2708:	0029883a 	mov	r20,zero
    270c:	002d883a 	mov	r22,zero
    2710:	dc001e04 	addi	r16,sp,120
    2714:	a006d0fa 	srli	r3,r20,3
    2718:	b008977a 	slli	r4,r22,29
    271c:	b02cd0fa 	srli	r22,r22,3
    2720:	a50001cc 	andi	r20,r20,7
    2724:	a0800c04 	addi	r2,r20,48
    2728:	843fffc4 	addi	r16,r16,-1
    272c:	20e8b03a 	or	r20,r4,r3
    2730:	80800005 	stb	r2,0(r16)
    2734:	a586b03a 	or	r3,r20,r22
    2738:	183ff61e 	bne	r3,zero,2714 <___svfprintf_internal_r+0x644>
    273c:	90c0004c 	andi	r3,r18,1
    2740:	18013926 	beq	r3,zero,2c28 <___svfprintf_internal_r+0xb58>
    2744:	10803fcc 	andi	r2,r2,255
    2748:	1080201c 	xori	r2,r2,128
    274c:	10bfe004 	addi	r2,r2,-128
    2750:	00c00c04 	movi	r3,48
    2754:	10c13426 	beq	r2,r3,2c28 <___svfprintf_internal_r+0xb58>
    2758:	80ffffc5 	stb	r3,-1(r16)
    275c:	d8c02817 	ldw	r3,160(sp)
    2760:	80bfffc4 	addi	r2,r16,-1
    2764:	1021883a 	mov	r16,r2
    2768:	1887c83a 	sub	r3,r3,r2
    276c:	d8c02e15 	stw	r3,184(sp)
    2770:	d8802e17 	ldw	r2,184(sp)
    2774:	d9002917 	ldw	r4,164(sp)
    2778:	1100010e 	bge	r2,r4,2780 <___svfprintf_internal_r+0x6b0>
    277c:	2005883a 	mov	r2,r4
    2780:	d8802a15 	stw	r2,168(sp)
    2784:	d8003215 	stw	zero,200(sp)
    2788:	e7003fcc 	andi	fp,fp,255
    278c:	e700201c 	xori	fp,fp,128
    2790:	e73fe004 	addi	fp,fp,-128
    2794:	e0000326 	beq	fp,zero,27a4 <___svfprintf_internal_r+0x6d4>
    2798:	d8c02a17 	ldw	r3,168(sp)
    279c:	18c00044 	addi	r3,r3,1
    27a0:	d8c02a15 	stw	r3,168(sp)
    27a4:	90c0008c 	andi	r3,r18,2
    27a8:	d8c02b15 	stw	r3,172(sp)
    27ac:	18000326 	beq	r3,zero,27bc <___svfprintf_internal_r+0x6ec>
    27b0:	d8c02a17 	ldw	r3,168(sp)
    27b4:	18c00084 	addi	r3,r3,2
    27b8:	d8c02a15 	stw	r3,168(sp)
    27bc:	90c0210c 	andi	r3,r18,132
    27c0:	d8c03015 	stw	r3,192(sp)
    27c4:	1801a11e 	bne	r3,zero,2e4c <___svfprintf_internal_r+0xd7c>
    27c8:	d9003117 	ldw	r4,196(sp)
    27cc:	d8c02a17 	ldw	r3,168(sp)
    27d0:	20e9c83a 	sub	r20,r4,r3
    27d4:	05019d0e 	bge	zero,r20,2e4c <___svfprintf_internal_r+0xd7c>
    27d8:	02400404 	movi	r9,16
    27dc:	d8c02017 	ldw	r3,128(sp)
    27e0:	d8801f17 	ldw	r2,124(sp)
    27e4:	4d051b0e 	bge	r9,r20,3c54 <___svfprintf_internal_r+0x1b84>
    27e8:	014000b4 	movhi	r5,2
    27ec:	297b4084 	addi	r5,r5,-4862
    27f0:	dc403c15 	stw	r17,240(sp)
    27f4:	d9403515 	stw	r5,212(sp)
    27f8:	a023883a 	mov	r17,r20
    27fc:	482d883a 	mov	r22,r9
    2800:	9029883a 	mov	r20,r18
    2804:	070001c4 	movi	fp,7
    2808:	8025883a 	mov	r18,r16
    280c:	dc002c17 	ldw	r16,176(sp)
    2810:	00000306 	br	2820 <___svfprintf_internal_r+0x750>
    2814:	8c7ffc04 	addi	r17,r17,-16
    2818:	42000204 	addi	r8,r8,8
    281c:	b440130e 	bge	r22,r17,286c <___svfprintf_internal_r+0x79c>
    2820:	010000b4 	movhi	r4,2
    2824:	18c00404 	addi	r3,r3,16
    2828:	10800044 	addi	r2,r2,1
    282c:	213b4084 	addi	r4,r4,-4862
    2830:	41000015 	stw	r4,0(r8)
    2834:	45800115 	stw	r22,4(r8)
    2838:	d8c02015 	stw	r3,128(sp)
    283c:	d8801f15 	stw	r2,124(sp)
    2840:	e0bff40e 	bge	fp,r2,2814 <___svfprintf_internal_r+0x744>
    2844:	d9801e04 	addi	r6,sp,120
    2848:	800b883a 	mov	r5,r16
    284c:	9809883a 	mov	r4,r19
    2850:	000accc0 	call	accc <__ssprint_r>
    2854:	103f031e 	bne	r2,zero,2464 <___svfprintf_internal_r+0x394>
    2858:	8c7ffc04 	addi	r17,r17,-16
    285c:	d8c02017 	ldw	r3,128(sp)
    2860:	d8801f17 	ldw	r2,124(sp)
    2864:	da000404 	addi	r8,sp,16
    2868:	b47fed16 	blt	r22,r17,2820 <___svfprintf_internal_r+0x750>
    286c:	9021883a 	mov	r16,r18
    2870:	a025883a 	mov	r18,r20
    2874:	8829883a 	mov	r20,r17
    2878:	dc403c17 	ldw	r17,240(sp)
    287c:	d9403517 	ldw	r5,212(sp)
    2880:	a0c7883a 	add	r3,r20,r3
    2884:	10800044 	addi	r2,r2,1
    2888:	41400015 	stw	r5,0(r8)
    288c:	45000115 	stw	r20,4(r8)
    2890:	d8c02015 	stw	r3,128(sp)
    2894:	d8801f15 	stw	r2,124(sp)
    2898:	010001c4 	movi	r4,7
    289c:	20829f16 	blt	r4,r2,331c <___svfprintf_internal_r+0x124c>
    28a0:	df002787 	ldb	fp,158(sp)
    28a4:	42000204 	addi	r8,r8,8
    28a8:	e0000c26 	beq	fp,zero,28dc <___svfprintf_internal_r+0x80c>
    28ac:	d8801f17 	ldw	r2,124(sp)
    28b0:	d9002784 	addi	r4,sp,158
    28b4:	18c00044 	addi	r3,r3,1
    28b8:	10800044 	addi	r2,r2,1
    28bc:	41000015 	stw	r4,0(r8)
    28c0:	01000044 	movi	r4,1
    28c4:	41000115 	stw	r4,4(r8)
    28c8:	d8c02015 	stw	r3,128(sp)
    28cc:	d8801f15 	stw	r2,124(sp)
    28d0:	010001c4 	movi	r4,7
    28d4:	20823816 	blt	r4,r2,31b8 <___svfprintf_internal_r+0x10e8>
    28d8:	42000204 	addi	r8,r8,8
    28dc:	d8802b17 	ldw	r2,172(sp)
    28e0:	10000c26 	beq	r2,zero,2914 <___svfprintf_internal_r+0x844>
    28e4:	d8801f17 	ldw	r2,124(sp)
    28e8:	d9002704 	addi	r4,sp,156
    28ec:	18c00084 	addi	r3,r3,2
    28f0:	10800044 	addi	r2,r2,1
    28f4:	41000015 	stw	r4,0(r8)
    28f8:	01000084 	movi	r4,2
    28fc:	41000115 	stw	r4,4(r8)
    2900:	d8c02015 	stw	r3,128(sp)
    2904:	d8801f15 	stw	r2,124(sp)
    2908:	010001c4 	movi	r4,7
    290c:	20823216 	blt	r4,r2,31d8 <___svfprintf_internal_r+0x1108>
    2910:	42000204 	addi	r8,r8,8
    2914:	d9003017 	ldw	r4,192(sp)
    2918:	00802004 	movi	r2,128
    291c:	20819726 	beq	r4,r2,2f7c <___svfprintf_internal_r+0xeac>
    2920:	d9402917 	ldw	r5,164(sp)
    2924:	d8802e17 	ldw	r2,184(sp)
    2928:	28adc83a 	sub	r22,r5,r2
    292c:	05802f0e 	bge	zero,r22,29ec <___svfprintf_internal_r+0x91c>
    2930:	07000404 	movi	fp,16
    2934:	d8801f17 	ldw	r2,124(sp)
    2938:	e583c00e 	bge	fp,r22,383c <___svfprintf_internal_r+0x176c>
    293c:	014000b4 	movhi	r5,2
    2940:	297b3c84 	addi	r5,r5,-4878
    2944:	dc402915 	stw	r17,164(sp)
    2948:	d9402b15 	stw	r5,172(sp)
    294c:	b023883a 	mov	r17,r22
    2950:	050001c4 	movi	r20,7
    2954:	902d883a 	mov	r22,r18
    2958:	8025883a 	mov	r18,r16
    295c:	dc002c17 	ldw	r16,176(sp)
    2960:	00000306 	br	2970 <___svfprintf_internal_r+0x8a0>
    2964:	8c7ffc04 	addi	r17,r17,-16
    2968:	42000204 	addi	r8,r8,8
    296c:	e440110e 	bge	fp,r17,29b4 <___svfprintf_internal_r+0x8e4>
    2970:	18c00404 	addi	r3,r3,16
    2974:	10800044 	addi	r2,r2,1
    2978:	45400015 	stw	r21,0(r8)
    297c:	47000115 	stw	fp,4(r8)
    2980:	d8c02015 	stw	r3,128(sp)
    2984:	d8801f15 	stw	r2,124(sp)
    2988:	a0bff60e 	bge	r20,r2,2964 <___svfprintf_internal_r+0x894>
    298c:	d9801e04 	addi	r6,sp,120
    2990:	800b883a 	mov	r5,r16
    2994:	9809883a 	mov	r4,r19
    2998:	000accc0 	call	accc <__ssprint_r>
    299c:	103eb11e 	bne	r2,zero,2464 <___svfprintf_internal_r+0x394>
    29a0:	8c7ffc04 	addi	r17,r17,-16
    29a4:	d8c02017 	ldw	r3,128(sp)
    29a8:	d8801f17 	ldw	r2,124(sp)
    29ac:	da000404 	addi	r8,sp,16
    29b0:	e47fef16 	blt	fp,r17,2970 <___svfprintf_internal_r+0x8a0>
    29b4:	9021883a 	mov	r16,r18
    29b8:	b025883a 	mov	r18,r22
    29bc:	882d883a 	mov	r22,r17
    29c0:	dc402917 	ldw	r17,164(sp)
    29c4:	d9002b17 	ldw	r4,172(sp)
    29c8:	1d87883a 	add	r3,r3,r22
    29cc:	10800044 	addi	r2,r2,1
    29d0:	41000015 	stw	r4,0(r8)
    29d4:	45800115 	stw	r22,4(r8)
    29d8:	d8c02015 	stw	r3,128(sp)
    29dc:	d8801f15 	stw	r2,124(sp)
    29e0:	010001c4 	movi	r4,7
    29e4:	2081ec16 	blt	r4,r2,3198 <___svfprintf_internal_r+0x10c8>
    29e8:	42000204 	addi	r8,r8,8
    29ec:	9080400c 	andi	r2,r18,256
    29f0:	1001181e 	bne	r2,zero,2e54 <___svfprintf_internal_r+0xd84>
    29f4:	d9402e17 	ldw	r5,184(sp)
    29f8:	d8801f17 	ldw	r2,124(sp)
    29fc:	44000015 	stw	r16,0(r8)
    2a00:	1947883a 	add	r3,r3,r5
    2a04:	10800044 	addi	r2,r2,1
    2a08:	41400115 	stw	r5,4(r8)
    2a0c:	d8c02015 	stw	r3,128(sp)
    2a10:	d8801f15 	stw	r2,124(sp)
    2a14:	010001c4 	movi	r4,7
    2a18:	2081d116 	blt	r4,r2,3160 <___svfprintf_internal_r+0x1090>
    2a1c:	42000204 	addi	r8,r8,8
    2a20:	9480010c 	andi	r18,r18,4
    2a24:	90003226 	beq	r18,zero,2af0 <___svfprintf_internal_r+0xa20>
    2a28:	d9403117 	ldw	r5,196(sp)
    2a2c:	d8802a17 	ldw	r2,168(sp)
    2a30:	28a1c83a 	sub	r16,r5,r2
    2a34:	04002e0e 	bge	zero,r16,2af0 <___svfprintf_internal_r+0xa20>
    2a38:	04400404 	movi	r17,16
    2a3c:	d8801f17 	ldw	r2,124(sp)
    2a40:	8c04b90e 	bge	r17,r16,3d28 <___svfprintf_internal_r+0x1c58>
    2a44:	014000b4 	movhi	r5,2
    2a48:	297b4084 	addi	r5,r5,-4862
    2a4c:	d9403515 	stw	r5,212(sp)
    2a50:	048001c4 	movi	r18,7
    2a54:	dd002c17 	ldw	r20,176(sp)
    2a58:	00000306 	br	2a68 <___svfprintf_internal_r+0x998>
    2a5c:	843ffc04 	addi	r16,r16,-16
    2a60:	42000204 	addi	r8,r8,8
    2a64:	8c00130e 	bge	r17,r16,2ab4 <___svfprintf_internal_r+0x9e4>
    2a68:	010000b4 	movhi	r4,2
    2a6c:	18c00404 	addi	r3,r3,16
    2a70:	10800044 	addi	r2,r2,1
    2a74:	213b4084 	addi	r4,r4,-4862
    2a78:	41000015 	stw	r4,0(r8)
    2a7c:	44400115 	stw	r17,4(r8)
    2a80:	d8c02015 	stw	r3,128(sp)
    2a84:	d8801f15 	stw	r2,124(sp)
    2a88:	90bff40e 	bge	r18,r2,2a5c <___svfprintf_internal_r+0x98c>
    2a8c:	d9801e04 	addi	r6,sp,120
    2a90:	a00b883a 	mov	r5,r20
    2a94:	9809883a 	mov	r4,r19
    2a98:	000accc0 	call	accc <__ssprint_r>
    2a9c:	103e711e 	bne	r2,zero,2464 <___svfprintf_internal_r+0x394>
    2aa0:	843ffc04 	addi	r16,r16,-16
    2aa4:	d8c02017 	ldw	r3,128(sp)
    2aa8:	d8801f17 	ldw	r2,124(sp)
    2aac:	da000404 	addi	r8,sp,16
    2ab0:	8c3fed16 	blt	r17,r16,2a68 <___svfprintf_internal_r+0x998>
    2ab4:	d9403517 	ldw	r5,212(sp)
    2ab8:	1c07883a 	add	r3,r3,r16
    2abc:	10800044 	addi	r2,r2,1
    2ac0:	41400015 	stw	r5,0(r8)
    2ac4:	44000115 	stw	r16,4(r8)
    2ac8:	d8c02015 	stw	r3,128(sp)
    2acc:	d8801f15 	stw	r2,124(sp)
    2ad0:	010001c4 	movi	r4,7
    2ad4:	2080060e 	bge	r4,r2,2af0 <___svfprintf_internal_r+0xa20>
    2ad8:	d9402c17 	ldw	r5,176(sp)
    2adc:	d9801e04 	addi	r6,sp,120
    2ae0:	9809883a 	mov	r4,r19
    2ae4:	000accc0 	call	accc <__ssprint_r>
    2ae8:	103e5e1e 	bne	r2,zero,2464 <___svfprintf_internal_r+0x394>
    2aec:	d8c02017 	ldw	r3,128(sp)
    2af0:	d8803117 	ldw	r2,196(sp)
    2af4:	d9002a17 	ldw	r4,168(sp)
    2af8:	1100010e 	bge	r2,r4,2b00 <___svfprintf_internal_r+0xa30>
    2afc:	2005883a 	mov	r2,r4
    2b00:	d9402f17 	ldw	r5,188(sp)
    2b04:	288b883a 	add	r5,r5,r2
    2b08:	d9402f15 	stw	r5,188(sp)
    2b0c:	18019c1e 	bne	r3,zero,3180 <___svfprintf_internal_r+0x10b0>
    2b10:	b8800007 	ldb	r2,0(r23)
    2b14:	d8001f15 	stw	zero,124(sp)
    2b18:	da000404 	addi	r8,sp,16
    2b1c:	103d991e 	bne	r2,zero,2184 <___svfprintf_internal_r+0xb4>
    2b20:	b821883a 	mov	r16,r23
    2b24:	003daf06 	br	21e4 <___svfprintf_internal_r+0x114>
    2b28:	18c03fcc 	andi	r3,r3,255
    2b2c:	1805c71e 	bne	r3,zero,424c <___svfprintf_internal_r+0x217c>
    2b30:	94800414 	ori	r18,r18,16
    2b34:	9080080c 	andi	r2,r18,32
    2b38:	10020126 	beq	r2,zero,3340 <___svfprintf_internal_r+0x1270>
    2b3c:	d8802d17 	ldw	r2,180(sp)
    2b40:	d9002917 	ldw	r4,164(sp)
    2b44:	d8002785 	stb	zero,158(sp)
    2b48:	10c00204 	addi	r3,r2,8
    2b4c:	15000017 	ldw	r20,0(r2)
    2b50:	15800117 	ldw	r22,4(r2)
    2b54:	20038e16 	blt	r4,zero,3990 <___svfprintf_internal_r+0x18c0>
    2b58:	013fdfc4 	movi	r4,-129
    2b5c:	a584b03a 	or	r2,r20,r22
    2b60:	d8c02d15 	stw	r3,180(sp)
    2b64:	9124703a 	and	r18,r18,r4
    2b68:	0039883a 	mov	fp,zero
    2b6c:	103eb61e 	bne	r2,zero,2648 <___svfprintf_internal_r+0x578>
    2b70:	d8802917 	ldw	r2,164(sp)
    2b74:	1002c81e 	bne	r2,zero,3698 <___svfprintf_internal_r+0x15c8>
    2b78:	d8002915 	stw	zero,164(sp)
    2b7c:	d8002e15 	stw	zero,184(sp)
    2b80:	dc001e04 	addi	r16,sp,120
    2b84:	003efa06 	br	2770 <___svfprintf_internal_r+0x6a0>
    2b88:	18c03fcc 	andi	r3,r3,255
    2b8c:	1805ad1e 	bne	r3,zero,4244 <___svfprintf_internal_r+0x2174>
    2b90:	014000b4 	movhi	r5,2
    2b94:	297b3004 	addi	r5,r5,-4928
    2b98:	d9403a15 	stw	r5,232(sp)
    2b9c:	9080080c 	andi	r2,r18,32
    2ba0:	10006126 	beq	r2,zero,2d28 <___svfprintf_internal_r+0xc58>
    2ba4:	d8802d17 	ldw	r2,180(sp)
    2ba8:	15000017 	ldw	r20,0(r2)
    2bac:	15800117 	ldw	r22,4(r2)
    2bb0:	10800204 	addi	r2,r2,8
    2bb4:	d8802d15 	stw	r2,180(sp)
    2bb8:	9080004c 	andi	r2,r18,1
    2bbc:	10018e26 	beq	r2,zero,31f8 <___svfprintf_internal_r+0x1128>
    2bc0:	a584b03a 	or	r2,r20,r22
    2bc4:	10030926 	beq	r2,zero,37ec <___svfprintf_internal_r+0x171c>
    2bc8:	d8c02917 	ldw	r3,164(sp)
    2bcc:	00800c04 	movi	r2,48
    2bd0:	d8802705 	stb	r2,156(sp)
    2bd4:	dc402745 	stb	r17,157(sp)
    2bd8:	d8002785 	stb	zero,158(sp)
    2bdc:	90800094 	ori	r2,r18,2
    2be0:	18048716 	blt	r3,zero,3e00 <___svfprintf_internal_r+0x1d30>
    2be4:	00bfdfc4 	movi	r2,-129
    2be8:	90a4703a 	and	r18,r18,r2
    2bec:	94800094 	ori	r18,r18,2
    2bf0:	0039883a 	mov	fp,zero
    2bf4:	d9003a17 	ldw	r4,232(sp)
    2bf8:	dc001e04 	addi	r16,sp,120
    2bfc:	a08003cc 	andi	r2,r20,15
    2c00:	b006973a 	slli	r3,r22,28
    2c04:	2085883a 	add	r2,r4,r2
    2c08:	a028d13a 	srli	r20,r20,4
    2c0c:	10800003 	ldbu	r2,0(r2)
    2c10:	b02cd13a 	srli	r22,r22,4
    2c14:	843fffc4 	addi	r16,r16,-1
    2c18:	1d28b03a 	or	r20,r3,r20
    2c1c:	80800005 	stb	r2,0(r16)
    2c20:	a584b03a 	or	r2,r20,r22
    2c24:	103ff51e 	bne	r2,zero,2bfc <___svfprintf_internal_r+0xb2c>
    2c28:	d8c02817 	ldw	r3,160(sp)
    2c2c:	1c07c83a 	sub	r3,r3,r16
    2c30:	d8c02e15 	stw	r3,184(sp)
    2c34:	003ece06 	br	2770 <___svfprintf_internal_r+0x6a0>
    2c38:	d8c02d17 	ldw	r3,180(sp)
    2c3c:	d9002d17 	ldw	r4,180(sp)
    2c40:	d8002785 	stb	zero,158(sp)
    2c44:	18800017 	ldw	r2,0(r3)
    2c48:	21000104 	addi	r4,r4,4
    2c4c:	00c00044 	movi	r3,1
    2c50:	d8c02a15 	stw	r3,168(sp)
    2c54:	d8801405 	stb	r2,80(sp)
    2c58:	d9002d15 	stw	r4,180(sp)
    2c5c:	d8c02e15 	stw	r3,184(sp)
    2c60:	d8002915 	stw	zero,164(sp)
    2c64:	d8003215 	stw	zero,200(sp)
    2c68:	dc001404 	addi	r16,sp,80
    2c6c:	0039883a 	mov	fp,zero
    2c70:	003ecc06 	br	27a4 <___svfprintf_internal_r+0x6d4>
    2c74:	18c03fcc 	andi	r3,r3,255
    2c78:	183e9226 	beq	r3,zero,26c4 <___svfprintf_internal_r+0x5f4>
    2c7c:	d9c02785 	stb	r7,158(sp)
    2c80:	003e9006 	br	26c4 <___svfprintf_internal_r+0x5f4>
    2c84:	00c00044 	movi	r3,1
    2c88:	01c00ac4 	movi	r7,43
    2c8c:	bc400007 	ldb	r17,0(r23)
    2c90:	003d6306 	br	2220 <___svfprintf_internal_r+0x150>
    2c94:	94800814 	ori	r18,r18,32
    2c98:	bc400007 	ldb	r17,0(r23)
    2c9c:	003d6006 	br	2220 <___svfprintf_internal_r+0x150>
    2ca0:	d8c02d17 	ldw	r3,180(sp)
    2ca4:	d8002785 	stb	zero,158(sp)
    2ca8:	1c000017 	ldw	r16,0(r3)
    2cac:	1d000104 	addi	r20,r3,4
    2cb0:	80040f26 	beq	r16,zero,3cf0 <___svfprintf_internal_r+0x1c20>
    2cb4:	d9002917 	ldw	r4,164(sp)
    2cb8:	2003dc16 	blt	r4,zero,3c2c <___svfprintf_internal_r+0x1b5c>
    2cbc:	200d883a 	mov	r6,r4
    2cc0:	000b883a 	mov	r5,zero
    2cc4:	8009883a 	mov	r4,r16
    2cc8:	da003e15 	stw	r8,248(sp)
    2ccc:	00096040 	call	9604 <memchr>
    2cd0:	da003e17 	ldw	r8,248(sp)
    2cd4:	10045826 	beq	r2,zero,3e38 <___svfprintf_internal_r+0x1d68>
    2cd8:	1405c83a 	sub	r2,r2,r16
    2cdc:	d8802e15 	stw	r2,184(sp)
    2ce0:	1003d816 	blt	r2,zero,3c44 <___svfprintf_internal_r+0x1b74>
    2ce4:	df002783 	ldbu	fp,158(sp)
    2ce8:	d8802a15 	stw	r2,168(sp)
    2cec:	dd002d15 	stw	r20,180(sp)
    2cf0:	d8002915 	stw	zero,164(sp)
    2cf4:	d8003215 	stw	zero,200(sp)
    2cf8:	003ea306 	br	2788 <___svfprintf_internal_r+0x6b8>
    2cfc:	18c03fcc 	andi	r3,r3,255
    2d00:	183f8c26 	beq	r3,zero,2b34 <___svfprintf_internal_r+0xa64>
    2d04:	d9c02785 	stb	r7,158(sp)
    2d08:	003f8a06 	br	2b34 <___svfprintf_internal_r+0xa64>
    2d0c:	18c03fcc 	andi	r3,r3,255
    2d10:	1805631e 	bne	r3,zero,42a0 <___svfprintf_internal_r+0x21d0>
    2d14:	014000b4 	movhi	r5,2
    2d18:	297b3504 	addi	r5,r5,-4908
    2d1c:	d9403a15 	stw	r5,232(sp)
    2d20:	9080080c 	andi	r2,r18,32
    2d24:	103f9f1e 	bne	r2,zero,2ba4 <___svfprintf_internal_r+0xad4>
    2d28:	9080040c 	andi	r2,r18,16
    2d2c:	10029c26 	beq	r2,zero,37a0 <___svfprintf_internal_r+0x16d0>
    2d30:	d8c02d17 	ldw	r3,180(sp)
    2d34:	002d883a 	mov	r22,zero
    2d38:	1d000017 	ldw	r20,0(r3)
    2d3c:	18c00104 	addi	r3,r3,4
    2d40:	d8c02d15 	stw	r3,180(sp)
    2d44:	003f9c06 	br	2bb8 <___svfprintf_internal_r+0xae8>
    2d48:	94800054 	ori	r18,r18,1
    2d4c:	bc400007 	ldb	r17,0(r23)
    2d50:	003d3306 	br	2220 <___svfprintf_internal_r+0x150>
    2d54:	38803fcc 	andi	r2,r7,255
    2d58:	1080201c 	xori	r2,r2,128
    2d5c:	10bfe004 	addi	r2,r2,-128
    2d60:	1002971e 	bne	r2,zero,37c0 <___svfprintf_internal_r+0x16f0>
    2d64:	00c00044 	movi	r3,1
    2d68:	01c00804 	movi	r7,32
    2d6c:	bc400007 	ldb	r17,0(r23)
    2d70:	003d2b06 	br	2220 <___svfprintf_internal_r+0x150>
    2d74:	18c03fcc 	andi	r3,r3,255
    2d78:	183e2326 	beq	r3,zero,2608 <___svfprintf_internal_r+0x538>
    2d7c:	d9c02785 	stb	r7,158(sp)
    2d80:	003e2106 	br	2608 <___svfprintf_internal_r+0x538>
    2d84:	bc400007 	ldb	r17,0(r23)
    2d88:	8a430426 	beq	r17,r9,399c <___svfprintf_internal_r+0x18cc>
    2d8c:	94800414 	ori	r18,r18,16
    2d90:	003d2306 	br	2220 <___svfprintf_internal_r+0x150>
    2d94:	18c03fcc 	andi	r3,r3,255
    2d98:	18053f1e 	bne	r3,zero,4298 <___svfprintf_internal_r+0x21c8>
    2d9c:	9080080c 	andi	r2,r18,32
    2da0:	10028926 	beq	r2,zero,37c8 <___svfprintf_internal_r+0x16f8>
    2da4:	d9402d17 	ldw	r5,180(sp)
    2da8:	d9002f17 	ldw	r4,188(sp)
    2dac:	28800017 	ldw	r2,0(r5)
    2db0:	2007d7fa 	srai	r3,r4,31
    2db4:	29400104 	addi	r5,r5,4
    2db8:	d9402d15 	stw	r5,180(sp)
    2dbc:	11000015 	stw	r4,0(r2)
    2dc0:	10c00115 	stw	r3,4(r2)
    2dc4:	003ced06 	br	217c <___svfprintf_internal_r+0xac>
    2dc8:	94801014 	ori	r18,r18,64
    2dcc:	bc400007 	ldb	r17,0(r23)
    2dd0:	003d1306 	br	2220 <___svfprintf_internal_r+0x150>
    2dd4:	010000b4 	movhi	r4,2
    2dd8:	213b3504 	addi	r4,r4,-4908
    2ddc:	0039883a 	mov	fp,zero
    2de0:	d9003a15 	stw	r4,232(sp)
    2de4:	04401e04 	movi	r17,120
    2de8:	003f8206 	br	2bf4 <___svfprintf_internal_r+0xb24>
    2dec:	18c03fcc 	andi	r3,r3,255
    2df0:	1805221e 	bne	r3,zero,427c <___svfprintf_internal_r+0x21ac>
    2df4:	883d9526 	beq	r17,zero,244c <___svfprintf_internal_r+0x37c>
    2df8:	00c00044 	movi	r3,1
    2dfc:	d8c02a15 	stw	r3,168(sp)
    2e00:	dc401405 	stb	r17,80(sp)
    2e04:	d8002785 	stb	zero,158(sp)
    2e08:	003f9406 	br	2c5c <___svfprintf_internal_r+0xb8c>
    2e0c:	010000b4 	movhi	r4,2
    2e10:	213b3504 	addi	r4,r4,-4908
    2e14:	d9003a15 	stw	r4,232(sp)
    2e18:	d8c02d15 	stw	r3,180(sp)
    2e1c:	1025883a 	mov	r18,r2
    2e20:	04401e04 	movi	r17,120
    2e24:	a584b03a 	or	r2,r20,r22
    2e28:	1000fa1e 	bne	r2,zero,3214 <___svfprintf_internal_r+0x1144>
    2e2c:	0039883a 	mov	fp,zero
    2e30:	00800084 	movi	r2,2
    2e34:	10803fcc 	andi	r2,r2,255
    2e38:	00c00044 	movi	r3,1
    2e3c:	10c21626 	beq	r2,r3,3698 <___svfprintf_internal_r+0x15c8>
    2e40:	00c00084 	movi	r3,2
    2e44:	10fe301e 	bne	r2,r3,2708 <___svfprintf_internal_r+0x638>
    2e48:	003d7606 	br	2424 <___svfprintf_internal_r+0x354>
    2e4c:	d8c02017 	ldw	r3,128(sp)
    2e50:	003e9506 	br	28a8 <___svfprintf_internal_r+0x7d8>
    2e54:	00801944 	movi	r2,101
    2e58:	14407c0e 	bge	r2,r17,304c <___svfprintf_internal_r+0xf7c>
    2e5c:	d9003617 	ldw	r4,216(sp)
    2e60:	d9403717 	ldw	r5,220(sp)
    2e64:	000d883a 	mov	r6,zero
    2e68:	000f883a 	mov	r7,zero
    2e6c:	d8c03d15 	stw	r3,244(sp)
    2e70:	da003e15 	stw	r8,248(sp)
    2e74:	00109c80 	call	109c8 <__eqdf2>
    2e78:	d8c03d17 	ldw	r3,244(sp)
    2e7c:	da003e17 	ldw	r8,248(sp)
    2e80:	1000f51e 	bne	r2,zero,3258 <___svfprintf_internal_r+0x1188>
    2e84:	d8801f17 	ldw	r2,124(sp)
    2e88:	010000b4 	movhi	r4,2
    2e8c:	213b3c04 	addi	r4,r4,-4880
    2e90:	18c00044 	addi	r3,r3,1
    2e94:	10800044 	addi	r2,r2,1
    2e98:	41000015 	stw	r4,0(r8)
    2e9c:	01000044 	movi	r4,1
    2ea0:	41000115 	stw	r4,4(r8)
    2ea4:	d8c02015 	stw	r3,128(sp)
    2ea8:	d8801f15 	stw	r2,124(sp)
    2eac:	010001c4 	movi	r4,7
    2eb0:	20826616 	blt	r4,r2,384c <___svfprintf_internal_r+0x177c>
    2eb4:	42000204 	addi	r8,r8,8
    2eb8:	d8802617 	ldw	r2,152(sp)
    2ebc:	d9403317 	ldw	r5,204(sp)
    2ec0:	11400216 	blt	r2,r5,2ecc <___svfprintf_internal_r+0xdfc>
    2ec4:	9080004c 	andi	r2,r18,1
    2ec8:	103ed526 	beq	r2,zero,2a20 <___svfprintf_internal_r+0x950>
    2ecc:	d8803817 	ldw	r2,224(sp)
    2ed0:	d9003417 	ldw	r4,208(sp)
    2ed4:	d9403817 	ldw	r5,224(sp)
    2ed8:	1887883a 	add	r3,r3,r2
    2edc:	d8801f17 	ldw	r2,124(sp)
    2ee0:	41000015 	stw	r4,0(r8)
    2ee4:	41400115 	stw	r5,4(r8)
    2ee8:	10800044 	addi	r2,r2,1
    2eec:	d8c02015 	stw	r3,128(sp)
    2ef0:	d8801f15 	stw	r2,124(sp)
    2ef4:	010001c4 	movi	r4,7
    2ef8:	2082af16 	blt	r4,r2,39b8 <___svfprintf_internal_r+0x18e8>
    2efc:	42000204 	addi	r8,r8,8
    2f00:	d8803317 	ldw	r2,204(sp)
    2f04:	143fffc4 	addi	r16,r2,-1
    2f08:	043ec50e 	bge	zero,r16,2a20 <___svfprintf_internal_r+0x950>
    2f0c:	04400404 	movi	r17,16
    2f10:	d8801f17 	ldw	r2,124(sp)
    2f14:	8c00860e 	bge	r17,r16,3130 <___svfprintf_internal_r+0x1060>
    2f18:	014000b4 	movhi	r5,2
    2f1c:	297b3c84 	addi	r5,r5,-4878
    2f20:	d9402b15 	stw	r5,172(sp)
    2f24:	058001c4 	movi	r22,7
    2f28:	dd002c17 	ldw	r20,176(sp)
    2f2c:	00000306 	br	2f3c <___svfprintf_internal_r+0xe6c>
    2f30:	42000204 	addi	r8,r8,8
    2f34:	843ffc04 	addi	r16,r16,-16
    2f38:	8c00800e 	bge	r17,r16,313c <___svfprintf_internal_r+0x106c>
    2f3c:	18c00404 	addi	r3,r3,16
    2f40:	10800044 	addi	r2,r2,1
    2f44:	45400015 	stw	r21,0(r8)
    2f48:	44400115 	stw	r17,4(r8)
    2f4c:	d8c02015 	stw	r3,128(sp)
    2f50:	d8801f15 	stw	r2,124(sp)
    2f54:	b0bff60e 	bge	r22,r2,2f30 <___svfprintf_internal_r+0xe60>
    2f58:	d9801e04 	addi	r6,sp,120
    2f5c:	a00b883a 	mov	r5,r20
    2f60:	9809883a 	mov	r4,r19
    2f64:	000accc0 	call	accc <__ssprint_r>
    2f68:	103d3e1e 	bne	r2,zero,2464 <___svfprintf_internal_r+0x394>
    2f6c:	d8c02017 	ldw	r3,128(sp)
    2f70:	d8801f17 	ldw	r2,124(sp)
    2f74:	da000404 	addi	r8,sp,16
    2f78:	003fee06 	br	2f34 <___svfprintf_internal_r+0xe64>
    2f7c:	d9403117 	ldw	r5,196(sp)
    2f80:	d8802a17 	ldw	r2,168(sp)
    2f84:	28adc83a 	sub	r22,r5,r2
    2f88:	05be650e 	bge	zero,r22,2920 <___svfprintf_internal_r+0x850>
    2f8c:	07000404 	movi	fp,16
    2f90:	d8801f17 	ldw	r2,124(sp)
    2f94:	e583a20e 	bge	fp,r22,3e20 <___svfprintf_internal_r+0x1d50>
    2f98:	014000b4 	movhi	r5,2
    2f9c:	297b3c84 	addi	r5,r5,-4878
    2fa0:	dc403015 	stw	r17,192(sp)
    2fa4:	d9402b15 	stw	r5,172(sp)
    2fa8:	b023883a 	mov	r17,r22
    2fac:	050001c4 	movi	r20,7
    2fb0:	902d883a 	mov	r22,r18
    2fb4:	8025883a 	mov	r18,r16
    2fb8:	dc002c17 	ldw	r16,176(sp)
    2fbc:	00000306 	br	2fcc <___svfprintf_internal_r+0xefc>
    2fc0:	8c7ffc04 	addi	r17,r17,-16
    2fc4:	42000204 	addi	r8,r8,8
    2fc8:	e440110e 	bge	fp,r17,3010 <___svfprintf_internal_r+0xf40>
    2fcc:	18c00404 	addi	r3,r3,16
    2fd0:	10800044 	addi	r2,r2,1
    2fd4:	45400015 	stw	r21,0(r8)
    2fd8:	47000115 	stw	fp,4(r8)
    2fdc:	d8c02015 	stw	r3,128(sp)
    2fe0:	d8801f15 	stw	r2,124(sp)
    2fe4:	a0bff60e 	bge	r20,r2,2fc0 <___svfprintf_internal_r+0xef0>
    2fe8:	d9801e04 	addi	r6,sp,120
    2fec:	800b883a 	mov	r5,r16
    2ff0:	9809883a 	mov	r4,r19
    2ff4:	000accc0 	call	accc <__ssprint_r>
    2ff8:	103d1a1e 	bne	r2,zero,2464 <___svfprintf_internal_r+0x394>
    2ffc:	8c7ffc04 	addi	r17,r17,-16
    3000:	d8c02017 	ldw	r3,128(sp)
    3004:	d8801f17 	ldw	r2,124(sp)
    3008:	da000404 	addi	r8,sp,16
    300c:	e47fef16 	blt	fp,r17,2fcc <___svfprintf_internal_r+0xefc>
    3010:	9021883a 	mov	r16,r18
    3014:	b025883a 	mov	r18,r22
    3018:	882d883a 	mov	r22,r17
    301c:	dc403017 	ldw	r17,192(sp)
    3020:	d9002b17 	ldw	r4,172(sp)
    3024:	1d87883a 	add	r3,r3,r22
    3028:	10800044 	addi	r2,r2,1
    302c:	41000015 	stw	r4,0(r8)
    3030:	45800115 	stw	r22,4(r8)
    3034:	d8c02015 	stw	r3,128(sp)
    3038:	d8801f15 	stw	r2,124(sp)
    303c:	010001c4 	movi	r4,7
    3040:	20819a16 	blt	r4,r2,36ac <___svfprintf_internal_r+0x15dc>
    3044:	42000204 	addi	r8,r8,8
    3048:	003e3506 	br	2920 <___svfprintf_internal_r+0x850>
    304c:	d9403317 	ldw	r5,204(sp)
    3050:	00800044 	movi	r2,1
    3054:	18c00044 	addi	r3,r3,1
    3058:	1141710e 	bge	r2,r5,3620 <___svfprintf_internal_r+0x1550>
    305c:	dc401f17 	ldw	r17,124(sp)
    3060:	00800044 	movi	r2,1
    3064:	40800115 	stw	r2,4(r8)
    3068:	8c400044 	addi	r17,r17,1
    306c:	44000015 	stw	r16,0(r8)
    3070:	d8c02015 	stw	r3,128(sp)
    3074:	dc401f15 	stw	r17,124(sp)
    3078:	008001c4 	movi	r2,7
    307c:	14417416 	blt	r2,r17,3650 <___svfprintf_internal_r+0x1580>
    3080:	42000204 	addi	r8,r8,8
    3084:	d8803817 	ldw	r2,224(sp)
    3088:	d9003417 	ldw	r4,208(sp)
    308c:	8c400044 	addi	r17,r17,1
    3090:	10c7883a 	add	r3,r2,r3
    3094:	40800115 	stw	r2,4(r8)
    3098:	41000015 	stw	r4,0(r8)
    309c:	d8c02015 	stw	r3,128(sp)
    30a0:	dc401f15 	stw	r17,124(sp)
    30a4:	008001c4 	movi	r2,7
    30a8:	14417216 	blt	r2,r17,3674 <___svfprintf_internal_r+0x15a4>
    30ac:	45800204 	addi	r22,r8,8
    30b0:	d9003617 	ldw	r4,216(sp)
    30b4:	d9403717 	ldw	r5,220(sp)
    30b8:	000d883a 	mov	r6,zero
    30bc:	000f883a 	mov	r7,zero
    30c0:	d8c03d15 	stw	r3,244(sp)
    30c4:	00109c80 	call	109c8 <__eqdf2>
    30c8:	d8c03d17 	ldw	r3,244(sp)
    30cc:	1000b326 	beq	r2,zero,339c <___svfprintf_internal_r+0x12cc>
    30d0:	d9403317 	ldw	r5,204(sp)
    30d4:	84000044 	addi	r16,r16,1
    30d8:	8c400044 	addi	r17,r17,1
    30dc:	28bfffc4 	addi	r2,r5,-1
    30e0:	1887883a 	add	r3,r3,r2
    30e4:	b0800115 	stw	r2,4(r22)
    30e8:	b4000015 	stw	r16,0(r22)
    30ec:	d8c02015 	stw	r3,128(sp)
    30f0:	dc401f15 	stw	r17,124(sp)
    30f4:	008001c4 	movi	r2,7
    30f8:	1440d216 	blt	r2,r17,3444 <___svfprintf_internal_r+0x1374>
    30fc:	b5800204 	addi	r22,r22,8
    3100:	d9003b17 	ldw	r4,236(sp)
    3104:	df0022c4 	addi	fp,sp,139
    3108:	8c400044 	addi	r17,r17,1
    310c:	20c7883a 	add	r3,r4,r3
    3110:	b7000015 	stw	fp,0(r22)
    3114:	b1000115 	stw	r4,4(r22)
    3118:	d8c02015 	stw	r3,128(sp)
    311c:	dc401f15 	stw	r17,124(sp)
    3120:	008001c4 	movi	r2,7
    3124:	14400e16 	blt	r2,r17,3160 <___svfprintf_internal_r+0x1090>
    3128:	b2000204 	addi	r8,r22,8
    312c:	003e3c06 	br	2a20 <___svfprintf_internal_r+0x950>
    3130:	010000b4 	movhi	r4,2
    3134:	213b3c84 	addi	r4,r4,-4878
    3138:	d9002b15 	stw	r4,172(sp)
    313c:	d9002b17 	ldw	r4,172(sp)
    3140:	1c07883a 	add	r3,r3,r16
    3144:	44000115 	stw	r16,4(r8)
    3148:	41000015 	stw	r4,0(r8)
    314c:	10800044 	addi	r2,r2,1
    3150:	d8c02015 	stw	r3,128(sp)
    3154:	d8801f15 	stw	r2,124(sp)
    3158:	010001c4 	movi	r4,7
    315c:	20be2f0e 	bge	r4,r2,2a1c <___svfprintf_internal_r+0x94c>
    3160:	d9402c17 	ldw	r5,176(sp)
    3164:	d9801e04 	addi	r6,sp,120
    3168:	9809883a 	mov	r4,r19
    316c:	000accc0 	call	accc <__ssprint_r>
    3170:	103cbc1e 	bne	r2,zero,2464 <___svfprintf_internal_r+0x394>
    3174:	d8c02017 	ldw	r3,128(sp)
    3178:	da000404 	addi	r8,sp,16
    317c:	003e2806 	br	2a20 <___svfprintf_internal_r+0x950>
    3180:	d9402c17 	ldw	r5,176(sp)
    3184:	d9801e04 	addi	r6,sp,120
    3188:	9809883a 	mov	r4,r19
    318c:	000accc0 	call	accc <__ssprint_r>
    3190:	103e5f26 	beq	r2,zero,2b10 <___svfprintf_internal_r+0xa40>
    3194:	003cb306 	br	2464 <___svfprintf_internal_r+0x394>
    3198:	d9402c17 	ldw	r5,176(sp)
    319c:	d9801e04 	addi	r6,sp,120
    31a0:	9809883a 	mov	r4,r19
    31a4:	000accc0 	call	accc <__ssprint_r>
    31a8:	103cae1e 	bne	r2,zero,2464 <___svfprintf_internal_r+0x394>
    31ac:	d8c02017 	ldw	r3,128(sp)
    31b0:	da000404 	addi	r8,sp,16
    31b4:	003e0d06 	br	29ec <___svfprintf_internal_r+0x91c>
    31b8:	d9402c17 	ldw	r5,176(sp)
    31bc:	d9801e04 	addi	r6,sp,120
    31c0:	9809883a 	mov	r4,r19
    31c4:	000accc0 	call	accc <__ssprint_r>
    31c8:	103ca61e 	bne	r2,zero,2464 <___svfprintf_internal_r+0x394>
    31cc:	d8c02017 	ldw	r3,128(sp)
    31d0:	da000404 	addi	r8,sp,16
    31d4:	003dc106 	br	28dc <___svfprintf_internal_r+0x80c>
    31d8:	d9402c17 	ldw	r5,176(sp)
    31dc:	d9801e04 	addi	r6,sp,120
    31e0:	9809883a 	mov	r4,r19
    31e4:	000accc0 	call	accc <__ssprint_r>
    31e8:	103c9e1e 	bne	r2,zero,2464 <___svfprintf_internal_r+0x394>
    31ec:	d8c02017 	ldw	r3,128(sp)
    31f0:	da000404 	addi	r8,sp,16
    31f4:	003dc706 	br	2914 <___svfprintf_internal_r+0x844>
    31f8:	d8802917 	ldw	r2,164(sp)
    31fc:	d8002785 	stb	zero,158(sp)
    3200:	103f0816 	blt	r2,zero,2e24 <___svfprintf_internal_r+0xd54>
    3204:	00ffdfc4 	movi	r3,-129
    3208:	a584b03a 	or	r2,r20,r22
    320c:	90e4703a 	and	r18,r18,r3
    3210:	103c8126 	beq	r2,zero,2418 <___svfprintf_internal_r+0x348>
    3214:	0039883a 	mov	fp,zero
    3218:	003e7606 	br	2bf4 <___svfprintf_internal_r+0xb24>
    321c:	9080040c 	andi	r2,r18,16
    3220:	10013d26 	beq	r2,zero,3718 <___svfprintf_internal_r+0x1648>
    3224:	d9002d17 	ldw	r4,180(sp)
    3228:	d9402917 	ldw	r5,164(sp)
    322c:	d8002785 	stb	zero,158(sp)
    3230:	20800104 	addi	r2,r4,4
    3234:	25000017 	ldw	r20,0(r4)
    3238:	002d883a 	mov	r22,zero
    323c:	28013f16 	blt	r5,zero,373c <___svfprintf_internal_r+0x166c>
    3240:	00ffdfc4 	movi	r3,-129
    3244:	d8802d15 	stw	r2,180(sp)
    3248:	90e4703a 	and	r18,r18,r3
    324c:	a03d2b26 	beq	r20,zero,26fc <___svfprintf_internal_r+0x62c>
    3250:	0039883a 	mov	fp,zero
    3254:	003d2e06 	br	2710 <___svfprintf_internal_r+0x640>
    3258:	dc402617 	ldw	r17,152(sp)
    325c:	0441830e 	bge	zero,r17,386c <___svfprintf_internal_r+0x179c>
    3260:	dc403217 	ldw	r17,200(sp)
    3264:	d8803317 	ldw	r2,204(sp)
    3268:	1440010e 	bge	r2,r17,3270 <___svfprintf_internal_r+0x11a0>
    326c:	1023883a 	mov	r17,r2
    3270:	04400a0e 	bge	zero,r17,329c <___svfprintf_internal_r+0x11cc>
    3274:	d8801f17 	ldw	r2,124(sp)
    3278:	1c47883a 	add	r3,r3,r17
    327c:	44000015 	stw	r16,0(r8)
    3280:	10800044 	addi	r2,r2,1
    3284:	44400115 	stw	r17,4(r8)
    3288:	d8c02015 	stw	r3,128(sp)
    328c:	d8801f15 	stw	r2,124(sp)
    3290:	010001c4 	movi	r4,7
    3294:	20827516 	blt	r4,r2,3c6c <___svfprintf_internal_r+0x1b9c>
    3298:	42000204 	addi	r8,r8,8
    329c:	88027b16 	blt	r17,zero,3c8c <___svfprintf_internal_r+0x1bbc>
    32a0:	d9003217 	ldw	r4,200(sp)
    32a4:	2463c83a 	sub	r17,r4,r17
    32a8:	0440990e 	bge	zero,r17,3510 <___svfprintf_internal_r+0x1440>
    32ac:	05800404 	movi	r22,16
    32b0:	d8801f17 	ldw	r2,124(sp)
    32b4:	b441530e 	bge	r22,r17,3804 <___svfprintf_internal_r+0x1734>
    32b8:	010000b4 	movhi	r4,2
    32bc:	213b3c84 	addi	r4,r4,-4878
    32c0:	d9002b15 	stw	r4,172(sp)
    32c4:	070001c4 	movi	fp,7
    32c8:	dd002c17 	ldw	r20,176(sp)
    32cc:	00000306 	br	32dc <___svfprintf_internal_r+0x120c>
    32d0:	42000204 	addi	r8,r8,8
    32d4:	8c7ffc04 	addi	r17,r17,-16
    32d8:	b4414d0e 	bge	r22,r17,3810 <___svfprintf_internal_r+0x1740>
    32dc:	18c00404 	addi	r3,r3,16
    32e0:	10800044 	addi	r2,r2,1
    32e4:	45400015 	stw	r21,0(r8)
    32e8:	45800115 	stw	r22,4(r8)
    32ec:	d8c02015 	stw	r3,128(sp)
    32f0:	d8801f15 	stw	r2,124(sp)
    32f4:	e0bff60e 	bge	fp,r2,32d0 <___svfprintf_internal_r+0x1200>
    32f8:	d9801e04 	addi	r6,sp,120
    32fc:	a00b883a 	mov	r5,r20
    3300:	9809883a 	mov	r4,r19
    3304:	000accc0 	call	accc <__ssprint_r>
    3308:	103c561e 	bne	r2,zero,2464 <___svfprintf_internal_r+0x394>
    330c:	d8c02017 	ldw	r3,128(sp)
    3310:	d8801f17 	ldw	r2,124(sp)
    3314:	da000404 	addi	r8,sp,16
    3318:	003fee06 	br	32d4 <___svfprintf_internal_r+0x1204>
    331c:	d9402c17 	ldw	r5,176(sp)
    3320:	d9801e04 	addi	r6,sp,120
    3324:	9809883a 	mov	r4,r19
    3328:	000accc0 	call	accc <__ssprint_r>
    332c:	103c4d1e 	bne	r2,zero,2464 <___svfprintf_internal_r+0x394>
    3330:	d8c02017 	ldw	r3,128(sp)
    3334:	df002787 	ldb	fp,158(sp)
    3338:	da000404 	addi	r8,sp,16
    333c:	003d5a06 	br	28a8 <___svfprintf_internal_r+0x7d8>
    3340:	9080040c 	andi	r2,r18,16
    3344:	10005c26 	beq	r2,zero,34b8 <___svfprintf_internal_r+0x13e8>
    3348:	d9402d17 	ldw	r5,180(sp)
    334c:	d8c02917 	ldw	r3,164(sp)
    3350:	d8002785 	stb	zero,158(sp)
    3354:	28800104 	addi	r2,r5,4
    3358:	2d000017 	ldw	r20,0(r5)
    335c:	002d883a 	mov	r22,zero
    3360:	18005e16 	blt	r3,zero,34dc <___svfprintf_internal_r+0x140c>
    3364:	00ffdfc4 	movi	r3,-129
    3368:	d8802d15 	stw	r2,180(sp)
    336c:	90e4703a 	and	r18,r18,r3
    3370:	0039883a 	mov	fp,zero
    3374:	a03dfe26 	beq	r20,zero,2b70 <___svfprintf_internal_r+0xaa0>
    3378:	00800244 	movi	r2,9
    337c:	153cb336 	bltu	r2,r20,264c <___svfprintf_internal_r+0x57c>
    3380:	a5000c04 	addi	r20,r20,48
    3384:	dc001dc4 	addi	r16,sp,119
    3388:	dd001dc5 	stb	r20,119(sp)
    338c:	d8c02817 	ldw	r3,160(sp)
    3390:	1c07c83a 	sub	r3,r3,r16
    3394:	d8c02e15 	stw	r3,184(sp)
    3398:	003cf506 	br	2770 <___svfprintf_internal_r+0x6a0>
    339c:	d8803317 	ldw	r2,204(sp)
    33a0:	143fffc4 	addi	r16,r2,-1
    33a4:	043f560e 	bge	zero,r16,3100 <___svfprintf_internal_r+0x1030>
    33a8:	07000404 	movi	fp,16
    33ac:	e403530e 	bge	fp,r16,40fc <___svfprintf_internal_r+0x202c>
    33b0:	014000b4 	movhi	r5,2
    33b4:	297b3c84 	addi	r5,r5,-4878
    33b8:	d9402b15 	stw	r5,172(sp)
    33bc:	01c001c4 	movi	r7,7
    33c0:	dd002c17 	ldw	r20,176(sp)
    33c4:	00000306 	br	33d4 <___svfprintf_internal_r+0x1304>
    33c8:	843ffc04 	addi	r16,r16,-16
    33cc:	b5800204 	addi	r22,r22,8
    33d0:	e400130e 	bge	fp,r16,3420 <___svfprintf_internal_r+0x1350>
    33d4:	18c00404 	addi	r3,r3,16
    33d8:	8c400044 	addi	r17,r17,1
    33dc:	b5400015 	stw	r21,0(r22)
    33e0:	b7000115 	stw	fp,4(r22)
    33e4:	d8c02015 	stw	r3,128(sp)
    33e8:	dc401f15 	stw	r17,124(sp)
    33ec:	3c7ff60e 	bge	r7,r17,33c8 <___svfprintf_internal_r+0x12f8>
    33f0:	d9801e04 	addi	r6,sp,120
    33f4:	a00b883a 	mov	r5,r20
    33f8:	9809883a 	mov	r4,r19
    33fc:	d9c03d15 	stw	r7,244(sp)
    3400:	000accc0 	call	accc <__ssprint_r>
    3404:	d9c03d17 	ldw	r7,244(sp)
    3408:	103c161e 	bne	r2,zero,2464 <___svfprintf_internal_r+0x394>
    340c:	843ffc04 	addi	r16,r16,-16
    3410:	d8c02017 	ldw	r3,128(sp)
    3414:	dc401f17 	ldw	r17,124(sp)
    3418:	dd800404 	addi	r22,sp,16
    341c:	e43fed16 	blt	fp,r16,33d4 <___svfprintf_internal_r+0x1304>
    3420:	d8802b17 	ldw	r2,172(sp)
    3424:	1c07883a 	add	r3,r3,r16
    3428:	8c400044 	addi	r17,r17,1
    342c:	b0800015 	stw	r2,0(r22)
    3430:	b4000115 	stw	r16,4(r22)
    3434:	d8c02015 	stw	r3,128(sp)
    3438:	dc401f15 	stw	r17,124(sp)
    343c:	008001c4 	movi	r2,7
    3440:	147f2e0e 	bge	r2,r17,30fc <___svfprintf_internal_r+0x102c>
    3444:	d9402c17 	ldw	r5,176(sp)
    3448:	d9801e04 	addi	r6,sp,120
    344c:	9809883a 	mov	r4,r19
    3450:	000accc0 	call	accc <__ssprint_r>
    3454:	103c031e 	bne	r2,zero,2464 <___svfprintf_internal_r+0x394>
    3458:	d8c02017 	ldw	r3,128(sp)
    345c:	dc401f17 	ldw	r17,124(sp)
    3460:	dd800404 	addi	r22,sp,16
    3464:	003f2606 	br	3100 <___svfprintf_internal_r+0x1030>
    3468:	9080040c 	andi	r2,r18,16
    346c:	1000c326 	beq	r2,zero,377c <___svfprintf_internal_r+0x16ac>
    3470:	d8802d17 	ldw	r2,180(sp)
    3474:	15000017 	ldw	r20,0(r2)
    3478:	10800104 	addi	r2,r2,4
    347c:	d8802d15 	stw	r2,180(sp)
    3480:	a02dd7fa 	srai	r22,r20,31
    3484:	b005883a 	mov	r2,r22
    3488:	103c680e 	bge	r2,zero,262c <___svfprintf_internal_r+0x55c>
    348c:	0529c83a 	sub	r20,zero,r20
    3490:	a004c03a 	cmpne	r2,r20,zero
    3494:	05adc83a 	sub	r22,zero,r22
    3498:	b0adc83a 	sub	r22,r22,r2
    349c:	d8802917 	ldw	r2,164(sp)
    34a0:	07000b44 	movi	fp,45
    34a4:	df002785 	stb	fp,158(sp)
    34a8:	10022e16 	blt	r2,zero,3d64 <___svfprintf_internal_r+0x1c94>
    34ac:	00bfdfc4 	movi	r2,-129
    34b0:	90a4703a 	and	r18,r18,r2
    34b4:	003c6406 	br	2648 <___svfprintf_internal_r+0x578>
    34b8:	9080100c 	andi	r2,r18,64
    34bc:	d8002785 	stb	zero,158(sp)
    34c0:	10012526 	beq	r2,zero,3958 <___svfprintf_internal_r+0x1888>
    34c4:	d9002d17 	ldw	r4,180(sp)
    34c8:	d9402917 	ldw	r5,164(sp)
    34cc:	002d883a 	mov	r22,zero
    34d0:	20800104 	addi	r2,r4,4
    34d4:	2500000b 	ldhu	r20,0(r4)
    34d8:	283fa20e 	bge	r5,zero,3364 <___svfprintf_internal_r+0x1294>
    34dc:	d8802d15 	stw	r2,180(sp)
    34e0:	0039883a 	mov	fp,zero
    34e4:	a584b03a 	or	r2,r20,r22
    34e8:	103c571e 	bne	r2,zero,2648 <___svfprintf_internal_r+0x578>
    34ec:	00800044 	movi	r2,1
    34f0:	003e5006 	br	2e34 <___svfprintf_internal_r+0xd64>
    34f4:	d9402c17 	ldw	r5,176(sp)
    34f8:	d9801e04 	addi	r6,sp,120
    34fc:	9809883a 	mov	r4,r19
    3500:	000accc0 	call	accc <__ssprint_r>
    3504:	103bd71e 	bne	r2,zero,2464 <___svfprintf_internal_r+0x394>
    3508:	d8c02017 	ldw	r3,128(sp)
    350c:	da000404 	addi	r8,sp,16
    3510:	d9003217 	ldw	r4,200(sp)
    3514:	d8802617 	ldw	r2,152(sp)
    3518:	d9403317 	ldw	r5,204(sp)
    351c:	8123883a 	add	r17,r16,r4
    3520:	11400216 	blt	r2,r5,352c <___svfprintf_internal_r+0x145c>
    3524:	9100004c 	andi	r4,r18,1
    3528:	20000d26 	beq	r4,zero,3560 <___svfprintf_internal_r+0x1490>
    352c:	d9003817 	ldw	r4,224(sp)
    3530:	d9403417 	ldw	r5,208(sp)
    3534:	1907883a 	add	r3,r3,r4
    3538:	d9001f17 	ldw	r4,124(sp)
    353c:	41400015 	stw	r5,0(r8)
    3540:	d9403817 	ldw	r5,224(sp)
    3544:	21000044 	addi	r4,r4,1
    3548:	d8c02015 	stw	r3,128(sp)
    354c:	41400115 	stw	r5,4(r8)
    3550:	d9001f15 	stw	r4,124(sp)
    3554:	014001c4 	movi	r5,7
    3558:	2901dc16 	blt	r5,r4,3ccc <___svfprintf_internal_r+0x1bfc>
    355c:	42000204 	addi	r8,r8,8
    3560:	d9003317 	ldw	r4,204(sp)
    3564:	8121883a 	add	r16,r16,r4
    3568:	2085c83a 	sub	r2,r4,r2
    356c:	8461c83a 	sub	r16,r16,r17
    3570:	1400010e 	bge	r2,r16,3578 <___svfprintf_internal_r+0x14a8>
    3574:	1021883a 	mov	r16,r2
    3578:	04000a0e 	bge	zero,r16,35a4 <___svfprintf_internal_r+0x14d4>
    357c:	d9001f17 	ldw	r4,124(sp)
    3580:	1c07883a 	add	r3,r3,r16
    3584:	44400015 	stw	r17,0(r8)
    3588:	21000044 	addi	r4,r4,1
    358c:	44000115 	stw	r16,4(r8)
    3590:	d8c02015 	stw	r3,128(sp)
    3594:	d9001f15 	stw	r4,124(sp)
    3598:	014001c4 	movi	r5,7
    359c:	2901e616 	blt	r5,r4,3d38 <___svfprintf_internal_r+0x1c68>
    35a0:	42000204 	addi	r8,r8,8
    35a4:	8001f616 	blt	r16,zero,3d80 <___svfprintf_internal_r+0x1cb0>
    35a8:	1421c83a 	sub	r16,r2,r16
    35ac:	043d1c0e 	bge	zero,r16,2a20 <___svfprintf_internal_r+0x950>
    35b0:	04400404 	movi	r17,16
    35b4:	d8801f17 	ldw	r2,124(sp)
    35b8:	8c3edd0e 	bge	r17,r16,3130 <___svfprintf_internal_r+0x1060>
    35bc:	014000b4 	movhi	r5,2
    35c0:	297b3c84 	addi	r5,r5,-4878
    35c4:	d9402b15 	stw	r5,172(sp)
    35c8:	058001c4 	movi	r22,7
    35cc:	dd002c17 	ldw	r20,176(sp)
    35d0:	00000306 	br	35e0 <___svfprintf_internal_r+0x1510>
    35d4:	42000204 	addi	r8,r8,8
    35d8:	843ffc04 	addi	r16,r16,-16
    35dc:	8c3ed70e 	bge	r17,r16,313c <___svfprintf_internal_r+0x106c>
    35e0:	18c00404 	addi	r3,r3,16
    35e4:	10800044 	addi	r2,r2,1
    35e8:	45400015 	stw	r21,0(r8)
    35ec:	44400115 	stw	r17,4(r8)
    35f0:	d8c02015 	stw	r3,128(sp)
    35f4:	d8801f15 	stw	r2,124(sp)
    35f8:	b0bff60e 	bge	r22,r2,35d4 <___svfprintf_internal_r+0x1504>
    35fc:	d9801e04 	addi	r6,sp,120
    3600:	a00b883a 	mov	r5,r20
    3604:	9809883a 	mov	r4,r19
    3608:	000accc0 	call	accc <__ssprint_r>
    360c:	103b951e 	bne	r2,zero,2464 <___svfprintf_internal_r+0x394>
    3610:	d8c02017 	ldw	r3,128(sp)
    3614:	d8801f17 	ldw	r2,124(sp)
    3618:	da000404 	addi	r8,sp,16
    361c:	003fee06 	br	35d8 <___svfprintf_internal_r+0x1508>
    3620:	9088703a 	and	r4,r18,r2
    3624:	203e8d1e 	bne	r4,zero,305c <___svfprintf_internal_r+0xf8c>
    3628:	dc401f17 	ldw	r17,124(sp)
    362c:	40800115 	stw	r2,4(r8)
    3630:	44000015 	stw	r16,0(r8)
    3634:	8c400044 	addi	r17,r17,1
    3638:	d8c02015 	stw	r3,128(sp)
    363c:	dc401f15 	stw	r17,124(sp)
    3640:	008001c4 	movi	r2,7
    3644:	147f7f16 	blt	r2,r17,3444 <___svfprintf_internal_r+0x1374>
    3648:	45800204 	addi	r22,r8,8
    364c:	003eac06 	br	3100 <___svfprintf_internal_r+0x1030>
    3650:	d9402c17 	ldw	r5,176(sp)
    3654:	d9801e04 	addi	r6,sp,120
    3658:	9809883a 	mov	r4,r19
    365c:	000accc0 	call	accc <__ssprint_r>
    3660:	103b801e 	bne	r2,zero,2464 <___svfprintf_internal_r+0x394>
    3664:	d8c02017 	ldw	r3,128(sp)
    3668:	dc401f17 	ldw	r17,124(sp)
    366c:	da000404 	addi	r8,sp,16
    3670:	003e8406 	br	3084 <___svfprintf_internal_r+0xfb4>
    3674:	d9402c17 	ldw	r5,176(sp)
    3678:	d9801e04 	addi	r6,sp,120
    367c:	9809883a 	mov	r4,r19
    3680:	000accc0 	call	accc <__ssprint_r>
    3684:	103b771e 	bne	r2,zero,2464 <___svfprintf_internal_r+0x394>
    3688:	d8c02017 	ldw	r3,128(sp)
    368c:	dc401f17 	ldw	r17,124(sp)
    3690:	dd800404 	addi	r22,sp,16
    3694:	003e8606 	br	30b0 <___svfprintf_internal_r+0xfe0>
    3698:	0029883a 	mov	r20,zero
    369c:	a5000c04 	addi	r20,r20,48
    36a0:	dc001dc4 	addi	r16,sp,119
    36a4:	dd001dc5 	stb	r20,119(sp)
    36a8:	003f3806 	br	338c <___svfprintf_internal_r+0x12bc>
    36ac:	d9402c17 	ldw	r5,176(sp)
    36b0:	d9801e04 	addi	r6,sp,120
    36b4:	9809883a 	mov	r4,r19
    36b8:	000accc0 	call	accc <__ssprint_r>
    36bc:	103b691e 	bne	r2,zero,2464 <___svfprintf_internal_r+0x394>
    36c0:	d8c02017 	ldw	r3,128(sp)
    36c4:	da000404 	addi	r8,sp,16
    36c8:	003c9506 	br	2920 <___svfprintf_internal_r+0x850>
    36cc:	d9003617 	ldw	r4,216(sp)
    36d0:	d9403717 	ldw	r5,220(sp)
    36d4:	da003e15 	stw	r8,248(sp)
    36d8:	000a9540 	call	a954 <__fpclassifyd>
    36dc:	da003e17 	ldw	r8,248(sp)
    36e0:	1000bd1e 	bne	r2,zero,39d8 <___svfprintf_internal_r+0x1908>
    36e4:	008011c4 	movi	r2,71
    36e8:	14411e0e 	bge	r2,r17,3b64 <___svfprintf_internal_r+0x1a94>
    36ec:	040000b4 	movhi	r16,2
    36f0:	843b2f04 	addi	r16,r16,-4932
    36f4:	00c000c4 	movi	r3,3
    36f8:	00bfdfc4 	movi	r2,-129
    36fc:	d8c02a15 	stw	r3,168(sp)
    3700:	90a4703a 	and	r18,r18,r2
    3704:	df002783 	ldbu	fp,158(sp)
    3708:	d8c02e15 	stw	r3,184(sp)
    370c:	d8002915 	stw	zero,164(sp)
    3710:	d8003215 	stw	zero,200(sp)
    3714:	003c1c06 	br	2788 <___svfprintf_internal_r+0x6b8>
    3718:	9080100c 	andi	r2,r18,64
    371c:	d8002785 	stb	zero,158(sp)
    3720:	10009426 	beq	r2,zero,3974 <___svfprintf_internal_r+0x18a4>
    3724:	d8c02d17 	ldw	r3,180(sp)
    3728:	d9002917 	ldw	r4,164(sp)
    372c:	002d883a 	mov	r22,zero
    3730:	18800104 	addi	r2,r3,4
    3734:	1d00000b 	ldhu	r20,0(r3)
    3738:	203ec10e 	bge	r4,zero,3240 <___svfprintf_internal_r+0x1170>
    373c:	a586b03a 	or	r3,r20,r22
    3740:	d8802d15 	stw	r2,180(sp)
    3744:	183ec21e 	bne	r3,zero,3250 <___svfprintf_internal_r+0x1180>
    3748:	0039883a 	mov	fp,zero
    374c:	0005883a 	mov	r2,zero
    3750:	003db806 	br	2e34 <___svfprintf_internal_r+0xd64>
    3754:	d8802d17 	ldw	r2,180(sp)
    3758:	d8c02d17 	ldw	r3,180(sp)
    375c:	d9002d17 	ldw	r4,180(sp)
    3760:	10800017 	ldw	r2,0(r2)
    3764:	18c00117 	ldw	r3,4(r3)
    3768:	21000204 	addi	r4,r4,8
    376c:	d8803615 	stw	r2,216(sp)
    3770:	d8c03715 	stw	r3,220(sp)
    3774:	d9002d15 	stw	r4,180(sp)
    3778:	003b8206 	br	2584 <___svfprintf_internal_r+0x4b4>
    377c:	9080100c 	andi	r2,r18,64
    3780:	10010726 	beq	r2,zero,3ba0 <___svfprintf_internal_r+0x1ad0>
    3784:	d8c02d17 	ldw	r3,180(sp)
    3788:	1d00000f 	ldh	r20,0(r3)
    378c:	18c00104 	addi	r3,r3,4
    3790:	d8c02d15 	stw	r3,180(sp)
    3794:	a02dd7fa 	srai	r22,r20,31
    3798:	b005883a 	mov	r2,r22
    379c:	003ba206 	br	2628 <___svfprintf_internal_r+0x558>
    37a0:	9080100c 	andi	r2,r18,64
    37a4:	10010526 	beq	r2,zero,3bbc <___svfprintf_internal_r+0x1aec>
    37a8:	d9002d17 	ldw	r4,180(sp)
    37ac:	002d883a 	mov	r22,zero
    37b0:	2500000b 	ldhu	r20,0(r4)
    37b4:	21000104 	addi	r4,r4,4
    37b8:	d9002d15 	stw	r4,180(sp)
    37bc:	003cfe06 	br	2bb8 <___svfprintf_internal_r+0xae8>
    37c0:	bc400007 	ldb	r17,0(r23)
    37c4:	003a9606 	br	2220 <___svfprintf_internal_r+0x150>
    37c8:	9080040c 	andi	r2,r18,16
    37cc:	10010126 	beq	r2,zero,3bd4 <___svfprintf_internal_r+0x1b04>
    37d0:	d9402d17 	ldw	r5,180(sp)
    37d4:	d8c02f17 	ldw	r3,188(sp)
    37d8:	28800017 	ldw	r2,0(r5)
    37dc:	29400104 	addi	r5,r5,4
    37e0:	d9402d15 	stw	r5,180(sp)
    37e4:	10c00015 	stw	r3,0(r2)
    37e8:	003a6406 	br	217c <___svfprintf_internal_r+0xac>
    37ec:	d9002917 	ldw	r4,164(sp)
    37f0:	d8002785 	stb	zero,158(sp)
    37f4:	203d8d16 	blt	r4,zero,2e2c <___svfprintf_internal_r+0xd5c>
    37f8:	00bfdfc4 	movi	r2,-129
    37fc:	90a4703a 	and	r18,r18,r2
    3800:	003b0506 	br	2418 <___svfprintf_internal_r+0x348>
    3804:	014000b4 	movhi	r5,2
    3808:	297b3c84 	addi	r5,r5,-4878
    380c:	d9402b15 	stw	r5,172(sp)
    3810:	d9402b17 	ldw	r5,172(sp)
    3814:	1c47883a 	add	r3,r3,r17
    3818:	10800044 	addi	r2,r2,1
    381c:	41400015 	stw	r5,0(r8)
    3820:	44400115 	stw	r17,4(r8)
    3824:	d8c02015 	stw	r3,128(sp)
    3828:	d8801f15 	stw	r2,124(sp)
    382c:	010001c4 	movi	r4,7
    3830:	20bf3016 	blt	r4,r2,34f4 <___svfprintf_internal_r+0x1424>
    3834:	42000204 	addi	r8,r8,8
    3838:	003f3506 	br	3510 <___svfprintf_internal_r+0x1440>
    383c:	010000b4 	movhi	r4,2
    3840:	213b3c84 	addi	r4,r4,-4878
    3844:	d9002b15 	stw	r4,172(sp)
    3848:	003c5e06 	br	29c4 <___svfprintf_internal_r+0x8f4>
    384c:	d9402c17 	ldw	r5,176(sp)
    3850:	d9801e04 	addi	r6,sp,120
    3854:	9809883a 	mov	r4,r19
    3858:	000accc0 	call	accc <__ssprint_r>
    385c:	103b011e 	bne	r2,zero,2464 <___svfprintf_internal_r+0x394>
    3860:	d8c02017 	ldw	r3,128(sp)
    3864:	da000404 	addi	r8,sp,16
    3868:	003d9306 	br	2eb8 <___svfprintf_internal_r+0xde8>
    386c:	d8801f17 	ldw	r2,124(sp)
    3870:	014000b4 	movhi	r5,2
    3874:	01000044 	movi	r4,1
    3878:	18c00044 	addi	r3,r3,1
    387c:	10800044 	addi	r2,r2,1
    3880:	297b3c04 	addi	r5,r5,-4880
    3884:	41000115 	stw	r4,4(r8)
    3888:	41400015 	stw	r5,0(r8)
    388c:	d8c02015 	stw	r3,128(sp)
    3890:	d8801f15 	stw	r2,124(sp)
    3894:	010001c4 	movi	r4,7
    3898:	2080b516 	blt	r4,r2,3b70 <___svfprintf_internal_r+0x1aa0>
    389c:	42000204 	addi	r8,r8,8
    38a0:	8800041e 	bne	r17,zero,38b4 <___svfprintf_internal_r+0x17e4>
    38a4:	d8803317 	ldw	r2,204(sp)
    38a8:	1000021e 	bne	r2,zero,38b4 <___svfprintf_internal_r+0x17e4>
    38ac:	9080004c 	andi	r2,r18,1
    38b0:	103c5b26 	beq	r2,zero,2a20 <___svfprintf_internal_r+0x950>
    38b4:	d9003817 	ldw	r4,224(sp)
    38b8:	d8801f17 	ldw	r2,124(sp)
    38bc:	d9403417 	ldw	r5,208(sp)
    38c0:	20c7883a 	add	r3,r4,r3
    38c4:	10800044 	addi	r2,r2,1
    38c8:	41000115 	stw	r4,4(r8)
    38cc:	41400015 	stw	r5,0(r8)
    38d0:	d8c02015 	stw	r3,128(sp)
    38d4:	d8801f15 	stw	r2,124(sp)
    38d8:	010001c4 	movi	r4,7
    38dc:	20818016 	blt	r4,r2,3ee0 <___svfprintf_internal_r+0x1e10>
    38e0:	42000204 	addi	r8,r8,8
    38e4:	0463c83a 	sub	r17,zero,r17
    38e8:	0440cb0e 	bge	zero,r17,3c18 <___svfprintf_internal_r+0x1b48>
    38ec:	05800404 	movi	r22,16
    38f0:	b440e80e 	bge	r22,r17,3c94 <___svfprintf_internal_r+0x1bc4>
    38f4:	014000b4 	movhi	r5,2
    38f8:	297b3c84 	addi	r5,r5,-4878
    38fc:	d9402b15 	stw	r5,172(sp)
    3900:	070001c4 	movi	fp,7
    3904:	dd002c17 	ldw	r20,176(sp)
    3908:	00000306 	br	3918 <___svfprintf_internal_r+0x1848>
    390c:	42000204 	addi	r8,r8,8
    3910:	8c7ffc04 	addi	r17,r17,-16
    3914:	b440e20e 	bge	r22,r17,3ca0 <___svfprintf_internal_r+0x1bd0>
    3918:	18c00404 	addi	r3,r3,16
    391c:	10800044 	addi	r2,r2,1
    3920:	45400015 	stw	r21,0(r8)
    3924:	45800115 	stw	r22,4(r8)
    3928:	d8c02015 	stw	r3,128(sp)
    392c:	d8801f15 	stw	r2,124(sp)
    3930:	e0bff60e 	bge	fp,r2,390c <___svfprintf_internal_r+0x183c>
    3934:	d9801e04 	addi	r6,sp,120
    3938:	a00b883a 	mov	r5,r20
    393c:	9809883a 	mov	r4,r19
    3940:	000accc0 	call	accc <__ssprint_r>
    3944:	103ac71e 	bne	r2,zero,2464 <___svfprintf_internal_r+0x394>
    3948:	d8c02017 	ldw	r3,128(sp)
    394c:	d8801f17 	ldw	r2,124(sp)
    3950:	da000404 	addi	r8,sp,16
    3954:	003fee06 	br	3910 <___svfprintf_internal_r+0x1840>
    3958:	d8c02d17 	ldw	r3,180(sp)
    395c:	d9002917 	ldw	r4,164(sp)
    3960:	002d883a 	mov	r22,zero
    3964:	18800104 	addi	r2,r3,4
    3968:	1d000017 	ldw	r20,0(r3)
    396c:	203e7d0e 	bge	r4,zero,3364 <___svfprintf_internal_r+0x1294>
    3970:	003eda06 	br	34dc <___svfprintf_internal_r+0x140c>
    3974:	d9402d17 	ldw	r5,180(sp)
    3978:	d8c02917 	ldw	r3,164(sp)
    397c:	002d883a 	mov	r22,zero
    3980:	28800104 	addi	r2,r5,4
    3984:	2d000017 	ldw	r20,0(r5)
    3988:	183e2d0e 	bge	r3,zero,3240 <___svfprintf_internal_r+0x1170>
    398c:	003f6b06 	br	373c <___svfprintf_internal_r+0x166c>
    3990:	d8c02d15 	stw	r3,180(sp)
    3994:	0039883a 	mov	fp,zero
    3998:	003ed206 	br	34e4 <___svfprintf_internal_r+0x1414>
    399c:	bc400043 	ldbu	r17,1(r23)
    39a0:	94800814 	ori	r18,r18,32
    39a4:	bdc00044 	addi	r23,r23,1
    39a8:	8c403fcc 	andi	r17,r17,255
    39ac:	8c40201c 	xori	r17,r17,128
    39b0:	8c7fe004 	addi	r17,r17,-128
    39b4:	003a1a06 	br	2220 <___svfprintf_internal_r+0x150>
    39b8:	d9402c17 	ldw	r5,176(sp)
    39bc:	d9801e04 	addi	r6,sp,120
    39c0:	9809883a 	mov	r4,r19
    39c4:	000accc0 	call	accc <__ssprint_r>
    39c8:	103aa61e 	bne	r2,zero,2464 <___svfprintf_internal_r+0x394>
    39cc:	d8c02017 	ldw	r3,128(sp)
    39d0:	da000404 	addi	r8,sp,16
    39d4:	003d4a06 	br	2f00 <___svfprintf_internal_r+0xe30>
    39d8:	d9002917 	ldw	r4,164(sp)
    39dc:	05bff7c4 	movi	r22,-33
    39e0:	00bfffc4 	movi	r2,-1
    39e4:	8dac703a 	and	r22,r17,r22
    39e8:	20806a26 	beq	r4,r2,3b94 <___svfprintf_internal_r+0x1ac4>
    39ec:	008011c4 	movi	r2,71
    39f0:	b0813726 	beq	r22,r2,3ed0 <___svfprintf_internal_r+0x1e00>
    39f4:	d9003717 	ldw	r4,220(sp)
    39f8:	90c04014 	ori	r3,r18,256
    39fc:	d8c02b15 	stw	r3,172(sp)
    3a00:	20015d16 	blt	r4,zero,3f78 <___svfprintf_internal_r+0x1ea8>
    3a04:	dd003717 	ldw	r20,220(sp)
    3a08:	d8002a05 	stb	zero,168(sp)
    3a0c:	00801984 	movi	r2,102
    3a10:	88814026 	beq	r17,r2,3f14 <___svfprintf_internal_r+0x1e44>
    3a14:	00801184 	movi	r2,70
    3a18:	88817126 	beq	r17,r2,3fe0 <___svfprintf_internal_r+0x1f10>
    3a1c:	00801144 	movi	r2,69
    3a20:	b0816226 	beq	r22,r2,3fac <___svfprintf_internal_r+0x1edc>
    3a24:	d8c02917 	ldw	r3,164(sp)
    3a28:	d8802104 	addi	r2,sp,132
    3a2c:	d8800315 	stw	r2,12(sp)
    3a30:	d9403617 	ldw	r5,216(sp)
    3a34:	d8802504 	addi	r2,sp,148
    3a38:	d8800215 	stw	r2,8(sp)
    3a3c:	d8802604 	addi	r2,sp,152
    3a40:	d8c00015 	stw	r3,0(sp)
    3a44:	d8800115 	stw	r2,4(sp)
    3a48:	01c00084 	movi	r7,2
    3a4c:	a00d883a 	mov	r6,r20
    3a50:	9809883a 	mov	r4,r19
    3a54:	d8c03d15 	stw	r3,244(sp)
    3a58:	da003e15 	stw	r8,248(sp)
    3a5c:	00068d40 	call	68d4 <_dtoa_r>
    3a60:	1021883a 	mov	r16,r2
    3a64:	008019c4 	movi	r2,103
    3a68:	d8c03d17 	ldw	r3,244(sp)
    3a6c:	da003e17 	ldw	r8,248(sp)
    3a70:	8880e726 	beq	r17,r2,3e10 <___svfprintf_internal_r+0x1d40>
    3a74:	008011c4 	movi	r2,71
    3a78:	8880d426 	beq	r17,r2,3dcc <___svfprintf_internal_r+0x1cfc>
    3a7c:	80f9883a 	add	fp,r16,r3
    3a80:	d9003617 	ldw	r4,216(sp)
    3a84:	000d883a 	mov	r6,zero
    3a88:	000f883a 	mov	r7,zero
    3a8c:	a00b883a 	mov	r5,r20
    3a90:	da003e15 	stw	r8,248(sp)
    3a94:	00109c80 	call	109c8 <__eqdf2>
    3a98:	da003e17 	ldw	r8,248(sp)
    3a9c:	1000e426 	beq	r2,zero,3e30 <___svfprintf_internal_r+0x1d60>
    3aa0:	d8802117 	ldw	r2,132(sp)
    3aa4:	1700062e 	bgeu	r2,fp,3ac0 <___svfprintf_internal_r+0x19f0>
    3aa8:	01000c04 	movi	r4,48
    3aac:	10c00044 	addi	r3,r2,1
    3ab0:	d8c02115 	stw	r3,132(sp)
    3ab4:	11000005 	stb	r4,0(r2)
    3ab8:	d8802117 	ldw	r2,132(sp)
    3abc:	173ffb36 	bltu	r2,fp,3aac <___svfprintf_internal_r+0x19dc>
    3ac0:	1405c83a 	sub	r2,r2,r16
    3ac4:	d8803315 	stw	r2,204(sp)
    3ac8:	008011c4 	movi	r2,71
    3acc:	b080c526 	beq	r22,r2,3de4 <___svfprintf_internal_r+0x1d14>
    3ad0:	00801944 	movi	r2,101
    3ad4:	1441d90e 	bge	r2,r17,423c <___svfprintf_internal_r+0x216c>
    3ad8:	d8c02617 	ldw	r3,152(sp)
    3adc:	00801984 	movi	r2,102
    3ae0:	d8c03215 	stw	r3,200(sp)
    3ae4:	88813426 	beq	r17,r2,3fb8 <___svfprintf_internal_r+0x1ee8>
    3ae8:	d8c03217 	ldw	r3,200(sp)
    3aec:	d9003317 	ldw	r4,204(sp)
    3af0:	19012516 	blt	r3,r4,3f88 <___svfprintf_internal_r+0x1eb8>
    3af4:	9480004c 	andi	r18,r18,1
    3af8:	9001841e 	bne	r18,zero,410c <___svfprintf_internal_r+0x203c>
    3afc:	1805883a 	mov	r2,r3
    3b00:	1801cc16 	blt	r3,zero,4234 <___svfprintf_internal_r+0x2164>
    3b04:	d8c03217 	ldw	r3,200(sp)
    3b08:	044019c4 	movi	r17,103
    3b0c:	d8c02e15 	stw	r3,184(sp)
    3b10:	df002a07 	ldb	fp,168(sp)
    3b14:	e000a61e 	bne	fp,zero,3db0 <___svfprintf_internal_r+0x1ce0>
    3b18:	df002783 	ldbu	fp,158(sp)
    3b1c:	d8802a15 	stw	r2,168(sp)
    3b20:	dc802b17 	ldw	r18,172(sp)
    3b24:	d8002915 	stw	zero,164(sp)
    3b28:	003b1706 	br	2788 <___svfprintf_internal_r+0x6b8>
    3b2c:	040000b4 	movhi	r16,2
    3b30:	843b2c04 	addi	r16,r16,-4944
    3b34:	003aa606 	br	25d0 <___svfprintf_internal_r+0x500>
    3b38:	d9003917 	ldw	r4,228(sp)
    3b3c:	04001004 	movi	r16,64
    3b40:	800b883a 	mov	r5,r16
    3b44:	0008df80 	call	8df8 <_malloc_r>
    3b48:	d9002c17 	ldw	r4,176(sp)
    3b4c:	20800015 	stw	r2,0(r4)
    3b50:	20800415 	stw	r2,16(r4)
    3b54:	1001cb26 	beq	r2,zero,4284 <___svfprintf_internal_r+0x21b4>
    3b58:	d8802c17 	ldw	r2,176(sp)
    3b5c:	14000515 	stw	r16,20(r2)
    3b60:	00397606 	br	213c <___svfprintf_internal_r+0x6c>
    3b64:	040000b4 	movhi	r16,2
    3b68:	843b2e04 	addi	r16,r16,-4936
    3b6c:	003ee106 	br	36f4 <___svfprintf_internal_r+0x1624>
    3b70:	d9402c17 	ldw	r5,176(sp)
    3b74:	d9801e04 	addi	r6,sp,120
    3b78:	9809883a 	mov	r4,r19
    3b7c:	000accc0 	call	accc <__ssprint_r>
    3b80:	103a381e 	bne	r2,zero,2464 <___svfprintf_internal_r+0x394>
    3b84:	dc402617 	ldw	r17,152(sp)
    3b88:	d8c02017 	ldw	r3,128(sp)
    3b8c:	da000404 	addi	r8,sp,16
    3b90:	003f4306 	br	38a0 <___svfprintf_internal_r+0x17d0>
    3b94:	01400184 	movi	r5,6
    3b98:	d9402915 	stw	r5,164(sp)
    3b9c:	003f9506 	br	39f4 <___svfprintf_internal_r+0x1924>
    3ba0:	d9002d17 	ldw	r4,180(sp)
    3ba4:	25000017 	ldw	r20,0(r4)
    3ba8:	21000104 	addi	r4,r4,4
    3bac:	d9002d15 	stw	r4,180(sp)
    3bb0:	a02dd7fa 	srai	r22,r20,31
    3bb4:	b005883a 	mov	r2,r22
    3bb8:	003a9b06 	br	2628 <___svfprintf_internal_r+0x558>
    3bbc:	d9402d17 	ldw	r5,180(sp)
    3bc0:	002d883a 	mov	r22,zero
    3bc4:	2d000017 	ldw	r20,0(r5)
    3bc8:	29400104 	addi	r5,r5,4
    3bcc:	d9402d15 	stw	r5,180(sp)
    3bd0:	003bf906 	br	2bb8 <___svfprintf_internal_r+0xae8>
    3bd4:	9480100c 	andi	r18,r18,64
    3bd8:	90006e26 	beq	r18,zero,3d94 <___svfprintf_internal_r+0x1cc4>
    3bdc:	d9002d17 	ldw	r4,180(sp)
    3be0:	d9402f17 	ldw	r5,188(sp)
    3be4:	20800017 	ldw	r2,0(r4)
    3be8:	21000104 	addi	r4,r4,4
    3bec:	d9002d15 	stw	r4,180(sp)
    3bf0:	1140000d 	sth	r5,0(r2)
    3bf4:	00396106 	br	217c <___svfprintf_internal_r+0xac>
    3bf8:	d9402c17 	ldw	r5,176(sp)
    3bfc:	d9801e04 	addi	r6,sp,120
    3c00:	9809883a 	mov	r4,r19
    3c04:	000accc0 	call	accc <__ssprint_r>
    3c08:	103a161e 	bne	r2,zero,2464 <___svfprintf_internal_r+0x394>
    3c0c:	d8c02017 	ldw	r3,128(sp)
    3c10:	d8801f17 	ldw	r2,124(sp)
    3c14:	da000404 	addi	r8,sp,16
    3c18:	d9403317 	ldw	r5,204(sp)
    3c1c:	10800044 	addi	r2,r2,1
    3c20:	44000015 	stw	r16,0(r8)
    3c24:	28c7883a 	add	r3,r5,r3
    3c28:	003b7706 	br	2a08 <___svfprintf_internal_r+0x938>
    3c2c:	8009883a 	mov	r4,r16
    3c30:	da003e15 	stw	r8,248(sp)
    3c34:	000ac340 	call	ac34 <strlen>
    3c38:	d8802e15 	stw	r2,184(sp)
    3c3c:	da003e17 	ldw	r8,248(sp)
    3c40:	103c280e 	bge	r2,zero,2ce4 <___svfprintf_internal_r+0xc14>
    3c44:	0005883a 	mov	r2,zero
    3c48:	003c2606 	br	2ce4 <___svfprintf_internal_r+0xc14>
    3c4c:	00bfffc4 	movi	r2,-1
    3c50:	003a0906 	br	2478 <___svfprintf_internal_r+0x3a8>
    3c54:	010000b4 	movhi	r4,2
    3c58:	213b4084 	addi	r4,r4,-4862
    3c5c:	d9003515 	stw	r4,212(sp)
    3c60:	003b0606 	br	287c <___svfprintf_internal_r+0x7ac>
    3c64:	013fffc4 	movi	r4,-1
    3c68:	003a2706 	br	2508 <___svfprintf_internal_r+0x438>
    3c6c:	d9402c17 	ldw	r5,176(sp)
    3c70:	d9801e04 	addi	r6,sp,120
    3c74:	9809883a 	mov	r4,r19
    3c78:	000accc0 	call	accc <__ssprint_r>
    3c7c:	1039f91e 	bne	r2,zero,2464 <___svfprintf_internal_r+0x394>
    3c80:	d8c02017 	ldw	r3,128(sp)
    3c84:	da000404 	addi	r8,sp,16
    3c88:	003d8406 	br	329c <___svfprintf_internal_r+0x11cc>
    3c8c:	0023883a 	mov	r17,zero
    3c90:	003d8306 	br	32a0 <___svfprintf_internal_r+0x11d0>
    3c94:	010000b4 	movhi	r4,2
    3c98:	213b3c84 	addi	r4,r4,-4878
    3c9c:	d9002b15 	stw	r4,172(sp)
    3ca0:	d9002b17 	ldw	r4,172(sp)
    3ca4:	1c47883a 	add	r3,r3,r17
    3ca8:	10800044 	addi	r2,r2,1
    3cac:	41000015 	stw	r4,0(r8)
    3cb0:	44400115 	stw	r17,4(r8)
    3cb4:	d8c02015 	stw	r3,128(sp)
    3cb8:	d8801f15 	stw	r2,124(sp)
    3cbc:	010001c4 	movi	r4,7
    3cc0:	20bfcd16 	blt	r4,r2,3bf8 <___svfprintf_internal_r+0x1b28>
    3cc4:	42000204 	addi	r8,r8,8
    3cc8:	003fd306 	br	3c18 <___svfprintf_internal_r+0x1b48>
    3ccc:	d9402c17 	ldw	r5,176(sp)
    3cd0:	d9801e04 	addi	r6,sp,120
    3cd4:	9809883a 	mov	r4,r19
    3cd8:	000accc0 	call	accc <__ssprint_r>
    3cdc:	1039e11e 	bne	r2,zero,2464 <___svfprintf_internal_r+0x394>
    3ce0:	d8802617 	ldw	r2,152(sp)
    3ce4:	d8c02017 	ldw	r3,128(sp)
    3ce8:	da000404 	addi	r8,sp,16
    3cec:	003e1c06 	br	3560 <___svfprintf_internal_r+0x1490>
    3cf0:	d8802917 	ldw	r2,164(sp)
    3cf4:	00c00184 	movi	r3,6
    3cf8:	1880012e 	bgeu	r3,r2,3d00 <___svfprintf_internal_r+0x1c30>
    3cfc:	1805883a 	mov	r2,r3
    3d00:	d8802e15 	stw	r2,184(sp)
    3d04:	1000f316 	blt	r2,zero,40d4 <___svfprintf_internal_r+0x2004>
    3d08:	040000b4 	movhi	r16,2
    3d0c:	d8802a15 	stw	r2,168(sp)
    3d10:	dd002d15 	stw	r20,180(sp)
    3d14:	d8002915 	stw	zero,164(sp)
    3d18:	d8003215 	stw	zero,200(sp)
    3d1c:	843b3a04 	addi	r16,r16,-4888
    3d20:	0039883a 	mov	fp,zero
    3d24:	003a9f06 	br	27a4 <___svfprintf_internal_r+0x6d4>
    3d28:	010000b4 	movhi	r4,2
    3d2c:	213b4084 	addi	r4,r4,-4862
    3d30:	d9003515 	stw	r4,212(sp)
    3d34:	003b5f06 	br	2ab4 <___svfprintf_internal_r+0x9e4>
    3d38:	d9402c17 	ldw	r5,176(sp)
    3d3c:	d9801e04 	addi	r6,sp,120
    3d40:	9809883a 	mov	r4,r19
    3d44:	000accc0 	call	accc <__ssprint_r>
    3d48:	1039c61e 	bne	r2,zero,2464 <___svfprintf_internal_r+0x394>
    3d4c:	d8802617 	ldw	r2,152(sp)
    3d50:	d9403317 	ldw	r5,204(sp)
    3d54:	d8c02017 	ldw	r3,128(sp)
    3d58:	da000404 	addi	r8,sp,16
    3d5c:	2885c83a 	sub	r2,r5,r2
    3d60:	003e1006 	br	35a4 <___svfprintf_internal_r+0x14d4>
    3d64:	00800044 	movi	r2,1
    3d68:	10803fcc 	andi	r2,r2,255
    3d6c:	00c00044 	movi	r3,1
    3d70:	10fa3526 	beq	r2,r3,2648 <___svfprintf_internal_r+0x578>
    3d74:	00c00084 	movi	r3,2
    3d78:	10fb9e26 	beq	r2,r3,2bf4 <___svfprintf_internal_r+0xb24>
    3d7c:	003a6406 	br	2710 <___svfprintf_internal_r+0x640>
    3d80:	0021883a 	mov	r16,zero
    3d84:	003e0806 	br	35a8 <___svfprintf_internal_r+0x14d8>
    3d88:	07000b44 	movi	fp,45
    3d8c:	df002785 	stb	fp,158(sp)
    3d90:	003a0b06 	br	25c0 <___svfprintf_internal_r+0x4f0>
    3d94:	d8c02d17 	ldw	r3,180(sp)
    3d98:	d9002f17 	ldw	r4,188(sp)
    3d9c:	18800017 	ldw	r2,0(r3)
    3da0:	18c00104 	addi	r3,r3,4
    3da4:	d8c02d15 	stw	r3,180(sp)
    3da8:	11000015 	stw	r4,0(r2)
    3dac:	0038f306 	br	217c <___svfprintf_internal_r+0xac>
    3db0:	00c00b44 	movi	r3,45
    3db4:	d8c02785 	stb	r3,158(sp)
    3db8:	d8802a15 	stw	r2,168(sp)
    3dbc:	dc802b17 	ldw	r18,172(sp)
    3dc0:	d8002915 	stw	zero,164(sp)
    3dc4:	07000b44 	movi	fp,45
    3dc8:	003a7306 	br	2798 <___svfprintf_internal_r+0x6c8>
    3dcc:	9080004c 	andi	r2,r18,1
    3dd0:	1000941e 	bne	r2,zero,4024 <___svfprintf_internal_r+0x1f54>
    3dd4:	d8802117 	ldw	r2,132(sp)
    3dd8:	1405c83a 	sub	r2,r2,r16
    3ddc:	d8803315 	stw	r2,204(sp)
    3de0:	b441161e 	bne	r22,r17,423c <___svfprintf_internal_r+0x216c>
    3de4:	dd802617 	ldw	r22,152(sp)
    3de8:	00bfff44 	movi	r2,-3
    3dec:	b0801a16 	blt	r22,r2,3e58 <___svfprintf_internal_r+0x1d88>
    3df0:	d9402917 	ldw	r5,164(sp)
    3df4:	2d801816 	blt	r5,r22,3e58 <___svfprintf_internal_r+0x1d88>
    3df8:	dd803215 	stw	r22,200(sp)
    3dfc:	003f3a06 	br	3ae8 <___svfprintf_internal_r+0x1a18>
    3e00:	1025883a 	mov	r18,r2
    3e04:	0039883a 	mov	fp,zero
    3e08:	00800084 	movi	r2,2
    3e0c:	003fd606 	br	3d68 <___svfprintf_internal_r+0x1c98>
    3e10:	9080004c 	andi	r2,r18,1
    3e14:	103f191e 	bne	r2,zero,3a7c <___svfprintf_internal_r+0x19ac>
    3e18:	d8802117 	ldw	r2,132(sp)
    3e1c:	003f2806 	br	3ac0 <___svfprintf_internal_r+0x19f0>
    3e20:	010000b4 	movhi	r4,2
    3e24:	213b3c84 	addi	r4,r4,-4878
    3e28:	d9002b15 	stw	r4,172(sp)
    3e2c:	003c7c06 	br	3020 <___svfprintf_internal_r+0xf50>
    3e30:	e005883a 	mov	r2,fp
    3e34:	003f2206 	br	3ac0 <___svfprintf_internal_r+0x19f0>
    3e38:	d9402917 	ldw	r5,164(sp)
    3e3c:	df002783 	ldbu	fp,158(sp)
    3e40:	dd002d15 	stw	r20,180(sp)
    3e44:	d9402a15 	stw	r5,168(sp)
    3e48:	d9402e15 	stw	r5,184(sp)
    3e4c:	d8002915 	stw	zero,164(sp)
    3e50:	d8003215 	stw	zero,200(sp)
    3e54:	003a4c06 	br	2788 <___svfprintf_internal_r+0x6b8>
    3e58:	8c7fff84 	addi	r17,r17,-2
    3e5c:	b5bfffc4 	addi	r22,r22,-1
    3e60:	dd802615 	stw	r22,152(sp)
    3e64:	dc4022c5 	stb	r17,139(sp)
    3e68:	b000c316 	blt	r22,zero,4178 <___svfprintf_internal_r+0x20a8>
    3e6c:	00800ac4 	movi	r2,43
    3e70:	d8802305 	stb	r2,140(sp)
    3e74:	00800244 	movi	r2,9
    3e78:	15806e16 	blt	r2,r22,4034 <___svfprintf_internal_r+0x1f64>
    3e7c:	00800c04 	movi	r2,48
    3e80:	b5800c04 	addi	r22,r22,48
    3e84:	d8802345 	stb	r2,141(sp)
    3e88:	dd802385 	stb	r22,142(sp)
    3e8c:	d88023c4 	addi	r2,sp,143
    3e90:	df0022c4 	addi	fp,sp,139
    3e94:	d8c03317 	ldw	r3,204(sp)
    3e98:	1739c83a 	sub	fp,r2,fp
    3e9c:	d9003317 	ldw	r4,204(sp)
    3ea0:	e0c7883a 	add	r3,fp,r3
    3ea4:	df003b15 	stw	fp,236(sp)
    3ea8:	d8c02e15 	stw	r3,184(sp)
    3eac:	00800044 	movi	r2,1
    3eb0:	1100b70e 	bge	r2,r4,4190 <___svfprintf_internal_r+0x20c0>
    3eb4:	d8c02e17 	ldw	r3,184(sp)
    3eb8:	18c00044 	addi	r3,r3,1
    3ebc:	d8c02e15 	stw	r3,184(sp)
    3ec0:	1805883a 	mov	r2,r3
    3ec4:	1800b016 	blt	r3,zero,4188 <___svfprintf_internal_r+0x20b8>
    3ec8:	d8003215 	stw	zero,200(sp)
    3ecc:	003f1006 	br	3b10 <___svfprintf_internal_r+0x1a40>
    3ed0:	d8802917 	ldw	r2,164(sp)
    3ed4:	103ec71e 	bne	r2,zero,39f4 <___svfprintf_internal_r+0x1924>
    3ed8:	dc002915 	stw	r16,164(sp)
    3edc:	003ec506 	br	39f4 <___svfprintf_internal_r+0x1924>
    3ee0:	d9402c17 	ldw	r5,176(sp)
    3ee4:	d9801e04 	addi	r6,sp,120
    3ee8:	9809883a 	mov	r4,r19
    3eec:	000accc0 	call	accc <__ssprint_r>
    3ef0:	10395c1e 	bne	r2,zero,2464 <___svfprintf_internal_r+0x394>
    3ef4:	dc402617 	ldw	r17,152(sp)
    3ef8:	d8c02017 	ldw	r3,128(sp)
    3efc:	d8801f17 	ldw	r2,124(sp)
    3f00:	da000404 	addi	r8,sp,16
    3f04:	003e7706 	br	38e4 <___svfprintf_internal_r+0x1814>
    3f08:	582f883a 	mov	r23,r11
    3f0c:	d8002915 	stw	zero,164(sp)
    3f10:	0038c406 	br	2224 <___svfprintf_internal_r+0x154>
    3f14:	d8c02917 	ldw	r3,164(sp)
    3f18:	d8802104 	addi	r2,sp,132
    3f1c:	d8800315 	stw	r2,12(sp)
    3f20:	d9403617 	ldw	r5,216(sp)
    3f24:	d8802504 	addi	r2,sp,148
    3f28:	d8800215 	stw	r2,8(sp)
    3f2c:	d8802604 	addi	r2,sp,152
    3f30:	d8c00015 	stw	r3,0(sp)
    3f34:	9809883a 	mov	r4,r19
    3f38:	d8800115 	stw	r2,4(sp)
    3f3c:	01c000c4 	movi	r7,3
    3f40:	a00d883a 	mov	r6,r20
    3f44:	da003e15 	stw	r8,248(sp)
    3f48:	00068d40 	call	68d4 <_dtoa_r>
    3f4c:	d9002917 	ldw	r4,164(sp)
    3f50:	da003e17 	ldw	r8,248(sp)
    3f54:	1021883a 	mov	r16,r2
    3f58:	1139883a 	add	fp,r2,r4
    3f5c:	2007883a 	mov	r3,r4
    3f60:	81000007 	ldb	r4,0(r16)
    3f64:	00800c04 	movi	r2,48
    3f68:	20806f26 	beq	r4,r2,4128 <___svfprintf_internal_r+0x2058>
    3f6c:	d8c02617 	ldw	r3,152(sp)
    3f70:	e0f9883a 	add	fp,fp,r3
    3f74:	003ec206 	br	3a80 <___svfprintf_internal_r+0x19b0>
    3f78:	00c00b44 	movi	r3,45
    3f7c:	2520003c 	xorhi	r20,r4,32768
    3f80:	d8c02a05 	stb	r3,168(sp)
    3f84:	003ea106 	br	3a0c <___svfprintf_internal_r+0x193c>
    3f88:	d8c03217 	ldw	r3,200(sp)
    3f8c:	00c0890e 	bge	zero,r3,41b4 <___svfprintf_internal_r+0x20e4>
    3f90:	00800044 	movi	r2,1
    3f94:	d9003317 	ldw	r4,204(sp)
    3f98:	1105883a 	add	r2,r2,r4
    3f9c:	d8802e15 	stw	r2,184(sp)
    3fa0:	10005f16 	blt	r2,zero,4120 <___svfprintf_internal_r+0x2050>
    3fa4:	044019c4 	movi	r17,103
    3fa8:	003ed906 	br	3b10 <___svfprintf_internal_r+0x1a40>
    3fac:	d9002917 	ldw	r4,164(sp)
    3fb0:	20c00044 	addi	r3,r4,1
    3fb4:	003e9c06 	br	3a28 <___svfprintf_internal_r+0x1958>
    3fb8:	d9002917 	ldw	r4,164(sp)
    3fbc:	00c0680e 	bge	zero,r3,4160 <___svfprintf_internal_r+0x2090>
    3fc0:	2000461e 	bne	r4,zero,40dc <___svfprintf_internal_r+0x200c>
    3fc4:	9480004c 	andi	r18,r18,1
    3fc8:	9000441e 	bne	r18,zero,40dc <___svfprintf_internal_r+0x200c>
    3fcc:	1805883a 	mov	r2,r3
    3fd0:	1800a016 	blt	r3,zero,4254 <___svfprintf_internal_r+0x2184>
    3fd4:	d8c03217 	ldw	r3,200(sp)
    3fd8:	d8c02e15 	stw	r3,184(sp)
    3fdc:	003ecc06 	br	3b10 <___svfprintf_internal_r+0x1a40>
    3fe0:	d9402917 	ldw	r5,164(sp)
    3fe4:	d8802104 	addi	r2,sp,132
    3fe8:	d8800315 	stw	r2,12(sp)
    3fec:	d9400015 	stw	r5,0(sp)
    3ff0:	d8802504 	addi	r2,sp,148
    3ff4:	d9403617 	ldw	r5,216(sp)
    3ff8:	d8800215 	stw	r2,8(sp)
    3ffc:	d8802604 	addi	r2,sp,152
    4000:	d8800115 	stw	r2,4(sp)
    4004:	01c000c4 	movi	r7,3
    4008:	a00d883a 	mov	r6,r20
    400c:	9809883a 	mov	r4,r19
    4010:	da003e15 	stw	r8,248(sp)
    4014:	00068d40 	call	68d4 <_dtoa_r>
    4018:	d8c02917 	ldw	r3,164(sp)
    401c:	da003e17 	ldw	r8,248(sp)
    4020:	1021883a 	mov	r16,r2
    4024:	00801184 	movi	r2,70
    4028:	80f9883a 	add	fp,r16,r3
    402c:	88bfcc26 	beq	r17,r2,3f60 <___svfprintf_internal_r+0x1e90>
    4030:	003e9306 	br	3a80 <___svfprintf_internal_r+0x19b0>
    4034:	df0022c4 	addi	fp,sp,139
    4038:	dc002915 	stw	r16,164(sp)
    403c:	9829883a 	mov	r20,r19
    4040:	e021883a 	mov	r16,fp
    4044:	4027883a 	mov	r19,r8
    4048:	b009883a 	mov	r4,r22
    404c:	01400284 	movi	r5,10
    4050:	000f7040 	call	f704 <__modsi3>
    4054:	10800c04 	addi	r2,r2,48
    4058:	843fffc4 	addi	r16,r16,-1
    405c:	b009883a 	mov	r4,r22
    4060:	01400284 	movi	r5,10
    4064:	80800005 	stb	r2,0(r16)
    4068:	000f6800 	call	f680 <__divsi3>
    406c:	102d883a 	mov	r22,r2
    4070:	00800244 	movi	r2,9
    4074:	15bff416 	blt	r2,r22,4048 <___svfprintf_internal_r+0x1f78>
    4078:	9811883a 	mov	r8,r19
    407c:	b0800c04 	addi	r2,r22,48
    4080:	a027883a 	mov	r19,r20
    4084:	8029883a 	mov	r20,r16
    4088:	a17fffc4 	addi	r5,r20,-1
    408c:	a0bfffc5 	stb	r2,-1(r20)
    4090:	dc002917 	ldw	r16,164(sp)
    4094:	2f00752e 	bgeu	r5,fp,426c <___svfprintf_internal_r+0x219c>
    4098:	d9c02384 	addi	r7,sp,142
    409c:	3d0fc83a 	sub	r7,r7,r20
    40a0:	d9002344 	addi	r4,sp,141
    40a4:	e1cf883a 	add	r7,fp,r7
    40a8:	00000106 	br	40b0 <___svfprintf_internal_r+0x1fe0>
    40ac:	28800003 	ldbu	r2,0(r5)
    40b0:	20800005 	stb	r2,0(r4)
    40b4:	21000044 	addi	r4,r4,1
    40b8:	29400044 	addi	r5,r5,1
    40bc:	21fffb1e 	bne	r4,r7,40ac <___svfprintf_internal_r+0x1fdc>
    40c0:	d8802304 	addi	r2,sp,140
    40c4:	1505c83a 	sub	r2,r2,r20
    40c8:	d8c02344 	addi	r3,sp,141
    40cc:	1885883a 	add	r2,r3,r2
    40d0:	003f7006 	br	3e94 <___svfprintf_internal_r+0x1dc4>
    40d4:	0005883a 	mov	r2,zero
    40d8:	003f0b06 	br	3d08 <___svfprintf_internal_r+0x1c38>
    40dc:	d9002917 	ldw	r4,164(sp)
    40e0:	d8c03217 	ldw	r3,200(sp)
    40e4:	20800044 	addi	r2,r4,1
    40e8:	1885883a 	add	r2,r3,r2
    40ec:	d8802e15 	stw	r2,184(sp)
    40f0:	103e870e 	bge	r2,zero,3b10 <___svfprintf_internal_r+0x1a40>
    40f4:	0005883a 	mov	r2,zero
    40f8:	003e8506 	br	3b10 <___svfprintf_internal_r+0x1a40>
    40fc:	010000b4 	movhi	r4,2
    4100:	213b3c84 	addi	r4,r4,-4878
    4104:	d9002b15 	stw	r4,172(sp)
    4108:	003cc506 	br	3420 <___svfprintf_internal_r+0x1350>
    410c:	d8c03217 	ldw	r3,200(sp)
    4110:	18c00044 	addi	r3,r3,1
    4114:	d8c02e15 	stw	r3,184(sp)
    4118:	1805883a 	mov	r2,r3
    411c:	183fa10e 	bge	r3,zero,3fa4 <___svfprintf_internal_r+0x1ed4>
    4120:	0005883a 	mov	r2,zero
    4124:	003f9f06 	br	3fa4 <___svfprintf_internal_r+0x1ed4>
    4128:	d9003617 	ldw	r4,216(sp)
    412c:	000d883a 	mov	r6,zero
    4130:	000f883a 	mov	r7,zero
    4134:	a00b883a 	mov	r5,r20
    4138:	d8c03d15 	stw	r3,244(sp)
    413c:	da003e15 	stw	r8,248(sp)
    4140:	00109c80 	call	109c8 <__eqdf2>
    4144:	d8c03d17 	ldw	r3,244(sp)
    4148:	da003e17 	ldw	r8,248(sp)
    414c:	103f8726 	beq	r2,zero,3f6c <___svfprintf_internal_r+0x1e9c>
    4150:	00800044 	movi	r2,1
    4154:	10c7c83a 	sub	r3,r2,r3
    4158:	d8c02615 	stw	r3,152(sp)
    415c:	003f8406 	br	3f70 <___svfprintf_internal_r+0x1ea0>
    4160:	20000e1e 	bne	r4,zero,419c <___svfprintf_internal_r+0x20cc>
    4164:	9480004c 	andi	r18,r18,1
    4168:	90000c1e 	bne	r18,zero,419c <___svfprintf_internal_r+0x20cc>
    416c:	00800044 	movi	r2,1
    4170:	d8802e15 	stw	r2,184(sp)
    4174:	003e6606 	br	3b10 <___svfprintf_internal_r+0x1a40>
    4178:	00800b44 	movi	r2,45
    417c:	05adc83a 	sub	r22,zero,r22
    4180:	d8802305 	stb	r2,140(sp)
    4184:	003f3b06 	br	3e74 <___svfprintf_internal_r+0x1da4>
    4188:	0005883a 	mov	r2,zero
    418c:	003f4e06 	br	3ec8 <___svfprintf_internal_r+0x1df8>
    4190:	90a4703a 	and	r18,r18,r2
    4194:	903f4a26 	beq	r18,zero,3ec0 <___svfprintf_internal_r+0x1df0>
    4198:	003f4606 	br	3eb4 <___svfprintf_internal_r+0x1de4>
    419c:	d8c02917 	ldw	r3,164(sp)
    41a0:	18c00084 	addi	r3,r3,2
    41a4:	d8c02e15 	stw	r3,184(sp)
    41a8:	1805883a 	mov	r2,r3
    41ac:	183e580e 	bge	r3,zero,3b10 <___svfprintf_internal_r+0x1a40>
    41b0:	003fd006 	br	40f4 <___svfprintf_internal_r+0x2024>
    41b4:	00800084 	movi	r2,2
    41b8:	10c5c83a 	sub	r2,r2,r3
    41bc:	003f7506 	br	3f94 <___svfprintf_internal_r+0x1ec4>
    41c0:	d8802d17 	ldw	r2,180(sp)
    41c4:	d9002d17 	ldw	r4,180(sp)
    41c8:	bc400043 	ldbu	r17,1(r23)
    41cc:	10800017 	ldw	r2,0(r2)
    41d0:	582f883a 	mov	r23,r11
    41d4:	d8802915 	stw	r2,164(sp)
    41d8:	20800104 	addi	r2,r4,4
    41dc:	d9002917 	ldw	r4,164(sp)
    41e0:	d8802d15 	stw	r2,180(sp)
    41e4:	203df00e 	bge	r4,zero,39a8 <___svfprintf_internal_r+0x18d8>
    41e8:	8c403fcc 	andi	r17,r17,255
    41ec:	00bfffc4 	movi	r2,-1
    41f0:	8c40201c 	xori	r17,r17,128
    41f4:	d8802915 	stw	r2,164(sp)
    41f8:	8c7fe004 	addi	r17,r17,-128
    41fc:	00380806 	br	2220 <___svfprintf_internal_r+0x150>
    4200:	9080004c 	andi	r2,r18,1
    4204:	0039883a 	mov	fp,zero
    4208:	10000726 	beq	r2,zero,4228 <___svfprintf_internal_r+0x2158>
    420c:	d8c02817 	ldw	r3,160(sp)
    4210:	dc001dc4 	addi	r16,sp,119
    4214:	00800c04 	movi	r2,48
    4218:	1c07c83a 	sub	r3,r3,r16
    421c:	d8801dc5 	stb	r2,119(sp)
    4220:	d8c02e15 	stw	r3,184(sp)
    4224:	00395206 	br	2770 <___svfprintf_internal_r+0x6a0>
    4228:	d8002e15 	stw	zero,184(sp)
    422c:	dc001e04 	addi	r16,sp,120
    4230:	00394f06 	br	2770 <___svfprintf_internal_r+0x6a0>
    4234:	0005883a 	mov	r2,zero
    4238:	003e3206 	br	3b04 <___svfprintf_internal_r+0x1a34>
    423c:	dd802617 	ldw	r22,152(sp)
    4240:	003f0606 	br	3e5c <___svfprintf_internal_r+0x1d8c>
    4244:	d9c02785 	stb	r7,158(sp)
    4248:	003a5106 	br	2b90 <___svfprintf_internal_r+0xac0>
    424c:	d9c02785 	stb	r7,158(sp)
    4250:	003a3706 	br	2b30 <___svfprintf_internal_r+0xa60>
    4254:	0005883a 	mov	r2,zero
    4258:	003f5e06 	br	3fd4 <___svfprintf_internal_r+0x1f04>
    425c:	d9c02785 	stb	r7,158(sp)
    4260:	00391706 	br	26c0 <___svfprintf_internal_r+0x5f0>
    4264:	d9c02785 	stb	r7,158(sp)
    4268:	0038e606 	br	2604 <___svfprintf_internal_r+0x534>
    426c:	d8802344 	addi	r2,sp,141
    4270:	003f0806 	br	3e94 <___svfprintf_internal_r+0x1dc4>
    4274:	d9c02785 	stb	r7,158(sp)
    4278:	0038b706 	br	2558 <___svfprintf_internal_r+0x488>
    427c:	d9c02785 	stb	r7,158(sp)
    4280:	003adc06 	br	2df4 <___svfprintf_internal_r+0xd24>
    4284:	d9403917 	ldw	r5,228(sp)
    4288:	00800304 	movi	r2,12
    428c:	28800015 	stw	r2,0(r5)
    4290:	00bfffc4 	movi	r2,-1
    4294:	00387806 	br	2478 <___svfprintf_internal_r+0x3a8>
    4298:	d9c02785 	stb	r7,158(sp)
    429c:	003abf06 	br	2d9c <___svfprintf_internal_r+0xccc>
    42a0:	d9c02785 	stb	r7,158(sp)
    42a4:	003a9b06 	br	2d14 <___svfprintf_internal_r+0xc44>

000042a8 <_user_strerror>:
    42a8:	0005883a 	mov	r2,zero
    42ac:	f800283a 	ret

000042b0 <___vfprintf_internal_r>:
    42b0:	deffb804 	addi	sp,sp,-288
    42b4:	dfc04715 	stw	ra,284(sp)
    42b8:	ddc04515 	stw	r23,276(sp)
    42bc:	dd404315 	stw	r21,268(sp)
    42c0:	d9002c15 	stw	r4,176(sp)
    42c4:	282f883a 	mov	r23,r5
    42c8:	302b883a 	mov	r21,r6
    42cc:	d9c02d15 	stw	r7,180(sp)
    42d0:	df004615 	stw	fp,280(sp)
    42d4:	dd804415 	stw	r22,272(sp)
    42d8:	dd004215 	stw	r20,264(sp)
    42dc:	dcc04115 	stw	r19,260(sp)
    42e0:	dc804015 	stw	r18,256(sp)
    42e4:	dc403f15 	stw	r17,252(sp)
    42e8:	dc003e15 	stw	r16,248(sp)
    42ec:	0008c0c0 	call	8c0c <_localeconv_r>
    42f0:	10800017 	ldw	r2,0(r2)
    42f4:	1009883a 	mov	r4,r2
    42f8:	d8803415 	stw	r2,208(sp)
    42fc:	000ac340 	call	ac34 <strlen>
    4300:	d8803715 	stw	r2,220(sp)
    4304:	d8802c17 	ldw	r2,176(sp)
    4308:	10000226 	beq	r2,zero,4314 <___vfprintf_internal_r+0x64>
    430c:	10800e17 	ldw	r2,56(r2)
    4310:	1000f926 	beq	r2,zero,46f8 <___vfprintf_internal_r+0x448>
    4314:	b880030b 	ldhu	r2,12(r23)
    4318:	10c8000c 	andi	r3,r2,8192
    431c:	1800061e 	bne	r3,zero,4338 <___vfprintf_internal_r+0x88>
    4320:	b9001917 	ldw	r4,100(r23)
    4324:	00f7ffc4 	movi	r3,-8193
    4328:	10880014 	ori	r2,r2,8192
    432c:	20c6703a 	and	r3,r4,r3
    4330:	b880030d 	sth	r2,12(r23)
    4334:	b8c01915 	stw	r3,100(r23)
    4338:	10c0020c 	andi	r3,r2,8
    433c:	1800c126 	beq	r3,zero,4644 <___vfprintf_internal_r+0x394>
    4340:	b8c00417 	ldw	r3,16(r23)
    4344:	1800bf26 	beq	r3,zero,4644 <___vfprintf_internal_r+0x394>
    4348:	1080068c 	andi	r2,r2,26
    434c:	00c00284 	movi	r3,10
    4350:	10c0c426 	beq	r2,r3,4664 <___vfprintf_internal_r+0x3b4>
    4354:	d8c00404 	addi	r3,sp,16
    4358:	050000b4 	movhi	r20,2
    435c:	d9001e04 	addi	r4,sp,120
    4360:	a53b4484 	addi	r20,r20,-4846
    4364:	d8c01e15 	stw	r3,120(sp)
    4368:	d8002015 	stw	zero,128(sp)
    436c:	d8001f15 	stw	zero,124(sp)
    4370:	d8003315 	stw	zero,204(sp)
    4374:	d8003615 	stw	zero,216(sp)
    4378:	d8003815 	stw	zero,224(sp)
    437c:	1811883a 	mov	r8,r3
    4380:	d8003915 	stw	zero,228(sp)
    4384:	d8003a15 	stw	zero,232(sp)
    4388:	d8002f15 	stw	zero,188(sp)
    438c:	d9002815 	stw	r4,160(sp)
    4390:	a8800007 	ldb	r2,0(r21)
    4394:	10027b26 	beq	r2,zero,4d84 <___vfprintf_internal_r+0xad4>
    4398:	00c00944 	movi	r3,37
    439c:	a821883a 	mov	r16,r21
    43a0:	10c0021e 	bne	r2,r3,43ac <___vfprintf_internal_r+0xfc>
    43a4:	00001406 	br	43f8 <___vfprintf_internal_r+0x148>
    43a8:	10c00326 	beq	r2,r3,43b8 <___vfprintf_internal_r+0x108>
    43ac:	84000044 	addi	r16,r16,1
    43b0:	80800007 	ldb	r2,0(r16)
    43b4:	103ffc1e 	bne	r2,zero,43a8 <___vfprintf_internal_r+0xf8>
    43b8:	8563c83a 	sub	r17,r16,r21
    43bc:	88000e26 	beq	r17,zero,43f8 <___vfprintf_internal_r+0x148>
    43c0:	d8c02017 	ldw	r3,128(sp)
    43c4:	d8801f17 	ldw	r2,124(sp)
    43c8:	45400015 	stw	r21,0(r8)
    43cc:	1c47883a 	add	r3,r3,r17
    43d0:	10800044 	addi	r2,r2,1
    43d4:	d8c02015 	stw	r3,128(sp)
    43d8:	44400115 	stw	r17,4(r8)
    43dc:	d8801f15 	stw	r2,124(sp)
    43e0:	00c001c4 	movi	r3,7
    43e4:	1880a716 	blt	r3,r2,4684 <___vfprintf_internal_r+0x3d4>
    43e8:	42000204 	addi	r8,r8,8
    43ec:	d9402f17 	ldw	r5,188(sp)
    43f0:	2c4b883a 	add	r5,r5,r17
    43f4:	d9402f15 	stw	r5,188(sp)
    43f8:	80800007 	ldb	r2,0(r16)
    43fc:	1000a826 	beq	r2,zero,46a0 <___vfprintf_internal_r+0x3f0>
    4400:	84400047 	ldb	r17,1(r16)
    4404:	00bfffc4 	movi	r2,-1
    4408:	85400044 	addi	r21,r16,1
    440c:	d8002785 	stb	zero,158(sp)
    4410:	0007883a 	mov	r3,zero
    4414:	000f883a 	mov	r7,zero
    4418:	d8802915 	stw	r2,164(sp)
    441c:	d8003115 	stw	zero,196(sp)
    4420:	0025883a 	mov	r18,zero
    4424:	01401604 	movi	r5,88
    4428:	01800244 	movi	r6,9
    442c:	02800a84 	movi	r10,42
    4430:	02401b04 	movi	r9,108
    4434:	ad400044 	addi	r21,r21,1
    4438:	88bff804 	addi	r2,r17,-32
    443c:	28830436 	bltu	r5,r2,5050 <___vfprintf_internal_r+0xda0>
    4440:	100490ba 	slli	r2,r2,2
    4444:	01000034 	movhi	r4,0
    4448:	21111604 	addi	r4,r4,17496
    444c:	1105883a 	add	r2,r2,r4
    4450:	10800017 	ldw	r2,0(r2)
    4454:	1000683a 	jmp	r2
    4458:	00004f70 	cmpltui	zero,zero,317
    445c:	00005050 	cmplti	zero,zero,321
    4460:	00005050 	cmplti	zero,zero,321
    4464:	00004f90 	cmplti	zero,zero,318
    4468:	00005050 	cmplti	zero,zero,321
    446c:	00005050 	cmplti	zero,zero,321
    4470:	00005050 	cmplti	zero,zero,321
    4474:	00005050 	cmplti	zero,zero,321
    4478:	00005050 	cmplti	zero,zero,321
    447c:	00005050 	cmplti	zero,zero,321
    4480:	00004704 	movi	zero,284
    4484:	00004eac 	andhi	zero,zero,314
    4488:	00005050 	cmplti	zero,zero,321
    448c:	000045cc 	andi	zero,zero,279
    4490:	0000472c 	andhi	zero,zero,284
    4494:	00005050 	cmplti	zero,zero,321
    4498:	0000476c 	andhi	zero,zero,285
    449c:	00004778 	rdprs	zero,zero,285
    44a0:	00004778 	rdprs	zero,zero,285
    44a4:	00004778 	rdprs	zero,zero,285
    44a8:	00004778 	rdprs	zero,zero,285
    44ac:	00004778 	rdprs	zero,zero,285
    44b0:	00004778 	rdprs	zero,zero,285
    44b4:	00004778 	rdprs	zero,zero,285
    44b8:	00004778 	rdprs	zero,zero,285
    44bc:	00004778 	rdprs	zero,zero,285
    44c0:	00005050 	cmplti	zero,zero,321
    44c4:	00005050 	cmplti	zero,zero,321
    44c8:	00005050 	cmplti	zero,zero,321
    44cc:	00005050 	cmplti	zero,zero,321
    44d0:	00005050 	cmplti	zero,zero,321
    44d4:	00005050 	cmplti	zero,zero,321
    44d8:	00005050 	cmplti	zero,zero,321
    44dc:	00005050 	cmplti	zero,zero,321
    44e0:	00005050 	cmplti	zero,zero,321
    44e4:	00005050 	cmplti	zero,zero,321
    44e8:	000047ac 	andhi	zero,zero,286
    44ec:	00004868 	cmpgeui	zero,zero,289
    44f0:	00005050 	cmplti	zero,zero,321
    44f4:	00004868 	cmpgeui	zero,zero,289
    44f8:	00005050 	cmplti	zero,zero,321
    44fc:	00005050 	cmplti	zero,zero,321
    4500:	00005050 	cmplti	zero,zero,321
    4504:	00005050 	cmplti	zero,zero,321
    4508:	00004908 	cmpgei	zero,zero,292
    450c:	00005050 	cmplti	zero,zero,321
    4510:	00005050 	cmplti	zero,zero,321
    4514:	00004914 	movui	zero,292
    4518:	00005050 	cmplti	zero,zero,321
    451c:	00005050 	cmplti	zero,zero,321
    4520:	00005050 	cmplti	zero,zero,321
    4524:	00005050 	cmplti	zero,zero,321
    4528:	00005050 	cmplti	zero,zero,321
    452c:	00004d8c 	andi	zero,zero,310
    4530:	00005050 	cmplti	zero,zero,321
    4534:	00005050 	cmplti	zero,zero,321
    4538:	00004dec 	andhi	zero,zero,311
    453c:	00005050 	cmplti	zero,zero,321
    4540:	00005050 	cmplti	zero,zero,321
    4544:	00005050 	cmplti	zero,zero,321
    4548:	00005050 	cmplti	zero,zero,321
    454c:	00005050 	cmplti	zero,zero,321
    4550:	00005050 	cmplti	zero,zero,321
    4554:	00005050 	cmplti	zero,zero,321
    4558:	00005050 	cmplti	zero,zero,321
    455c:	00005050 	cmplti	zero,zero,321
    4560:	00005050 	cmplti	zero,zero,321
    4564:	00004ffc 	xorhi	zero,zero,319
    4568:	00004f9c 	xori	zero,zero,318
    456c:	00004868 	cmpgeui	zero,zero,289
    4570:	00004868 	cmpgeui	zero,zero,289
    4574:	00004868 	cmpgeui	zero,zero,289
    4578:	00004fac 	andhi	zero,zero,318
    457c:	00004f9c 	xori	zero,zero,318
    4580:	00005050 	cmplti	zero,zero,321
    4584:	00005050 	cmplti	zero,zero,321
    4588:	00004fb8 	rdprs	zero,zero,318
    458c:	00005050 	cmplti	zero,zero,321
    4590:	00004fc8 	cmpgei	zero,zero,319
    4594:	00004e9c 	xori	zero,zero,314
    4598:	000045d8 	cmpnei	zero,zero,279
    459c:	00004ebc 	xorhi	zero,zero,314
    45a0:	00005050 	cmplti	zero,zero,321
    45a4:	00004ec8 	cmpgei	zero,zero,315
    45a8:	00005050 	cmplti	zero,zero,321
    45ac:	00004f24 	muli	zero,zero,316
    45b0:	00005050 	cmplti	zero,zero,321
    45b4:	00005050 	cmplti	zero,zero,321
    45b8:	00004f34 	movhi	zero,316
    45bc:	d9003117 	ldw	r4,196(sp)
    45c0:	d8802d15 	stw	r2,180(sp)
    45c4:	0109c83a 	sub	r4,zero,r4
    45c8:	d9003115 	stw	r4,196(sp)
    45cc:	94800114 	ori	r18,r18,4
    45d0:	ac400007 	ldb	r17,0(r21)
    45d4:	003f9706 	br	4434 <___vfprintf_internal_r+0x184>
    45d8:	00800c04 	movi	r2,48
    45dc:	d9002d17 	ldw	r4,180(sp)
    45e0:	d9402917 	ldw	r5,164(sp)
    45e4:	d8802705 	stb	r2,156(sp)
    45e8:	00801e04 	movi	r2,120
    45ec:	d8802745 	stb	r2,157(sp)
    45f0:	d8002785 	stb	zero,158(sp)
    45f4:	20c00104 	addi	r3,r4,4
    45f8:	24c00017 	ldw	r19,0(r4)
    45fc:	002d883a 	mov	r22,zero
    4600:	90800094 	ori	r2,r18,2
    4604:	28029a16 	blt	r5,zero,5070 <___vfprintf_internal_r+0xdc0>
    4608:	00bfdfc4 	movi	r2,-129
    460c:	90a4703a 	and	r18,r18,r2
    4610:	d8c02d15 	stw	r3,180(sp)
    4614:	94800094 	ori	r18,r18,2
    4618:	9802871e 	bne	r19,zero,5038 <___vfprintf_internal_r+0xd88>
    461c:	008000b4 	movhi	r2,2
    4620:	10bb3504 	addi	r2,r2,-4908
    4624:	d8803915 	stw	r2,228(sp)
    4628:	04401e04 	movi	r17,120
    462c:	d8802917 	ldw	r2,164(sp)
    4630:	0039883a 	mov	fp,zero
    4634:	1001e926 	beq	r2,zero,4ddc <___vfprintf_internal_r+0xb2c>
    4638:	0027883a 	mov	r19,zero
    463c:	002d883a 	mov	r22,zero
    4640:	00020506 	br	4e58 <___vfprintf_internal_r+0xba8>
    4644:	d9002c17 	ldw	r4,176(sp)
    4648:	b80b883a 	mov	r5,r23
    464c:	00065800 	call	6580 <__swsetup_r>
    4650:	1005ac1e 	bne	r2,zero,5d04 <___vfprintf_internal_r+0x1a54>
    4654:	b880030b 	ldhu	r2,12(r23)
    4658:	00c00284 	movi	r3,10
    465c:	1080068c 	andi	r2,r2,26
    4660:	10ff3c1e 	bne	r2,r3,4354 <___vfprintf_internal_r+0xa4>
    4664:	b880038f 	ldh	r2,14(r23)
    4668:	103f3a16 	blt	r2,zero,4354 <___vfprintf_internal_r+0xa4>
    466c:	d9c02d17 	ldw	r7,180(sp)
    4670:	d9002c17 	ldw	r4,176(sp)
    4674:	a80d883a 	mov	r6,r21
    4678:	b80b883a 	mov	r5,r23
    467c:	00064c40 	call	64c4 <__sbprintf>
    4680:	00001106 	br	46c8 <___vfprintf_internal_r+0x418>
    4684:	d9002c17 	ldw	r4,176(sp)
    4688:	d9801e04 	addi	r6,sp,120
    468c:	b80b883a 	mov	r5,r23
    4690:	000c1d40 	call	c1d4 <__sprint_r>
    4694:	1000081e 	bne	r2,zero,46b8 <___vfprintf_internal_r+0x408>
    4698:	da000404 	addi	r8,sp,16
    469c:	003f5306 	br	43ec <___vfprintf_internal_r+0x13c>
    46a0:	d8802017 	ldw	r2,128(sp)
    46a4:	10000426 	beq	r2,zero,46b8 <___vfprintf_internal_r+0x408>
    46a8:	d9002c17 	ldw	r4,176(sp)
    46ac:	d9801e04 	addi	r6,sp,120
    46b0:	b80b883a 	mov	r5,r23
    46b4:	000c1d40 	call	c1d4 <__sprint_r>
    46b8:	b880030b 	ldhu	r2,12(r23)
    46bc:	1080100c 	andi	r2,r2,64
    46c0:	1005901e 	bne	r2,zero,5d04 <___vfprintf_internal_r+0x1a54>
    46c4:	d8802f17 	ldw	r2,188(sp)
    46c8:	dfc04717 	ldw	ra,284(sp)
    46cc:	df004617 	ldw	fp,280(sp)
    46d0:	ddc04517 	ldw	r23,276(sp)
    46d4:	dd804417 	ldw	r22,272(sp)
    46d8:	dd404317 	ldw	r21,268(sp)
    46dc:	dd004217 	ldw	r20,264(sp)
    46e0:	dcc04117 	ldw	r19,260(sp)
    46e4:	dc804017 	ldw	r18,256(sp)
    46e8:	dc403f17 	ldw	r17,252(sp)
    46ec:	dc003e17 	ldw	r16,248(sp)
    46f0:	dec04804 	addi	sp,sp,288
    46f4:	f800283a 	ret
    46f8:	d9002c17 	ldw	r4,176(sp)
    46fc:	00085540 	call	8554 <__sinit>
    4700:	003f0406 	br	4314 <___vfprintf_internal_r+0x64>
    4704:	d8802d17 	ldw	r2,180(sp)
    4708:	d9002d17 	ldw	r4,180(sp)
    470c:	10800017 	ldw	r2,0(r2)
    4710:	d8803115 	stw	r2,196(sp)
    4714:	20800104 	addi	r2,r4,4
    4718:	d9003117 	ldw	r4,196(sp)
    471c:	203fa716 	blt	r4,zero,45bc <___vfprintf_internal_r+0x30c>
    4720:	d8802d15 	stw	r2,180(sp)
    4724:	ac400007 	ldb	r17,0(r21)
    4728:	003f4206 	br	4434 <___vfprintf_internal_r+0x184>
    472c:	ac400007 	ldb	r17,0(r21)
    4730:	aac00044 	addi	r11,r21,1
    4734:	8a872826 	beq	r17,r10,63d8 <___vfprintf_internal_r+0x2128>
    4738:	88bff404 	addi	r2,r17,-48
    473c:	0009883a 	mov	r4,zero
    4740:	30867d36 	bltu	r6,r2,6138 <___vfprintf_internal_r+0x1e88>
    4744:	5c400007 	ldb	r17,0(r11)
    4748:	210002a4 	muli	r4,r4,10
    474c:	5d400044 	addi	r21,r11,1
    4750:	a817883a 	mov	r11,r21
    4754:	2089883a 	add	r4,r4,r2
    4758:	88bff404 	addi	r2,r17,-48
    475c:	30bff92e 	bgeu	r6,r2,4744 <___vfprintf_internal_r+0x494>
    4760:	2005c916 	blt	r4,zero,5e88 <___vfprintf_internal_r+0x1bd8>
    4764:	d9002915 	stw	r4,164(sp)
    4768:	003f3306 	br	4438 <___vfprintf_internal_r+0x188>
    476c:	94802014 	ori	r18,r18,128
    4770:	ac400007 	ldb	r17,0(r21)
    4774:	003f2f06 	br	4434 <___vfprintf_internal_r+0x184>
    4778:	a809883a 	mov	r4,r21
    477c:	d8003115 	stw	zero,196(sp)
    4780:	88bff404 	addi	r2,r17,-48
    4784:	0017883a 	mov	r11,zero
    4788:	24400007 	ldb	r17,0(r4)
    478c:	5ac002a4 	muli	r11,r11,10
    4790:	ad400044 	addi	r21,r21,1
    4794:	a809883a 	mov	r4,r21
    4798:	12d7883a 	add	r11,r2,r11
    479c:	88bff404 	addi	r2,r17,-48
    47a0:	30bff92e 	bgeu	r6,r2,4788 <___vfprintf_internal_r+0x4d8>
    47a4:	dac03115 	stw	r11,196(sp)
    47a8:	003f2306 	br	4438 <___vfprintf_internal_r+0x188>
    47ac:	18c03fcc 	andi	r3,r3,255
    47b0:	18072b1e 	bne	r3,zero,6460 <___vfprintf_internal_r+0x21b0>
    47b4:	94800414 	ori	r18,r18,16
    47b8:	9080080c 	andi	r2,r18,32
    47bc:	10037b26 	beq	r2,zero,55ac <___vfprintf_internal_r+0x12fc>
    47c0:	d9402d17 	ldw	r5,180(sp)
    47c4:	28800117 	ldw	r2,4(r5)
    47c8:	2cc00017 	ldw	r19,0(r5)
    47cc:	29400204 	addi	r5,r5,8
    47d0:	d9402d15 	stw	r5,180(sp)
    47d4:	102d883a 	mov	r22,r2
    47d8:	10044b16 	blt	r2,zero,5908 <___vfprintf_internal_r+0x1658>
    47dc:	d9402917 	ldw	r5,164(sp)
    47e0:	df002783 	ldbu	fp,158(sp)
    47e4:	2803bc16 	blt	r5,zero,56d8 <___vfprintf_internal_r+0x1428>
    47e8:	00ffdfc4 	movi	r3,-129
    47ec:	9d84b03a 	or	r2,r19,r22
    47f0:	90e4703a 	and	r18,r18,r3
    47f4:	10017726 	beq	r2,zero,4dd4 <___vfprintf_internal_r+0xb24>
    47f8:	b0038326 	beq	r22,zero,5608 <___vfprintf_internal_r+0x1358>
    47fc:	dc402a15 	stw	r17,168(sp)
    4800:	dc001e04 	addi	r16,sp,120
    4804:	b023883a 	mov	r17,r22
    4808:	402d883a 	mov	r22,r8
    480c:	9809883a 	mov	r4,r19
    4810:	880b883a 	mov	r5,r17
    4814:	01800284 	movi	r6,10
    4818:	000f883a 	mov	r7,zero
    481c:	000f1480 	call	f148 <__umoddi3>
    4820:	10800c04 	addi	r2,r2,48
    4824:	843fffc4 	addi	r16,r16,-1
    4828:	9809883a 	mov	r4,r19
    482c:	880b883a 	mov	r5,r17
    4830:	80800005 	stb	r2,0(r16)
    4834:	01800284 	movi	r6,10
    4838:	000f883a 	mov	r7,zero
    483c:	000ebd00 	call	ebd0 <__udivdi3>
    4840:	1027883a 	mov	r19,r2
    4844:	10c4b03a 	or	r2,r2,r3
    4848:	1823883a 	mov	r17,r3
    484c:	103fef1e 	bne	r2,zero,480c <___vfprintf_internal_r+0x55c>
    4850:	d8c02817 	ldw	r3,160(sp)
    4854:	dc402a17 	ldw	r17,168(sp)
    4858:	b011883a 	mov	r8,r22
    485c:	1c07c83a 	sub	r3,r3,r16
    4860:	d8c02e15 	stw	r3,184(sp)
    4864:	00005906 	br	49cc <___vfprintf_internal_r+0x71c>
    4868:	18c03fcc 	andi	r3,r3,255
    486c:	1806fa1e 	bne	r3,zero,6458 <___vfprintf_internal_r+0x21a8>
    4870:	9080020c 	andi	r2,r18,8
    4874:	10048a26 	beq	r2,zero,5aa0 <___vfprintf_internal_r+0x17f0>
    4878:	d8c02d17 	ldw	r3,180(sp)
    487c:	d9002d17 	ldw	r4,180(sp)
    4880:	d9402d17 	ldw	r5,180(sp)
    4884:	18c00017 	ldw	r3,0(r3)
    4888:	21000117 	ldw	r4,4(r4)
    488c:	29400204 	addi	r5,r5,8
    4890:	d8c03615 	stw	r3,216(sp)
    4894:	d9003815 	stw	r4,224(sp)
    4898:	d9402d15 	stw	r5,180(sp)
    489c:	d9003617 	ldw	r4,216(sp)
    48a0:	d9403817 	ldw	r5,224(sp)
    48a4:	da003d15 	stw	r8,244(sp)
    48a8:	04000044 	movi	r16,1
    48ac:	000a9540 	call	a954 <__fpclassifyd>
    48b0:	da003d17 	ldw	r8,244(sp)
    48b4:	14041f1e 	bne	r2,r16,5934 <___vfprintf_internal_r+0x1684>
    48b8:	d9003617 	ldw	r4,216(sp)
    48bc:	d9403817 	ldw	r5,224(sp)
    48c0:	000d883a 	mov	r6,zero
    48c4:	000f883a 	mov	r7,zero
    48c8:	0010b2c0 	call	10b2c <__ledf2>
    48cc:	da003d17 	ldw	r8,244(sp)
    48d0:	1005be16 	blt	r2,zero,5fcc <___vfprintf_internal_r+0x1d1c>
    48d4:	df002783 	ldbu	fp,158(sp)
    48d8:	008011c4 	movi	r2,71
    48dc:	1445330e 	bge	r2,r17,5dac <___vfprintf_internal_r+0x1afc>
    48e0:	040000b4 	movhi	r16,2
    48e4:	843b2d04 	addi	r16,r16,-4940
    48e8:	00c000c4 	movi	r3,3
    48ec:	00bfdfc4 	movi	r2,-129
    48f0:	d8c02a15 	stw	r3,168(sp)
    48f4:	90a4703a 	and	r18,r18,r2
    48f8:	d8c02e15 	stw	r3,184(sp)
    48fc:	d8002915 	stw	zero,164(sp)
    4900:	d8003215 	stw	zero,200(sp)
    4904:	00003706 	br	49e4 <___vfprintf_internal_r+0x734>
    4908:	94800214 	ori	r18,r18,8
    490c:	ac400007 	ldb	r17,0(r21)
    4910:	003ec806 	br	4434 <___vfprintf_internal_r+0x184>
    4914:	18c03fcc 	andi	r3,r3,255
    4918:	1806db1e 	bne	r3,zero,6488 <___vfprintf_internal_r+0x21d8>
    491c:	94800414 	ori	r18,r18,16
    4920:	9080080c 	andi	r2,r18,32
    4924:	1002d826 	beq	r2,zero,5488 <___vfprintf_internal_r+0x11d8>
    4928:	d9402d17 	ldw	r5,180(sp)
    492c:	d8c02917 	ldw	r3,164(sp)
    4930:	d8002785 	stb	zero,158(sp)
    4934:	28800204 	addi	r2,r5,8
    4938:	2cc00017 	ldw	r19,0(r5)
    493c:	2d800117 	ldw	r22,4(r5)
    4940:	18048f16 	blt	r3,zero,5b80 <___vfprintf_internal_r+0x18d0>
    4944:	013fdfc4 	movi	r4,-129
    4948:	9d86b03a 	or	r3,r19,r22
    494c:	d8802d15 	stw	r2,180(sp)
    4950:	9124703a 	and	r18,r18,r4
    4954:	1802d91e 	bne	r3,zero,54bc <___vfprintf_internal_r+0x120c>
    4958:	d8c02917 	ldw	r3,164(sp)
    495c:	0039883a 	mov	fp,zero
    4960:	1805c326 	beq	r3,zero,6070 <___vfprintf_internal_r+0x1dc0>
    4964:	0027883a 	mov	r19,zero
    4968:	002d883a 	mov	r22,zero
    496c:	dc001e04 	addi	r16,sp,120
    4970:	9806d0fa 	srli	r3,r19,3
    4974:	b008977a 	slli	r4,r22,29
    4978:	b02cd0fa 	srli	r22,r22,3
    497c:	9cc001cc 	andi	r19,r19,7
    4980:	98800c04 	addi	r2,r19,48
    4984:	843fffc4 	addi	r16,r16,-1
    4988:	20e6b03a 	or	r19,r4,r3
    498c:	80800005 	stb	r2,0(r16)
    4990:	9d86b03a 	or	r3,r19,r22
    4994:	183ff61e 	bne	r3,zero,4970 <___vfprintf_internal_r+0x6c0>
    4998:	90c0004c 	andi	r3,r18,1
    499c:	18013b26 	beq	r3,zero,4e8c <___vfprintf_internal_r+0xbdc>
    49a0:	10803fcc 	andi	r2,r2,255
    49a4:	1080201c 	xori	r2,r2,128
    49a8:	10bfe004 	addi	r2,r2,-128
    49ac:	00c00c04 	movi	r3,48
    49b0:	10c13626 	beq	r2,r3,4e8c <___vfprintf_internal_r+0xbdc>
    49b4:	80ffffc5 	stb	r3,-1(r16)
    49b8:	d8c02817 	ldw	r3,160(sp)
    49bc:	80bfffc4 	addi	r2,r16,-1
    49c0:	1021883a 	mov	r16,r2
    49c4:	1887c83a 	sub	r3,r3,r2
    49c8:	d8c02e15 	stw	r3,184(sp)
    49cc:	d8802e17 	ldw	r2,184(sp)
    49d0:	d9002917 	ldw	r4,164(sp)
    49d4:	1100010e 	bge	r2,r4,49dc <___vfprintf_internal_r+0x72c>
    49d8:	2005883a 	mov	r2,r4
    49dc:	d8802a15 	stw	r2,168(sp)
    49e0:	d8003215 	stw	zero,200(sp)
    49e4:	e7003fcc 	andi	fp,fp,255
    49e8:	e700201c 	xori	fp,fp,128
    49ec:	e73fe004 	addi	fp,fp,-128
    49f0:	e0000326 	beq	fp,zero,4a00 <___vfprintf_internal_r+0x750>
    49f4:	d8c02a17 	ldw	r3,168(sp)
    49f8:	18c00044 	addi	r3,r3,1
    49fc:	d8c02a15 	stw	r3,168(sp)
    4a00:	90c0008c 	andi	r3,r18,2
    4a04:	d8c02b15 	stw	r3,172(sp)
    4a08:	18000326 	beq	r3,zero,4a18 <___vfprintf_internal_r+0x768>
    4a0c:	d8c02a17 	ldw	r3,168(sp)
    4a10:	18c00084 	addi	r3,r3,2
    4a14:	d8c02a15 	stw	r3,168(sp)
    4a18:	90c0210c 	andi	r3,r18,132
    4a1c:	d8c03015 	stw	r3,192(sp)
    4a20:	1801a31e 	bne	r3,zero,50b0 <___vfprintf_internal_r+0xe00>
    4a24:	d9003117 	ldw	r4,196(sp)
    4a28:	d8c02a17 	ldw	r3,168(sp)
    4a2c:	20e7c83a 	sub	r19,r4,r3
    4a30:	04c19f0e 	bge	zero,r19,50b0 <___vfprintf_internal_r+0xe00>
    4a34:	02400404 	movi	r9,16
    4a38:	d8c02017 	ldw	r3,128(sp)
    4a3c:	d8801f17 	ldw	r2,124(sp)
    4a40:	4cc50d0e 	bge	r9,r19,5e78 <___vfprintf_internal_r+0x1bc8>
    4a44:	014000b4 	movhi	r5,2
    4a48:	297b4884 	addi	r5,r5,-4830
    4a4c:	dc403b15 	stw	r17,236(sp)
    4a50:	d9403515 	stw	r5,212(sp)
    4a54:	9823883a 	mov	r17,r19
    4a58:	482d883a 	mov	r22,r9
    4a5c:	9027883a 	mov	r19,r18
    4a60:	070001c4 	movi	fp,7
    4a64:	8025883a 	mov	r18,r16
    4a68:	dc002c17 	ldw	r16,176(sp)
    4a6c:	00000306 	br	4a7c <___vfprintf_internal_r+0x7cc>
    4a70:	8c7ffc04 	addi	r17,r17,-16
    4a74:	42000204 	addi	r8,r8,8
    4a78:	b440130e 	bge	r22,r17,4ac8 <___vfprintf_internal_r+0x818>
    4a7c:	010000b4 	movhi	r4,2
    4a80:	18c00404 	addi	r3,r3,16
    4a84:	10800044 	addi	r2,r2,1
    4a88:	213b4884 	addi	r4,r4,-4830
    4a8c:	41000015 	stw	r4,0(r8)
    4a90:	45800115 	stw	r22,4(r8)
    4a94:	d8c02015 	stw	r3,128(sp)
    4a98:	d8801f15 	stw	r2,124(sp)
    4a9c:	e0bff40e 	bge	fp,r2,4a70 <___vfprintf_internal_r+0x7c0>
    4aa0:	d9801e04 	addi	r6,sp,120
    4aa4:	b80b883a 	mov	r5,r23
    4aa8:	8009883a 	mov	r4,r16
    4aac:	000c1d40 	call	c1d4 <__sprint_r>
    4ab0:	103f011e 	bne	r2,zero,46b8 <___vfprintf_internal_r+0x408>
    4ab4:	8c7ffc04 	addi	r17,r17,-16
    4ab8:	d8c02017 	ldw	r3,128(sp)
    4abc:	d8801f17 	ldw	r2,124(sp)
    4ac0:	da000404 	addi	r8,sp,16
    4ac4:	b47fed16 	blt	r22,r17,4a7c <___vfprintf_internal_r+0x7cc>
    4ac8:	9021883a 	mov	r16,r18
    4acc:	9825883a 	mov	r18,r19
    4ad0:	8827883a 	mov	r19,r17
    4ad4:	dc403b17 	ldw	r17,236(sp)
    4ad8:	d9403517 	ldw	r5,212(sp)
    4adc:	98c7883a 	add	r3,r19,r3
    4ae0:	10800044 	addi	r2,r2,1
    4ae4:	41400015 	stw	r5,0(r8)
    4ae8:	44c00115 	stw	r19,4(r8)
    4aec:	d8c02015 	stw	r3,128(sp)
    4af0:	d8801f15 	stw	r2,124(sp)
    4af4:	010001c4 	movi	r4,7
    4af8:	2082a316 	blt	r4,r2,5588 <___vfprintf_internal_r+0x12d8>
    4afc:	df002787 	ldb	fp,158(sp)
    4b00:	42000204 	addi	r8,r8,8
    4b04:	e0000c26 	beq	fp,zero,4b38 <___vfprintf_internal_r+0x888>
    4b08:	d8801f17 	ldw	r2,124(sp)
    4b0c:	d9002784 	addi	r4,sp,158
    4b10:	18c00044 	addi	r3,r3,1
    4b14:	10800044 	addi	r2,r2,1
    4b18:	41000015 	stw	r4,0(r8)
    4b1c:	01000044 	movi	r4,1
    4b20:	41000115 	stw	r4,4(r8)
    4b24:	d8c02015 	stw	r3,128(sp)
    4b28:	d8801f15 	stw	r2,124(sp)
    4b2c:	010001c4 	movi	r4,7
    4b30:	20823c16 	blt	r4,r2,5424 <___vfprintf_internal_r+0x1174>
    4b34:	42000204 	addi	r8,r8,8
    4b38:	d8802b17 	ldw	r2,172(sp)
    4b3c:	10000c26 	beq	r2,zero,4b70 <___vfprintf_internal_r+0x8c0>
    4b40:	d8801f17 	ldw	r2,124(sp)
    4b44:	d9002704 	addi	r4,sp,156
    4b48:	18c00084 	addi	r3,r3,2
    4b4c:	10800044 	addi	r2,r2,1
    4b50:	41000015 	stw	r4,0(r8)
    4b54:	01000084 	movi	r4,2
    4b58:	41000115 	stw	r4,4(r8)
    4b5c:	d8c02015 	stw	r3,128(sp)
    4b60:	d8801f15 	stw	r2,124(sp)
    4b64:	010001c4 	movi	r4,7
    4b68:	20823616 	blt	r4,r2,5444 <___vfprintf_internal_r+0x1194>
    4b6c:	42000204 	addi	r8,r8,8
    4b70:	d9003017 	ldw	r4,192(sp)
    4b74:	00802004 	movi	r2,128
    4b78:	20819926 	beq	r4,r2,51e0 <___vfprintf_internal_r+0xf30>
    4b7c:	d9402917 	ldw	r5,164(sp)
    4b80:	d8802e17 	ldw	r2,184(sp)
    4b84:	28adc83a 	sub	r22,r5,r2
    4b88:	0580310e 	bge	zero,r22,4c50 <___vfprintf_internal_r+0x9a0>
    4b8c:	07000404 	movi	fp,16
    4b90:	d8801f17 	ldw	r2,124(sp)
    4b94:	e584140e 	bge	fp,r22,5be8 <___vfprintf_internal_r+0x1938>
    4b98:	014000b4 	movhi	r5,2
    4b9c:	297b4484 	addi	r5,r5,-4846
    4ba0:	dc402915 	stw	r17,164(sp)
    4ba4:	d9402b15 	stw	r5,172(sp)
    4ba8:	b023883a 	mov	r17,r22
    4bac:	04c001c4 	movi	r19,7
    4bb0:	a82d883a 	mov	r22,r21
    4bb4:	902b883a 	mov	r21,r18
    4bb8:	8025883a 	mov	r18,r16
    4bbc:	dc002c17 	ldw	r16,176(sp)
    4bc0:	00000306 	br	4bd0 <___vfprintf_internal_r+0x920>
    4bc4:	8c7ffc04 	addi	r17,r17,-16
    4bc8:	42000204 	addi	r8,r8,8
    4bcc:	e440110e 	bge	fp,r17,4c14 <___vfprintf_internal_r+0x964>
    4bd0:	18c00404 	addi	r3,r3,16
    4bd4:	10800044 	addi	r2,r2,1
    4bd8:	45000015 	stw	r20,0(r8)
    4bdc:	47000115 	stw	fp,4(r8)
    4be0:	d8c02015 	stw	r3,128(sp)
    4be4:	d8801f15 	stw	r2,124(sp)
    4be8:	98bff60e 	bge	r19,r2,4bc4 <___vfprintf_internal_r+0x914>
    4bec:	d9801e04 	addi	r6,sp,120
    4bf0:	b80b883a 	mov	r5,r23
    4bf4:	8009883a 	mov	r4,r16
    4bf8:	000c1d40 	call	c1d4 <__sprint_r>
    4bfc:	103eae1e 	bne	r2,zero,46b8 <___vfprintf_internal_r+0x408>
    4c00:	8c7ffc04 	addi	r17,r17,-16
    4c04:	d8c02017 	ldw	r3,128(sp)
    4c08:	d8801f17 	ldw	r2,124(sp)
    4c0c:	da000404 	addi	r8,sp,16
    4c10:	e47fef16 	blt	fp,r17,4bd0 <___vfprintf_internal_r+0x920>
