
ucos2nios2.elf:     file format elf32-littlenios2
ucos2nios2.elf
architecture: nios2:r1, flags 0x00000112:
EXEC_P, HAS_SYMS, D_PAGED
start address 0x00000248

Program Header:
    LOAD off    0x00001000 vaddr 0x00000000 paddr 0x00000000 align 2**12
         filesz 0x00000020 memsz 0x00000020 flags r-x
    LOAD off    0x00001020 vaddr 0x00000020 paddr 0x00000020 align 2**12
         filesz 0x0001a470 memsz 0x0001a470 flags r-x
    LOAD off    0x0001b490 vaddr 0x0001a490 paddr 0x0001c310 align 2**12
         filesz 0x00001e80 memsz 0x00001e80 flags rw-
    LOAD off    0x0001e190 vaddr 0x0001e190 paddr 0x0001e190 align 2**12
         filesz 0x00000000 memsz 0x00009418 flags rw-

Sections:
Idx Name          Size      VMA       LMA       File off  Algn
  0 .entry        00000020  00000000  00000000  00001000  2**5
                  CONTENTS, ALLOC, LOAD, READONLY, CODE
  1 .exceptions   00000228  00000020  00000020  00001020  2**2
                  CONTENTS, ALLOC, LOAD, READONLY, CODE
  2 .text         00019730  00000248  00000248  00001248  2**2
                  CONTENTS, ALLOC, LOAD, READONLY, CODE
  3 .rodata       00000b18  00019978  00019978  0001a978  2**2
                  CONTENTS, ALLOC, LOAD, READONLY, DATA
  4 .rwdata       00001e80  0001a490  0001c310  0001b490  2**2
                  CONTENTS, ALLOC, LOAD, DATA, SMALL_DATA
  5 .bss          00009418  0001e190  0001e190  0001e190  2**2
                  ALLOC, SMALL_DATA
  6 .SDRAM        00000000  000275a8  000275a8  0001d310  2**0
                  CONTENTS
  7 .VGA_Subsystem_Char_Buf_Subsystem_Onchip_SRAM 00000000  09000000  09000000  0001d310  2**0
                  CONTENTS
  8 .comment      00000023  00000000  00000000  0001d310  2**0
                  CONTENTS, READONLY
  9 .debug_aranges 00001078  00000000  00000000  0001d338  2**3
                  CONTENTS, READONLY, DEBUGGING
 10 .debug_info   0002f6e4  00000000  00000000  0001e3b0  2**0
                  CONTENTS, READONLY, DEBUGGING
 11 .debug_abbrev 0000b045  00000000  00000000  0004da94  2**0
                  CONTENTS, READONLY, DEBUGGING
 12 .debug_line   0000e721  00000000  00000000  00058ad9  2**0
                  CONTENTS, READONLY, DEBUGGING
 13 .debug_frame  0000386c  00000000  00000000  000671fc  2**2
                  CONTENTS, READONLY, DEBUGGING
 14 .debug_str    00005517  00000000  00000000  0006aa68  2**0
                  CONTENTS, READONLY, DEBUGGING
 15 .debug_loc    000178aa  00000000  00000000  0006ff7f  2**0
                  CONTENTS, READONLY, DEBUGGING
 16 .debug_alt_sim_info 00000020  00000000  00000000  0008782c  2**2
                  CONTENTS, READONLY, DEBUGGING
 17 .debug_ranges 000018c0  00000000  00000000  00087850  2**3
                  CONTENTS, READONLY, DEBUGGING
 18 .thread_model 00000006  00000000  00000000  0008e6f5  2**0
                  CONTENTS, READONLY
 19 .cpu          00000005  00000000  00000000  0008e6fb  2**0
                  CONTENTS, READONLY
 20 .qsys         00000001  00000000  00000000  0008e700  2**0
                  CONTENTS, READONLY
 21 .simulation_enabled 00000001  00000000  00000000  0008e701  2**0
                  CONTENTS, READONLY
 22 .sysid_hash   00000004  00000000  00000000  0008e702  2**0
                  CONTENTS, READONLY
 23 .sysid_base   00000004  00000000  00000000  0008e706  2**0
                  CONTENTS, READONLY
 24 .sysid_time   00000004  00000000  00000000  0008e70a  2**0
                  CONTENTS, READONLY
 25 .stderr_dev   00000009  00000000  00000000  0008e70e  2**0
                  CONTENTS, READONLY
 26 .stdin_dev    00000009  00000000  00000000  0008e717  2**0
                  CONTENTS, READONLY
 27 .stdout_dev   00000009  00000000  00000000  0008e720  2**0
                  CONTENTS, READONLY
 28 .sopc_system_name 0000000f  00000000  00000000  0008e729  2**0
                  CONTENTS, READONLY
 29 .quartus_project_dir 0000004e  00000000  00000000  0008e738  2**0
                  CONTENTS, READONLY
 30 .sopcinfo     001d2080  00000000  00000000  0008e786  2**0
                  CONTENTS, READONLY
SYMBOL TABLE:
00000000 l    d  .entry	00000000 .entry
00000020 l    d  .exceptions	00000000 .exceptions
00000248 l    d  .text	00000000 .text
00019978 l    d  .rodata	00000000 .rodata
0001a490 l    d  .rwdata	00000000 .rwdata
0001e190 l    d  .bss	00000000 .bss
000275a8 l    d  .SDRAM	00000000 .SDRAM
09000000 l    d  .VGA_Subsystem_Char_Buf_Subsystem_Onchip_SRAM	00000000 .VGA_Subsystem_Char_Buf_Subsystem_Onchip_SRAM
00000000 l    d  .comment	00000000 .comment
00000000 l    d  .debug_aranges	00000000 .debug_aranges
00000000 l    d  .debug_info	00000000 .debug_info
00000000 l    d  .debug_abbrev	00000000 .debug_abbrev
00000000 l    d  .debug_line	00000000 .debug_line
00000000 l    d  .debug_frame	00000000 .debug_frame
00000000 l    d  .debug_str	00000000 .debug_str
00000000 l    d  .debug_loc	00000000 .debug_loc
00000000 l    d  .debug_alt_sim_info	00000000 .debug_alt_sim_info
00000000 l    d  .debug_ranges	00000000 .debug_ranges
00000000 l    df *ABS*	00000000 ../ucos2nios2_bsp//obj/HAL/src/crt0.o
00000280 l       .text	00000000 alt_after_alt_main
00000000 l    df *ABS*	00000000 alt_irq_handler.c
00000000 l    df *ABS*	00000000 alt_instruction_exception_entry.c
00000000 l    df *ABS*	00000000 hello_ucosii.c
00000000 l    df *ABS*	00000000 fprintf.c
00000000 l    df *ABS*	00000000 impure.c
0001a490 l     O .rwdata	00000424 impure_data
00000000 l    df *ABS*	00000000 puts.c
00000000 l    df *ABS*	00000000 strlen.c
00000000 l    df *ABS*	00000000 vfprintf.c
00019f72 l     O .rodata	00000010 zeroes.4404
000030e4 l     F .text	000000bc __sbprintf
00019f82 l     O .rodata	00000010 blanks.4403
00000000 l    df *ABS*	00000000 wsetup.c
00000000 l    df *ABS*	00000000 dtoa.c
000032f4 l     F .text	00000200 quorem
00000000 l    df *ABS*	00000000 fflush.c
00000000 l    df *ABS*	00000000 findfp.c
00004e24 l     F .text	00000008 __fp_unlock
00004e38 l     F .text	0000019c __sinit.part.1
00004fd4 l     F .text	00000008 __fp_lock
00000000 l    df *ABS*	00000000 mallocr.c
00000000 l    df *ABS*	00000000 fvwrite.c
00000000 l    df *ABS*	00000000 fwalk.c
00000000 l    df *ABS*	00000000 locale.c
0001a8d4 l     O .rwdata	00000020 lc_ctype_charset
0001a8b4 l     O .rwdata	00000020 lc_message_charset
0001a8f4 l     O .rwdata	00000038 lconv
00000000 l    df *ABS*	00000000 makebuf.c
00000000 l    df *ABS*	00000000 mallocr.c
00000000 l    df *ABS*	00000000 memchr.c
00000000 l    df *ABS*	00000000 memcpy.c
00000000 l    df *ABS*	00000000 memmove.c
00000000 l    df *ABS*	00000000 memset.c
00000000 l    df *ABS*	00000000 mprec.c
00019fb0 l     O .rodata	0000000c p05.2768
00000000 l    df *ABS*	00000000 mallocr.c
00000000 l    df *ABS*	00000000 s_fpclassify.c
00000000 l    df *ABS*	00000000 sbrkr.c
00000000 l    df *ABS*	00000000 stdio.c
00000000 l    df *ABS*	00000000 strcmp.c
00000000 l    df *ABS*	00000000 vfprintf.c
000083d0 l     F .text	000000fc __sprint_r.part.0
0001a0e4 l     O .rodata	00000010 blanks.4348
0001a0d4 l     O .rodata	00000010 zeroes.4349
0000995c l     F .text	000000bc __sbprintf
00000000 l    df *ABS*	00000000 writer.c
00000000 l    df *ABS*	00000000 closer.c
00000000 l    df *ABS*	00000000 mallocr.c
00000000 l    df *ABS*	00000000 fclose.c
00000000 l    df *ABS*	00000000 fputwc.c
00000000 l    df *ABS*	00000000 fstatr.c
00000000 l    df *ABS*	00000000 int_errno.c
00000000 l    df *ABS*	00000000 isattyr.c
00000000 l    df *ABS*	00000000 lseekr.c
00000000 l    df *ABS*	00000000 readr.c
00000000 l    df *ABS*	00000000 wbuf.c
00000000 l    df *ABS*	00000000 wcrtomb.c
00000000 l    df *ABS*	00000000 wctomb_r.c
00000000 l    df *ABS*	00000000 libgcc2.c
00000000 l    df *ABS*	00000000 libgcc2.c
00000000 l    df *ABS*	00000000 lib2-divmod.c
00000000 l    df *ABS*	00000000 adddf3.c
00000000 l    df *ABS*	00000000 divdf3.c
00000000 l    df *ABS*	00000000 eqdf2.c
00000000 l    df *ABS*	00000000 gedf2.c
00000000 l    df *ABS*	00000000 ledf2.c
00000000 l    df *ABS*	00000000 muldf3.c
00000000 l    df *ABS*	00000000 subdf3.c
00000000 l    df *ABS*	00000000 fixdfsi.c
00000000 l    df *ABS*	00000000 floatsidf.c
00000000 l    df *ABS*	00000000 floatunsidf.c
00000000 l    df *ABS*	00000000 libgcc2.c
00000000 l    df *ABS*	00000000 libgcc2.c
00000000 l    df *ABS*	00000000 alt_close.c
0000d618 l     F .text	0000003c alt_get_errno
00000000 l    df *ABS*	00000000 alt_dev.c
0000d724 l     F .text	0000002c alt_dev_null_write
00000000 l    df *ABS*	00000000 alt_errno.c
00000000 l    df *ABS*	00000000 alt_fstat.c
0000d750 l     F .text	0000003c alt_get_errno
00000000 l    df *ABS*	00000000 alt_isatty.c
0000d83c l     F .text	0000003c alt_get_errno
00000000 l    df *ABS*	00000000 alt_load.c
0000d91c l     F .text	00000068 alt_load_section
00000000 l    df *ABS*	00000000 alt_lseek.c
0000da08 l     F .text	0000003c alt_get_errno
00000000 l    df *ABS*	00000000 alt_main.c
00000000 l    df *ABS*	00000000 alt_read.c
0000dbd4 l     F .text	0000003c alt_get_errno
00000000 l    df *ABS*	00000000 alt_release_fd.c
00000000 l    df *ABS*	00000000 alt_sbrk.c
0001c284 l     O .rwdata	00000004 heap_end
00000000 l    df *ABS*	00000000 alt_write.c
0000de20 l     F .text	0000003c alt_get_errno
00000000 l    df *ABS*	00000000 alt_env_lock.c
0001c288 l     O .rwdata	00000004 lockid
0001e1ec l     O .bss	00000004 locks
00000000 l    df *ABS*	00000000 alt_malloc_lock.c
0001c28c l     O .rwdata	00000004 lockid
0001e1f4 l     O .bss	00000004 locks
00000000 l    df *ABS*	00000000 os_core.c
0000f850 l     F .text	00000048 OS_InitMisc
0000f898 l     F .text	0000006c OS_InitRdyList
0000fa04 l     F .text	000000e4 OS_InitTCBList
0000f770 l     F .text	000000e0 OS_InitEventList
0000f904 l     F .text	00000080 OS_InitTaskIdle
0000f984 l     F .text	00000080 OS_InitTaskStat
0000fc74 l     F .text	00000074 OS_SchedNew
00000000 l    df *ABS*	00000000 os_dbg.c
00000000 l    df *ABS*	00000000 os_flag.c
00011994 l     F .text	000000f4 OS_FlagTaskRdy
00011754 l     F .text	00000160 OS_FlagBlock
00000000 l    df *ABS*	00000000 os_mem.c
00000000 l    df *ABS*	00000000 os_q.c
00000000 l    df *ABS*	00000000 os_sem.c
00000000 l    df *ABS*	00000000 os_task.c
00000000 l    df *ABS*	00000000 os_time.c
00000000 l    df *ABS*	00000000 alt_sys_init.c
00015a44 l     F .text	00000034 alt_dev_reg
0001aedc l     O .rwdata	0000106c JTAG_UART
0001bf48 l     O .rwdata	00000030 AV_Config
0001bf78 l     O .rwdata	00000030 Audio_Subsystem_Audio
0001bfa8 l     O .rwdata	0000002c Char_LCD_16x2
0001bfd4 l     O .rwdata	0000002c IrDA
0001c000 l     O .rwdata	00000038 PS2_Port
0001c038 l     O .rwdata	00000038 PS2_Port_Dual
0001c070 l     O .rwdata	0000002c Serial_Port
0001c09c l     O .rwdata	00000034 USB
0001c0d0 l     O .rwdata	0000005c VGA_Subsystem_Char_Buf_Subsystem_Char_Buf_DMA
0001c12c l     O .rwdata	0000005c VGA_Subsystem_VGA_Pixel_DMA
0001c188 l     O .rwdata	0000005c Video_In_Subsystem_Video_In_DMA
0001c1e4 l     O .rwdata	00000044 VGA_Subsystem_VGA_Pixel_RGB_Resampler
0001c228 l     O .rwdata	0000002c SD_Card
00000000 l    df *ABS*	00000000 altera_avalon_jtag_uart_fd.c
00000000 l    df *ABS*	00000000 altera_avalon_jtag_uart_init.c
000166bc l     F .text	000002a8 altera_avalon_jtag_uart_irq
00016964 l     F .text	00000104 altera_avalon_jtag_uart_timeout
00000000 l    df *ABS*	00000000 altera_avalon_jtag_uart_ioctl.c
00000000 l    df *ABS*	00000000 altera_avalon_jtag_uart_read.c
00000000 l    df *ABS*	00000000 altera_avalon_jtag_uart_write.c
00000000 l    df *ABS*	00000000 altera_avalon_timer_sc.c
00017140 l     F .text	0000007c alt_avalon_timer_sc_irq
00000000 l    df *ABS*	00000000 altera_up_avalon_character_lcd.c
00000000 l    df *ABS*	00000000 altera_up_avalon_irda.c
00000000 l    df *ABS*	00000000 altera_up_avalon_ps2.c
00000000 l    df *ABS*	00000000 altera_up_avalon_rs232.c
00000000 l    df *ABS*	00000000 alt_alarm_start.c
00000000 l    df *ABS*	00000000 alt_dcache_flush_all.c
00000000 l    df *ABS*	00000000 alt_dev_llist_insert.c
0001863c l     F .text	0000003c alt_get_errno
00000000 l    df *ABS*	00000000 alt_do_ctors.c
00000000 l    df *ABS*	00000000 alt_do_dtors.c
00000000 l    df *ABS*	00000000 alt_find_dev.c
00000000 l    df *ABS*	00000000 alt_icache_flush_all.c
00000000 l    df *ABS*	00000000 alt_io_redirect.c
000188a0 l     F .text	000000c4 alt_open_fd
00000000 l    df *ABS*	00000000 alt_irq_register.c
00000000 l    df *ABS*	00000000 alt_irq_vars.c
00000000 l    df *ABS*	00000000 alt_open.c
00018b60 l     F .text	0000003c alt_get_errno
00018b9c l     F .text	000000c4 alt_file_locked
00000000 l    df *ABS*	00000000 alt_tick.c
00000000 l    df *ABS*	00000000 altera_nios2_gen2_irq.c
00000000 l    df *ABS*	00000000 os_cpu_a.o
00000040 l       *ABS*	00000000 OSCtxSw_SWITCH_PC
00000000 l    df *ABS*	00000000 os_cpu_c.c
00000014 l       *ABS*	00000000 OSTCBNext_OFFSET
00000032 l       *ABS*	00000000 OSTCBPrio_OFFSET
00000000 l       *ABS*	00000000 OSTCBStkPtr_OFFSET
00000000 l    df *ABS*	00000000 alt_find_file.c
00000000 l    df *ABS*	00000000 alt_get_fd.c
00000000 l    df *ABS*	00000000 alt_icache_flush.c
00000000 l    df *ABS*	00000000 atexit.c
00000000 l    df *ABS*	00000000 exit.c
00000000 l    df *ABS*	00000000 memcmp.c
00000000 l    df *ABS*	00000000 __atexit.c
00000000 l    df *ABS*	00000000 __call_atexit.c
00000000 l    df *ABS*	00000000 alt_exit.c
0001e258 g     O .bss	00000004 alt_instruction_exception_handler
00007a14 g     F .text	00000074 _mprec_log10
0001c2da g     O .rwdata	00000002 OSTaskNameSize
00007b00 g     F .text	0000008c __any_on
00009ef8 g     F .text	00000054 _isatty_r
00019fbc g     O .rodata	00000028 __mprec_tinytens
0000db18 g     F .text	000000bc alt_main
00000d64 g     F .text	000000c0 _puts_r
000274a8 g     O .bss	00000100 alt_irq
00017cfc g     F .text	00000060 alt_up_ps2_disable_read_interrupt
00009f4c g     F .text	00000060 _lseek_r
000121b4 g     F .text	000000cc OS_MemInit
0001c310 g       *ABS*	00000000 __flash_rwdata_start
000159e4 g     F .text	00000060 OSTimeSet
000172a4 g     F .text	00000040 alt_up_character_lcd_send_cmd
0000c144 g     F .text	00000088 .hidden __eqdf2
0000e4c4 g     F .text	00000610 OSEventPendMulti
000275a8 g       *ABS*	00000000 __alt_heap_start
000191a8 g     F .text	00000024 OSTaskCreateHook
0001c2b2 g     O .rwdata	00000002 OSMboxEn
0000eb2c g     F .text	0000004c OSIntEnter
0000a164 g     F .text	0000009c _wcrtomb_r
00008290 g     F .text	0000005c __sseek
00005174 g     F .text	00000010 __sinit
0000a00c g     F .text	00000140 __swbuf_r
00017b14 g     F .text	00000034 read_CE_bit
0001c2c2 g     O .rwdata	00000002 OSQEn
00005c3c g     F .text	0000007c _setlocale_r
00004fdc g     F .text	00000068 __sfmoreglue
0000e198 g     F .text	000000cc __malloc_unlock
00019210 g     F .text	00000020 OSTaskStatHook
00017e9c g     F .text	0000009c alt_up_ps2_read_data_byte_timeout
00018390 g     F .text	00000090 alt_up_rs232_read_fd
0001e1fc g     O .bss	00000001 OSLockNesting
0001c300 g     O .rwdata	00000002 OSDataSize
0001e1fd g     O .bss	00000001 OSRunning
0000690c g     F .text	0000015c memmove
00019250 g     F .text	00000020 OSInitHookBegin
0001c2f8 g     O .rwdata	00000002 OSTmrSize
0000515c g     F .text	00000018 _cleanup
00006b90 g     F .text	000000a8 _Balloc
0001e200 g     O .bss	00000004 OSIdleCtr
0000c1cc g     F .text	000000dc .hidden __gtdf2
00018f58 g     F .text	00000024 altera_nios2_gen2_irq_init
00019028 g       .text	00000000 OSStartTsk
00017230 g     F .text	00000074 get_DDRAM_addr
0000ffb4 g     F .text	000002d4 OS_TCBInit
00000000 g     F .entry	0000001c __reset
0001c2fe g     O .rwdata	00000002 OSTmrWheelTblSize
00000020 g       *ABS*	00000000 __flash_exceptions_start
0001c29e g     O .rwdata	00000002 OSEventSize
0001e204 g     O .bss	00000001 OSPrioHighRdy
00009e9c g     F .text	0000005c _fstat_r
000191cc g     F .text	00000024 OSTaskDelHook
0001e1d8 g     O .bss	00000004 errno
0000820c g     F .text	00000008 __seofread
00019008 g       .text	00000000 OSStartHighRdy
00014480 g     F .text	000001e4 OSTaskCreateExt
00000284 g     F .text	000000e0 Get_state_name
0001129c g     F .text	00000060 OSFlagPendGetFlagsRdy
0001c2de g     O .rwdata	00000002 OSTaskStatStkSize
00010418 g     F .text	00000308 OSFlagAccept
000127ec g     F .text	000000b8 OSQFlush
00012280 g     F .text	00000140 OSQAccept
0001e1e4 g     O .bss	00000004 alt_argv
00024254 g       *ABS*	00000000 _gp
000142d4 g     F .text	000001ac OSTaskCreate
00013de4 g     F .text	000004f0 OSTaskChangePrio
0001e1f8 g     O .bss	00000004 alt_heapsem
0001e190 g     O .bss	00000004 prev_state
00010288 g     F .text	00000190 OSDebugInit
00014664 g     F .text	00000344 OSTaskDel
000009ec g     F .text	00000174 Task_state_timer
0001ad5c g     O .rwdata	00000180 alt_fd_list
00024284 g     O .bss	00000370 OSFlagTbl
0000f550 g     F .text	000000b8 OS_EventTaskRemove
000187dc g     F .text	00000090 alt_find_dev
000067c4 g     F .text	00000148 memcpy
0001c2c8 g     O .rwdata	00000002 OSRdyTblSize
0001744c g     F .text	00000050 alt_up_character_lcd_write_fd
00004e2c g     F .text	0000000c _cleanup_r
0000d430 g     F .text	000000dc .hidden __floatsidf
00018964 g     F .text	0000007c alt_io_redirect
0000c2a8 g     F .text	000000f4 .hidden __ltdf2
00019978 g       *ABS*	00000000 __DTOR_END__
000179e4 g     F .text	00000090 alt_up_irda_write_fd
0001831c g     F .text	00000074 alt_up_rs232_read_data
00000e24 g     F .text	00000014 puts
00019548 g     F .text	0000009c alt_exception_cause_generated_bad_addr
0000e264 g     F .text	00000120 OSEventNameGet
0001c2ac g     O .rwdata	00000002 OSFlagMax
000080f0 g     F .text	00000074 __fpclassifyd
00007970 g     F .text	000000a4 __ratio
0000eb78 g     F .text	000000f8 OSIntExit
00009940 g     F .text	0000001c __vfiprintf_internal
0001c2e6 g     O .rwdata	00000002 OSTCBSize
0001e205 g     O .bss	00000001 OSPrioCur
0001e194 g     O .bss	00000004 KEY2_flag
000177e0 g     F .text	00000040 alt_up_irda_get_used_space_in_read_FIFO
00016bc0 g     F .text	000002bc altera_avalon_jtag_uart_read
0000aef4 g     F .text	00000064 .hidden __udivsi3
0000d878 g     F .text	000000a4 isatty
0001c2cc g     O .rwdata	00000002 OSStkWidth
0001a00c g     O .rodata	000000c8 __mprec_tens
0001c2c0 g     O .rwdata	00000002 OSPtrSize
00005cb8 g     F .text	0000000c __locale_charset
0001c2a0 g     O .rwdata	00000002 OSEventTblSize
00017780 g     F .text	00000060 alt_up_irda_disable_read_interrupt
00018f7c g       .text	00000000 OSCtxSw
000194b8 g     F .text	00000090 alt_icache_flush
0001e1d4 g     O .bss	00000004 __malloc_top_pad
0001e208 g     O .bss	00000004 OSTCBList
0001e1dc g     O .bss	00000004 alt_fd_list_lock
0001c25c g     O .rwdata	00000004 __mb_cur_max
00005ce8 g     F .text	0000000c _localeconv_r
00006f9c g     F .text	0000003c __i2b
000055f8 g     F .text	000004bc __sfvwrite_r
000245f4 g     O .bss	00000c30 OSMemTbl
0001e20c g     O .bss	00000001 OSTickStepState
00008164 g     F .text	00000054 _sbrk_r
0001c2c4 g     O .rwdata	00000002 OSQMax
00025224 g     O .bss	00000800 OSTaskStatStk
00011df0 g     F .text	000000f0 OSMemNameGet
0001c2a4 g     O .rwdata	00000002 OSFlagEn
00009fac g     F .text	00000060 _read_r
0001c2ea g     O .rwdata	00000002 OSTimeTickHookEn
00012c9c g     F .text	00000168 OSQPost
00011a88 g     F .text	000000a4 OS_FlagUnlink
0001c27c g     O .rwdata	00000004 alt_max_fd
00018298 g     F .text	00000044 alt_up_rs232_check_parity
0000fb3c g     F .text	00000068 OS_MemCopy
0000fba4 g     F .text	000000d0 OS_Sched
00009b90 g     F .text	000000f0 _fclose_r
00011d00 g     F .text	000000f0 OSMemGet
00014c90 g     F .text	000001b4 OSTaskNameSet
00017b48 g     F .text	00000030 read_num_bytes_available
0001e198 g     O .bss	00000004 state_timer
00004df4 g     F .text	00000030 fflush
0001e1d0 g     O .bss	00000004 __malloc_max_sbrked_mem
0001e210 g     O .bss	00000004 OSCtxSwCtr
00019230 g     F .text	00000020 OSTimeTickHook
000189e0 g     F .text	00000180 alt_irq_register
0001c2ae g     O .rwdata	00000002 OSFlagNameSize
00017ab0 g     F .text	00000034 read_RI_bit
0000f608 g     F .text	00000100 OS_EventTaskRemoveMulti
0000afb0 g     F .text	000008ac .hidden __adddf3
0000f400 g     F .text	00000150 OS_EventTaskWaitMulti
00007718 g     F .text	0000010c __b2d
0001c2c6 g     O .rwdata	00000002 OSQSize
0000a8c4 g     F .text	00000538 .hidden __umoddi3
0000da44 g     F .text	000000d4 lseek
0001374c g     F .text	0000020c OSSemPend
0001c254 g     O .rwdata	00000004 _global_impure_ptr
00007b8c g     F .text	00000564 _realloc_r
0001c2b0 g     O .rwdata	00000002 OSLowestPrio
000275a8 g       *ABS*	00000000 __bss_end
000192b0 g     F .text	00000024 OSTCBInitHook
0001c2f6 g     O .rwdata	00000002 OSTmrCfgTicksPerSec
00018e50 g     F .text	00000108 alt_tick
0000a34c g     F .text	00000578 .hidden __udivdi3
00009df8 g     F .text	00000024 _fputwc_r
0001c298 g     O .rwdata	00000002 OSEventEn
00019fe4 g     O .rodata	00000028 __mprec_bigtens
00006d80 g     F .text	00000104 __s2b
0001c2f2 g     O .rwdata	00000002 OSTmrCfgNameSize
0000d50c g     F .text	000000a8 .hidden __floatunsidf
00007458 g     F .text	00000060 __mcmp
00017bac g     F .text	0000002c read_data_byte
00005194 g     F .text	00000018 __fp_lock_all
000118b4 g     F .text	000000e0 OS_FlagInit
0001e19c g     O .bss	00000004 state
00018db4 g     F .text	0000009c alt_alarm_stop
00017ae4 g     F .text	00000030 read_RE_bit
0001c2d4 g     O .rwdata	00000002 OSTaskIdleStkSize
00000364 g     F .text	00000178 Check_KEYs
0001e24c g     O .bss	00000004 alt_irq_active
00013384 g     F .text	000000b0 OSSemAccept
00011ff4 g     F .text	000000d8 OSMemPut
00011b2c g     F .text	000001d4 OSMemCreate
0001e214 g     O .bss	00000004 OSIdleCtrMax
00017820 g     F .text	0000003c alt_up_irda_get_available_space_in_write_FIFO
000000fc g     F .exceptions	000000d8 alt_irq_handler
0001ad34 g     O .rwdata	00000028 alt_dev_null
0001c2e8 g     O .rwdata	00000002 OSTicksPerSec
0001e1a0 g     O .bss	00000004 KEY_val
000176ec g     F .text	00000038 alt_up_character_lcd_cursor_blink_on
00018f7c g       .text	00000000 OSIntCtxSw
00017d5c g     F .text	00000074 alt_up_ps2_write_data_byte
0001861c g     F .text	00000020 alt_dcache_flush_all
00006e84 g     F .text	00000068 __hi0bits
0000d3b0 g     F .text	00000080 .hidden __fixdfsi
0001e218 g     O .bss	00000004 OSTCBFreeList
0001c310 g       *ABS*	00000000 __ram_rwdata_end
00013958 g     F .text	0000016c OSSemPendAbort
0001e284 g     O .bss	00002000 task_read_ps2_stk
0001c274 g     O .rwdata	00000008 alt_dev_list
0000de5c g     F .text	000000f8 write
0001c2ec g     O .rwdata	00000002 OSVersionNbr
0001a490 g       *ABS*	00000000 __ram_rodata_end
0000d78c g     F .text	000000b0 fstat
00000d40 g     F .text	00000024 fprintf
00018420 g     F .text	00000094 alt_up_rs232_write_fd
00000000 g       *ABS*	00000000 __alt_mem_SDRAM
0000c2a8 g     F .text	000000f4 .hidden __ledf2
0001c294 g     O .rwdata	00000004 OSEndiannessTest
000071d0 g     F .text	00000140 __pow5mult
000084e4 g     F .text	0000145c ___vfiprintf_internal_r
0001e1c8 g     O .bss	00000004 __nlocale_changed
0000af58 g     F .text	00000058 .hidden __umodsi3
0001c2a6 g     O .rwdata	00000002 OSFlagGrpSize
000275a8 g       *ABS*	00000000 end
0001808c g     F .text	00000098 alt_up_ps2_write_fd
0001785c g     F .text	00000044 alt_up_irda_check_parity
00016580 g     F .text	0000013c altera_avalon_jtag_uart_init
0000fe0c g     F .text	000000dc OS_TaskStat
000001d4 g     F .exceptions	00000074 alt_instruction_exception_entry
00019978 g       *ABS*	00000000 __CTOR_LIST__
04000000 g       *ABS*	00000000 __alt_stack_pointer
000171bc g     F .text	00000074 alt_avalon_timer_sc_init
0000d5b4 g     F .text	00000064 .hidden __clzsi2
00016e7c g     F .text	000002c4 altera_avalon_jtag_uart_write
000004dc g     F .text	00000454 Task_read_PS2
00005184 g     F .text	00000004 __sfp_lock_acquire
000066e0 g     F .text	000000e4 memchr
0000fae8 g     F .text	00000054 OS_MemClr
00017358 g     F .text	0000007c alt_up_character_lcd_write
00000ed0 g     F .text	000021f8 ___vfprintf_internal_r
0001904c g     F .text	0000015c OSTaskStkInit
000052e8 g     F .text	00000310 _free_r
00005cc4 g     F .text	00000010 __locale_mb_cur_max
0000f158 g     F .text	00000198 OS_EventTaskRdy
000197c4 g     F .text	00000180 __call_exitprocs
0001e21c g     O .bss	00000001 OSCPUUsage
0001e1c4 g     O .bss	00000004 __mlocale_changed
0001c260 g     O .rwdata	00000004 __malloc_sbrk_base
00000248 g     F .text	0000003c _start
0001e250 g     O .bss	00000004 _alt_tick_rate
000128a4 g     F .text	0000028c OSQPend
00015550 g     F .text	00000104 OSTimeDly
00007310 g     F .text	00000148 __lshift
0001e254 g     O .bss	00000004 _alt_nticks
0000dc10 g     F .text	000000fc read
00015ab0 g     F .text	0000096c alt_sys_init
0001759c g     F .text	0000008c alt_up_character_lcd_shift_display
000196ac g     F .text	00000118 __register_exitproc
0001e21d g     O .bss	00000001 OSTaskCtr
00017fa8 g     F .text	00000058 alt_up_ps2_clear_fifo
0001825c g     F .text	0000003c alt_up_rs232_get_available_space_in_write_FIFO
00015654 g     F .text	00000160 OSTimeDlyHMSM
00006fd8 g     F .text	000001f8 __multiply
00017628 g     F .text	0000008c alt_up_character_lcd_erase_pos
00016a68 g     F .text	00000068 altera_avalon_jtag_uart_close
0001a490 g       *ABS*	00000000 __ram_rwdata_start
00019978 g       *ABS*	00000000 __ram_rodata_start
0001e25c g     O .bss	00000028 __malloc_current_mallinfo
0001c29a g     O .rwdata	00000002 OSEventMax
00007824 g     F .text	0000014c __d2b
00013ac4 g     F .text	00000110 OSSemPost
0000ecfc g     F .text	000000dc OSSchedUnlock
0001641c g     F .text	00000060 altera_avalon_jtag_uart_read_fd
000193dc g     F .text	000000dc alt_get_fd
0001e220 g     O .bss	00000004 OSMemFreeList
0000ee48 g     F .text	000000b0 OSStatInit
00011690 g     F .text	000000c4 OSFlagQuery
0001e1a4 g     O .bss	00000004 KEY1_flag
0001c2d0 g     O .rwdata	00000002 OSTaskCreateExtEn
00009a78 g     F .text	00000054 _close_r
00019630 g     F .text	0000007c memcmp
0000f138 g     F .text	00000020 OS_Dummy
000164dc g     F .text	00000050 altera_avalon_jtag_uart_close_fd
000275a8 g       *ABS*	00000000 __alt_stack_base
0001652c g     F .text	00000054 altera_avalon_jtag_uart_ioctl_fd
00017724 g     F .text	0000005c alt_up_irda_enable_read_interrupt
000031a0 g     F .text	00000154 __swsetup_r
00025a24 g     O .bss	000001e0 OSQTbl
0000b85c g     F .text	000008e8 .hidden __divdf3
00005044 g     F .text	00000118 __sfp
00007a88 g     F .text	00000078 __copybits
0001a92c g     O .rwdata	00000408 __malloc_av_
00005190 g     F .text	00000004 __sinit_lock_release
0001e224 g     O .bss	00000004 OSTCBHighRdy
0000c39c g     F .text	00000718 .hidden __muldf3
000081b8 g     F .text	00000054 __sread
0001e228 g     O .bss	00000004 OSQFreeList
000181bc g     F .text	00000060 alt_up_rs232_disable_read_interrupt
00020284 g     O .bss	00002000 task_read_keys_stk
000192d4 g     F .text	00000108 alt_find_file
00018678 g     F .text	000000a4 alt_dev_llist_insert
0000e078 g     F .text	00000120 __malloc_lock
00000d18 g     F .text	00000028 _fprintf_r
0000dd70 g     F .text	000000b0 sbrk
0000e384 g     F .text	00000140 OSEventNameSet
00004d98 g     F .text	0000005c _fflush_r
00009acc g     F .text	000000c4 _calloc_r
0001e22c g     O .bss	00000001 OSRdyGrp
00000930 g     F .text	000000bc Task_read_KEYs
0001e190 g       *ABS*	00000000 __bss_start
00006a68 g     F .text	00000128 memset
0001e1a8 g     O .bss	00000001 err
00000b60 g     F .text	000001b8 main
0001e1e8 g     O .bss	00000004 alt_envp
0001e1cc g     O .bss	00000004 __malloc_max_total_mem
0001647c g     F .text	00000060 altera_avalon_jtag_uart_write_fd
0000a14c g     F .text	00000018 __swbuf
0001a210 g     O .rodata	00000100 OSUnMapTbl
0001c2ca g     O .rwdata	00000002 OSSemEn
00017510 g     F .text	0000008c alt_up_character_lcd_shift_cursor
000112fc g     F .text	00000394 OSFlagPost
0001e1ac g     O .bss	00000004 SEM_state_change
000082ec g     F .text	00000008 __sclose
04000000 g       *ABS*	00000000 __alt_heap_limit
00009c80 g     F .text	00000014 fclose
0000f2f0 g     F .text	00000110 OS_EventTaskWait
00022284 g     O .bss	00002000 task2_stk
00017f38 g     F .text	00000070 alt_up_ps2_read_data_byte
0000fee8 g     F .text	000000cc OS_TaskStatStkChk
000149a8 g     F .text	00000150 OSTaskDelReq
000034f4 g     F .text	00001688 _dtoa_r
00005ed4 g     F .text	0000080c _malloc_r
0000a2c0 g     F .text	00000030 __ascii_wctomb
0001c280 g     O .rwdata	00000004 alt_errno
0000edd8 g     F .text	00000070 OSStart
0000e018 g     F .text	00000060 __env_unlock
00005ab4 g     F .text	000000c4 _fwalk
00014e44 g     F .text	000001d4 OSTaskResume
000120cc g     F .text	000000e8 OSMemQuery
0001c2dc g     O .rwdata	00000002 OSTaskStatEn
000178a0 g     F .text	00000040 alt_up_irda_write_data
0001c2b6 g     O .rwdata	00000002 OSMemMax
00012e04 g     F .text	00000170 OSQPostFront
00018124 g     F .text	0000003c alt_up_ps2_open_dev
0000adfc g     F .text	00000084 .hidden __divsi3
0001e22d g     O .bss	00000003 OSRdyTbl
0001c290 g     O .rwdata	00000002 OSDebugEn
0001731c g     F .text	0000003c alt_up_character_lcd_open_dev
000051c4 g     F .text	00000124 _malloc_trim_r
00017ca0 g     F .text	0000005c alt_up_ps2_enable_read_interrupt
00019978 g       *ABS*	00000000 __CTOR_END__
0001c2a8 g     O .rwdata	00000002 OSFlagNodeSize
0001c2f0 g     O .rwdata	00000002 OSTmrCfgMax
000172e4 g     F .text	00000038 alt_up_character_lcd_init
000082f4 g     F .text	000000dc strcmp
000123c0 g     F .text	000001ac OSQCreate
00014af8 g     F .text	00000198 OSTaskNameGet
00019978 g       *ABS*	00000000 __flash_rodata_start
00012f74 g     F .text	0000020c OSQPostOpt
0000eef8 g     F .text	00000220 OSTimeTick
0001c2d8 g     O .rwdata	00000002 OSTaskMax
00019978 g       *ABS*	00000000 __DTOR_LIST__
00013434 g     F .text	000000d8 OSSemCreate
0001c2fc g     O .rwdata	00000002 OSTmrWheelSize
0001e1b0 g     O .bss	00000004 KEY3_flag
000184b4 g     F .text	0000003c alt_up_rs232_open_dev
0000c144 g     F .text	00000088 .hidden __nedf2
0001c2d2 g     O .rwdata	00000002 OSTaskDelEn
00013bd4 g     F .text	00000110 OSSemQuery
0001256c g     F .text	00000280 OSQDel
00012b30 g     F .text	0000016c OSQPendAbort
00015a78 g     F .text	00000038 alt_irq_init
0000dd0c g     F .text	00000064 alt_release_fd
00017b78 g     F .text	00000034 read_data_valid
000176b4 g     F .text	00000038 alt_up_character_lcd_cursor_off
0001a0f4 g     O .rodata	00000100 .hidden __clz_tab
0001e1c0 g     O .bss	00000004 _PathLocale
00017e38 g     F .text	00000064 alt_up_ps2_write_data_byte_with_ack
000195e4 g     F .text	00000014 atexit
00009a18 g     F .text	00000060 _write_r
0000ec70 g     F .text	0000008c OSSchedLock
00005cf4 g     F .text	00000018 setlocale
00010720 g     F .text	00000108 OSFlagCreate
0001c258 g     O .rwdata	00000004 _impure_ptr
0001e1e0 g     O .bss	00000004 alt_argc
00004b7c g     F .text	0000021c __sflush_r
0001877c g     F .text	00000060 _do_dtors
00005ce0 g     F .text	00000008 __locale_cjk_lang
0001c2a2 g     O .rwdata	00000002 OSEventMultiEn
09000000 g       *ABS*	00000000 __alt_mem_VGA_Subsystem_Char_Buf_Subsystem_Onchip_SRAM
00010828 g     F .text	00000248 OSFlagDel
0001e230 g     O .bss	00000004 OSEventFreeList
00000020 g       .exceptions	00000000 alt_irq_entry
000076b4 g     F .text	00000064 __ulp
00010ce4 g     F .text	000005b8 OSFlagPend
0001c2ee g     O .rwdata	00000002 OSTmrEn
000051ac g     F .text	00000018 __fp_unlock_all
0001c26c g     O .rwdata	00000008 alt_fs_list
0000fce8 g     F .text	00000074 OS_StrCopy
00018160 g     F .text	0000005c alt_up_rs232_enable_read_interrupt
000182dc g     F .text	00000040 alt_up_rs232_write_data
0001c2b8 g     O .rwdata	00000002 OSMemNameSize
00019270 g     F .text	00000020 OSInitHookEnd
00000020 g       *ABS*	00000000 __ram_exceptions_start
0001c2e4 g     O .rwdata	00000002 OSTCBPrioTblMax
00005d0c g     F .text	0000000c localeconv
0001c2e0 g     O .rwdata	00000002 OSTaskStatStkChkEn
0001c2b4 g     O .rwdata	00000002 OSMemEn
0001c2be g     O .rwdata	00000002 OSMutexEn
0001c310 g       *ABS*	00000000 _edata
0001e1b4 g     O .bss	00000004 KEY0_flag
000275a8 g       *ABS*	00000000 _end
0001e234 g     O .bss	00000001 OSIntNesting
00009c94 g     F .text	00000164 __fputwc
00000248 g       *ABS*	00000000 __ram_exceptions_end
00016ad0 g     F .text	000000f0 altera_avalon_jtag_uart_ioctl
000157b4 g     F .text	000001d4 OSTimeDlyResume
00010b98 g     F .text	0000014c OSFlagNameSet
00015018 g     F .text	000001c0 OSTaskStkChk
0001c2ba g     O .rwdata	00000002 OSMemSize
00008214 g     F .text	0000007c __swrite
0001c264 g     O .rwdata	00000004 __malloc_trim_threshold
00005cd4 g     F .text	0000000c __locale_msgcharset
0001e238 g     O .bss	00000004 OSTCBCur
000195f8 g     F .text	00000038 exit
000178e0 g     F .text	00000074 alt_up_irda_read_data
0001c2bc g     O .rwdata	00000002 OSMemTblSize
00005b78 g     F .text	000000c4 _fwalk_reent
00017bd8 g     F .text	000000c8 alt_up_ps2_init
000074b8 g     F .text	000001fc __mdiff
0000ae80 g     F .text	00000074 .hidden __modsi3
04000000 g       *ABS*	00000000 __alt_data_end
00000020 g     F .exceptions	00000000 alt_exception
00005188 g     F .text	00000004 __sfp_lock_release
0000ead4 g     F .text	00000058 OSInit
000153bc g     F .text	00000124 OSTaskQuery
000173d4 g     F .text	00000078 alt_up_character_lcd_string
0001e1b8 g     O .bss	00000004 SEM_read_PS2
000132dc g     F .text	000000a8 OS_QInit
0000fd5c g     F .text	00000054 OS_StrLen
00017a74 g     F .text	0000003c alt_up_irda_open_dev
00011ee0 g     F .text	00000114 OSMemNameSet
0001c2d6 g     O .rwdata	00000002 OSTaskProfileEn
0001e23c g     O .bss	00000004 OSTime
00025c04 g     O .bss	00000800 OSTaskIdleStk
00019944 g     F .text	00000034 _exit
000184f0 g     F .text	0000012c alt_alarm_start
00010a70 g     F .text	00000128 OSFlagNameGet
00015988 g     F .text	0000005c OSTimeGet
00005d18 g     F .text	000001bc __smakebuf_r
00017dd0 g     F .text	00000068 alt_up_ps2_wait_for_ack
00000e38 g     F .text	00000098 strlen
000191f0 g     F .text	00000020 OSTaskSwHook
00018c60 g     F .text	00000154 open
00026404 g     O .bss	00000b40 OSEventTbl
0000c1cc g     F .text	000000dc .hidden __gedf2
00026f44 g     O .bss	00000510 OSTCBTbl
00013ce4 g     F .text	00000100 OSSemSet
0001c268 g     O .rwdata	00000004 __wctomb
000084cc g     F .text	00000018 __sprint_r
0001886c g     F .text	00000034 alt_icache_flush_all
0001e1bc g     O .bss	00000004 SEM_read_KEYS
0001749c g     F .text	00000074 alt_up_character_lcd_set_cursor_pos
0001c304 g     O .rwdata	00000004 alt_priority_mask
0001350c g     F .text	00000240 OSSemDel
0001e240 g     O .bss	00000004 OSFlagFreeList
0001c29c g     O .rwdata	00000002 OSEventNameSize
000030c8 g     F .text	0000001c __vfprintf_internal
0001e244 g     O .bss	00000001 OSStatRdy
00027454 g     O .bss	00000054 OSTCBPrioTbl
0000a2f0 g     F .text	0000005c _wctomb_r
0000df54 g     F .text	000000c4 __env_lock
00018000 g     F .text	0000008c alt_up_ps2_read_fd
0001c2e2 g     O .rwdata	00000002 OSTaskSwHookEn
0000cab4 g     F .text	000008fc .hidden __subdf3
00017954 g     F .text	00000090 alt_up_irda_read_fd
00006eec g     F .text	000000b0 __lo0bits
0001c308 g     O .rwdata	00000008 alt_alarm_list
0001c2aa g     O .rwdata	00000002 OSFlagWidth
0001871c g     F .text	00000060 _do_ctors
0001821c g     F .text	00000040 alt_up_rs232_get_used_space_in_read_FIFO
0000a200 g     F .text	000000c0 wcrtomb
0000d654 g     F .text	000000d0 close
0001e1f0 g     O .bss	00000004 alt_envsem
0001e248 g     O .bss	00000004 OSIdleCtrRun
0000f118 g     F .text	00000020 OSVersion
0001c2f4 g     O .rwdata	00000002 OSTmrCfgWheelSize
0000d984 g     F .text	00000084 alt_load
000154e0 g     F .text	00000070 OS_TaskStkClr
0001c2ce g     O .rwdata	00000002 OSTaskCreateEn
0000f708 g     F .text	00000068 OS_EventWaitListInit
00009e1c g     F .text	00000080 fputwc
00019290 g     F .text	00000020 OSTaskIdleHook
0000518c g     F .text	00000004 __sinit_lock_acquire
00006c60 g     F .text	00000120 __multadd
000151d8 g     F .text	000001e4 OSTaskSuspend
00006c38 g     F .text	00000028 _Bfree
0000fdb0 g     F .text	0000005c OS_TaskIdle
0001c2fa g     O .rwdata	00000002 OSTmrTblSize
00013180 g     F .text	0000015c OSQQuery



Disassembly of section .entry:

00000000 <__reset>:
#if NIOS2_ICACHE_SIZE > 0 && defined(ALT_ALLOW_CODE_AT_RESET) && (!defined(ALT_SIM_OPTIMIZE) || defined(NIOS2_ECC_PRESENT))
    /* Assume the instruction cache size is always a power of two. */
#if NIOS2_ICACHE_SIZE > 0x8000
    movhi r2, %hi(NIOS2_ICACHE_SIZE)
#else
    movui r2, NIOS2_ICACHE_SIZE
   0:	00840014 	movui	r2,4096
#endif

0:
    initi r2
   4:	1001483a 	initi	r2
    addi r2, r2, -NIOS2_ICACHE_LINE_SIZE
   8:	10bff804 	addi	r2,r2,-32
    bgt r2, zero, 0b
   c:	00bffd16 	blt	zero,r2,4 <__alt_mem_VGA_Subsystem_Char_Buf_Subsystem_Onchip_SRAM+0xf7000004>
 * Jump to the _start entry point in the .text section if reset code
 * is allowed or if optimizing for RTL simulation.
 */
#if defined(ALT_ALLOW_CODE_AT_RESET) || defined(ALT_SIM_OPTIMIZE)
    /* Jump to the _start entry point in the .text section. */
    movhi r1, %hi(_start)
  10:	00400034 	movhi	at,0
    ori r1, r1, %lo(_start)
  14:	08409214 	ori	at,at,584
    jmp r1
  18:	0800683a 	jmp	at
  1c:	00000000 	call	0 <__reset>

Disassembly of section .exceptions:

00000020 <alt_exception>:

#else /* ALT_EXCEPTION_STACK disabled */
        /* 
         * Reserve space on normal stack for registers about to be pushed.
         */
        addi  sp, sp, -76
  20:	deffed04 	addi	sp,sp,-76
         * documentation for details).
         *
         * Leave a gap in the stack frame at 4(sp) for the muldiv handler to
         * store zero into.
         */
        stw   ra,  0(sp)
  24:	dfc00015 	stw	ra,0(sp)
        stw   r1,   8(sp)
  28:	d8400215 	stw	at,8(sp)
        stw   r2,  12(sp)
  2c:	d8800315 	stw	r2,12(sp)
        stw   r3,  16(sp)
  30:	d8c00415 	stw	r3,16(sp)
        stw   r4,  20(sp)
  34:	d9000515 	stw	r4,20(sp)
        stw   r5,  24(sp)
  38:	d9400615 	stw	r5,24(sp)
        stw   r6,  28(sp)
  3c:	d9800715 	stw	r6,28(sp)
        stw   r7,  32(sp)
  40:	d9c00815 	stw	r7,32(sp)
        rdctl r5, estatus   /* Read early to avoid usage stall */
  44:	000b307a 	rdctl	r5,estatus
        stw   r8,  36(sp)
  48:	da000915 	stw	r8,36(sp)
        stw   r9,  40(sp)
  4c:	da400a15 	stw	r9,40(sp)
        stw   r10, 44(sp)
  50:	da800b15 	stw	r10,44(sp)
        stw   r11, 48(sp)
  54:	dac00c15 	stw	r11,48(sp)
        stw   r12, 52(sp)
  58:	db000d15 	stw	r12,52(sp)
        stw   r13, 56(sp)
  5c:	db400e15 	stw	r13,56(sp)
        stw   r14, 60(sp)
  60:	db800f15 	stw	r14,60(sp)
        stw   r15, 64(sp)
  64:	dbc01015 	stw	r15,64(sp)
        /*
         * ea-4 contains the address of the instruction being executed
         * when the exception occured. For interrupt exceptions, we will
         * will be re-issue the isntruction. Store it in 72(sp)
         */
        stw   r5,  68(sp)  /* estatus */
  68:	d9401115 	stw	r5,68(sp)
        addi  r15, ea, -4  /* instruction that caused exception */
  6c:	ebffff04 	addi	r15,ea,-4
        stw   r15,  72(sp)
  70:	dbc01215 	stw	r15,72(sp)
#else
        /*
         * Test to see if the exception was a software exception or caused 
         * by an external interrupt, and vector accordingly.
         */
        rdctl r4, ipending
  74:	0009313a 	rdctl	r4,ipending
        andi  r2, r5, 1
  78:	2880004c 	andi	r2,r5,1
        beq   r2, zero, .Lnot_irq
  7c:	10000326 	beq	r2,zero,8c <OSCtxSw_SWITCH_PC+0x4c>
        beq   r4, zero, .Lnot_irq
  80:	20000226 	beq	r4,zero,8c <OSCtxSw_SWITCH_PC+0x4c>
        /*
         * Now that all necessary registers have been preserved, call 
         * alt_irq_handler() to process the interrupts.
         */

        call alt_irq_handler
  84:	00000fc0 	call	fc <alt_irq_handler>

        .section .exceptions.irqreturn, "xa"

        br    .Lexception_exit
  88:	00000706 	br	a8 <OSCtxSw_SWITCH_PC+0x68>
         * upon completion, so we write ea (address of instruction *after*
         * the one where the exception occured) into 72(sp). The actual
         * instruction that caused the exception is written in r2, which these
         * handlers will utilize.
         */
        stw ea, 72(sp) /* EA is PC+4 so will skip over instruction causing exception */
  8c:	df401215 	stw	ea,72(sp)
.Lunknown_16bit:
        addi.n r4, r4, 2 /* Need PC+2 to skip over instruction causing exception */
        stw r4, 72(sp)

#else /* CDX is not Enabled and all instructions are 32bits */
        ldw r2, -4(ea) /* Instruction value that caused exception */
  90:	e8bfff17 	ldw	r2,-4(ea)
         * debugger is present) or go into an infinite loop since the
         * handling behavior is undefined; in that case we will not return here.
         */

        /* Load exception-causing address as first argument (r4) */
        addi   r4, ea, -4
  94:	e93fff04 	addi	r4,ea,-4

        /* Call the instruction-exception entry */
        call   alt_instruction_exception_entry
  98:	00001d40 	call	1d4 <alt_instruction_exception_entry>
         * instruction
         *
         * Return code was 0: Skip. The instruction after the exception is
         * already stored in 72(sp).
         */
        bne   r2, r0, .Lexception_exit
  9c:	1000021e 	bne	r2,zero,a8 <OSCtxSw_SWITCH_PC+0x68>

        /*
         * Otherwise, modify 72(sp) to re-issue the instruction that caused the
         * exception.
         */
        addi  r15, ea, -4  /* instruction that caused exception */
  a0:	ebffff04 	addi	r15,ea,-4
        stw   r15,  72(sp)
  a4:	dbc01215 	stw	r15,72(sp)
        /* 
         * Restore the saved registers, so that all general purpose registers 
         * have been restored to their state at the time the interrupt occured.
         */

        ldw   r5,  68(sp)
  a8:	d9401117 	ldw	r5,68(sp)
        ldw   ea,  72(sp)  /* This becomes the PC once eret is executed */
  ac:	df401217 	ldw	ea,72(sp)
        ldw   ra,   0(sp)
  b0:	dfc00017 	ldw	ra,0(sp)

        wrctl estatus, r5
  b4:	2801707a 	wrctl	estatus,r5

        ldw   r1,   8(sp)
  b8:	d8400217 	ldw	at,8(sp)
        ldw   r2,  12(sp)
  bc:	d8800317 	ldw	r2,12(sp)
        ldw   r3,  16(sp)
  c0:	d8c00417 	ldw	r3,16(sp)
        ldw   r4,  20(sp)
  c4:	d9000517 	ldw	r4,20(sp)
        ldw   r5,  24(sp)
  c8:	d9400617 	ldw	r5,24(sp)
        ldw   r6,  28(sp)
  cc:	d9800717 	ldw	r6,28(sp)
        ldw   r7,  32(sp)
  d0:	d9c00817 	ldw	r7,32(sp)

#if defined(ALT_EXCEPTION_STACK) && defined(ALT_STACK_CHECK)
        ldw   et, %gprel(alt_exception_old_stack_limit)(gp)
#endif

        ldw   r8,  36(sp)
  d4:	da000917 	ldw	r8,36(sp)
        ldw   r9,  40(sp)
  d8:	da400a17 	ldw	r9,40(sp)
        ldw   r10, 44(sp)
  dc:	da800b17 	ldw	r10,44(sp)
        ldw   r11, 48(sp)
  e0:	dac00c17 	ldw	r11,48(sp)
        ldw   r12, 52(sp)
  e4:	db000d17 	ldw	r12,52(sp)
        ldw   r13, 56(sp)
  e8:	db400e17 	ldw	r13,56(sp)
        ldw   r14, 60(sp)
  ec:	db800f17 	ldw	r14,60(sp)
        ldw   r15, 64(sp)
  f0:	dbc01017 	ldw	r15,64(sp)
        stw   et, %gprel(alt_stack_limit_value)(gp)
        stw   zero, %gprel(alt_exception_old_stack_limit)(gp)
#endif /* ALT_STACK_CHECK */
        ldw   sp,  76(sp)
#else /* ALT_EXCEPTION_STACK disabled */
        addi  sp, sp, 76
  f4:	dec01304 	addi	sp,sp,76

        /*
         * Return to the interrupted instruction.
         */

        eret
  f8:	ef80083a 	eret

000000fc <alt_irq_handler>:
 * instruction is present if the macro ALT_CI_INTERRUPT_VECTOR defined.
 */

void alt_irq_handler (void) __attribute__ ((section (".exceptions")));
void alt_irq_handler (void)
{
  fc:	defff904 	addi	sp,sp,-28
 100:	dfc00615 	stw	ra,24(sp)
 104:	df000515 	stw	fp,20(sp)
 108:	df000504 	addi	fp,sp,20
  
  /*
   * Notify the operating system that we are at interrupt level.
   */ 
  
  ALT_OS_INT_ENTER();
 10c:	000eb2c0 	call	eb2c <OSIntEnter>
#ifndef NIOS2_EIC_PRESENT
static ALT_INLINE alt_u32 ALT_ALWAYS_INLINE alt_irq_pending (void)
{
  alt_u32 active;

  NIOS2_READ_IPENDING (active);
 110:	0005313a 	rdctl	r2,ipending
 114:	e0bffe15 	stw	r2,-8(fp)

  return active;
 118:	e0bffe17 	ldw	r2,-8(fp)
   * Consider the case where the high priority interupt is asserted during
   * the interrupt entry sequence for a lower priority interrupt to see why
   * this is the case.
   */

  active = alt_irq_pending ();
 11c:	e0bffb15 	stw	r2,-20(fp)

  do
  {
    i = 0;
 120:	e03ffd15 	stw	zero,-12(fp)
    mask = 1;
 124:	00800044 	movi	r2,1
 128:	e0bffc15 	stw	r2,-16(fp)
     * called to clear the interrupt condition.
     */

    do
    {
      if (active & mask)
 12c:	e0fffb17 	ldw	r3,-20(fp)
 130:	e0bffc17 	ldw	r2,-16(fp)
 134:	1884703a 	and	r2,r3,r2
 138:	10001526 	beq	r2,zero,190 <alt_irq_handler+0x94>
      { 
#ifdef ALT_ENHANCED_INTERRUPT_API_PRESENT
        alt_irq[i].handler(alt_irq[i].context); 
#else
        alt_irq[i].handler(alt_irq[i].context, i); 
 13c:	008000b4 	movhi	r2,2
 140:	109d2a04 	addi	r2,r2,29864
 144:	e0fffd17 	ldw	r3,-12(fp)
 148:	180690fa 	slli	r3,r3,3
 14c:	10c5883a 	add	r2,r2,r3
 150:	10c00017 	ldw	r3,0(r2)
 154:	008000b4 	movhi	r2,2
 158:	109d2a04 	addi	r2,r2,29864
 15c:	e13ffd17 	ldw	r4,-12(fp)
 160:	200890fa 	slli	r4,r4,3
 164:	1105883a 	add	r2,r2,r4
 168:	10800104 	addi	r2,r2,4
 16c:	10800017 	ldw	r2,0(r2)
 170:	e17ffd17 	ldw	r5,-12(fp)
 174:	1009883a 	mov	r4,r2
 178:	183ee83a 	callr	r3
#endif
        break;
 17c:	0001883a 	nop
#ifndef NIOS2_EIC_PRESENT
static ALT_INLINE alt_u32 ALT_ALWAYS_INLINE alt_irq_pending (void)
{
  alt_u32 active;

  NIOS2_READ_IPENDING (active);
 180:	0005313a 	rdctl	r2,ipending
 184:	e0bfff15 	stw	r2,-4(fp)

  return active;
 188:	e0bfff17 	ldw	r2,-4(fp)
 18c:	00000706 	br	1ac <alt_irq_handler+0xb0>
      }
      mask <<= 1;
 190:	e0bffc17 	ldw	r2,-16(fp)
 194:	1085883a 	add	r2,r2,r2
 198:	e0bffc15 	stw	r2,-16(fp)
      i++;
 19c:	e0bffd17 	ldw	r2,-12(fp)
 1a0:	10800044 	addi	r2,r2,1
 1a4:	e0bffd15 	stw	r2,-12(fp)

    } while (1);
 1a8:	003fe006 	br	12c <__alt_mem_VGA_Subsystem_Char_Buf_Subsystem_Onchip_SRAM+0xf700012c>

    active = alt_irq_pending ();
 1ac:	e0bffb15 	stw	r2,-20(fp)
    
  } while (active);
 1b0:	e0bffb17 	ldw	r2,-20(fp)
 1b4:	103fda1e 	bne	r2,zero,120 <__alt_mem_VGA_Subsystem_Char_Buf_Subsystem_Onchip_SRAM+0xf7000120>

  /*
   * Notify the operating system that interrupt processing is complete.
   */ 

  ALT_OS_INT_EXIT();
 1b8:	000eb780 	call	eb78 <OSIntExit>
}
 1bc:	0001883a 	nop
 1c0:	e037883a 	mov	sp,fp
 1c4:	dfc00117 	ldw	ra,4(sp)
 1c8:	df000017 	ldw	fp,0(sp)
 1cc:	dec00204 	addi	sp,sp,8
 1d0:	f800283a 	ret

000001d4 <alt_instruction_exception_entry>:
 * that handler if it has been registered. Absent a handler, it will
 * break break or hang as discussed below.
 */
int 
alt_instruction_exception_entry (alt_u32 exception_pc)
{
 1d4:	defffb04 	addi	sp,sp,-20
 1d8:	dfc00415 	stw	ra,16(sp)
 1dc:	df000315 	stw	fp,12(sp)
 1e0:	df000304 	addi	fp,sp,12
 1e4:	e13fff15 	stw	r4,-4(fp)
 * NIOS2_EXCEPTION_CAUSE_NOT_PRESENT. Your handling routine should
 * check the validity of the cause argument before proceeding.
 */
#ifdef NIOS2_HAS_EXTRA_EXCEPTION_INFO
  /* Get exception cause & "badaddr" */
  NIOS2_READ_EXCEPTION(cause);
 1e8:	000531fa 	rdctl	r2,exception
 1ec:	e0bffd15 	stw	r2,-12(fp)
  cause = ( (cause & NIOS2_EXCEPTION_REG_CAUSE_MASK) >>
 1f0:	e0bffd17 	ldw	r2,-12(fp)
 1f4:	10801f0c 	andi	r2,r2,124
 1f8:	1004d0ba 	srli	r2,r2,2
 1fc:	e0bffd15 	stw	r2,-12(fp)
              NIOS2_EXCEPTION_REG_CAUSE_OFST );

  NIOS2_READ_BADADDR(badaddr);
 200:	0005333a 	rdctl	r2,badaddr
 204:	e0bffe15 	stw	r2,-8(fp)
#else
  cause = NIOS2_EXCEPTION_CAUSE_NOT_PRESENT;
  badaddr = 0;
#endif /* NIOS2_HAS_EXTRA_EXCEPTION_INFO */

  if(alt_instruction_exception_handler) {
 208:	d0a80117 	ldw	r2,-24572(gp)
 20c:	10000726 	beq	r2,zero,22c <alt_instruction_exception_entry+0x58>
     * Call handler. Its return value indicates whether the exception-causing
     * instruction should be re-issued. The code that called us,
     * alt_eceptions_entry.S, will look at this value and adjust the ea
     * register as necessary
     */
    return alt_instruction_exception_handler(cause, exception_pc, badaddr);
 210:	d0a80117 	ldw	r2,-24572(gp)
 214:	e0fffd17 	ldw	r3,-12(fp)
 218:	e1bffe17 	ldw	r6,-8(fp)
 21c:	e17fff17 	ldw	r5,-4(fp)
 220:	1809883a 	mov	r4,r3
 224:	103ee83a 	callr	r2
 228:	00000206 	br	234 <alt_instruction_exception_entry+0x60>
   *    (a peripheral which negates its interrupt output before its
   *    interrupt handler has been executed will cause spurious interrupts)
   */
  else {
#ifdef NIOS2_HAS_DEBUG_STUB
    NIOS2_BREAK();
 22c:	003da03a 	break	0
      ;
#endif /* NIOS2_HAS_DEBUG_STUB */
  }

  /* We should not get here. Remove compiler warning. */
  return NIOS2_EXCEPTION_RETURN_REISSUE_INST;
 230:	0005883a 	mov	r2,zero
}
 234:	e037883a 	mov	sp,fp
 238:	dfc00117 	ldw	ra,4(sp)
 23c:	df000017 	ldw	fp,0(sp)
 240:	dec00204 	addi	sp,sp,8
 244:	f800283a 	ret

Disassembly of section .text:

00000248 <_start>:

    /*
     * Now that the caches are initialized, set up the stack pointer and global pointer.
     * The values provided by the linker are assumed to be correctly aligned.
     */
    movhi sp, %hi(__alt_stack_pointer)
     248:	06c10034 	movhi	sp,1024
    ori sp, sp, %lo(__alt_stack_pointer)
     24c:	dec00014 	ori	sp,sp,0
    movhi gp, %hi(_gp)
     250:	068000b4 	movhi	gp,2
    ori gp, gp, %lo(_gp)
     254:	d6909514 	ori	gp,gp,16980
 */
#ifndef ALT_SIM_OPTIMIZE
    /* Log that the BSS is about to be cleared. */
    ALT_LOG_PUTS(alt_log_msg_bss)

    movhi r2, %hi(__bss_start)
     258:	00800074 	movhi	r2,1
    ori r2, r2, %lo(__bss_start)
     25c:	10b86414 	ori	r2,r2,57744

    movhi r3, %hi(__bss_end)
     260:	00c000b4 	movhi	r3,2
    ori r3, r3, %lo(__bss_end)
     264:	18dd6a14 	ori	r3,r3,30120

    beq r2, r3, 1f
     268:	10c00326 	beq	r2,r3,278 <_start+0x30>

0:
    stw zero, (r2)
     26c:	10000015 	stw	zero,0(r2)
    addi r2, r2, 4
     270:	10800104 	addi	r2,r2,4
    bltu r2, r3, 0b
     274:	10fffd36 	bltu	r2,r3,26c <__alt_mem_VGA_Subsystem_Char_Buf_Subsystem_Onchip_SRAM+0xf700026c>
     * section aren't defined until alt_load() has been called).
     */
    mov   et, zero
#endif

    call alt_load
     278:	000d9840 	call	d984 <alt_load>

    /* Log that alt_main is about to be called. */
    ALT_LOG_PUTS(alt_log_msg_alt_main)

    /* Call the C entry point. It should never return. */
    call alt_main
     27c:	000db180 	call	db18 <alt_main>

00000280 <alt_after_alt_main>:

    /* Wait in infinite loop in case alt_main does return. */
alt_after_alt_main:
    br alt_after_alt_main
     280:	003fff06 	br	280 <__alt_mem_VGA_Subsystem_Char_Buf_Subsystem_Onchip_SRAM+0xf7000280>

00000284 <Get_state_name>:
void Task_read_PS2(void *);

/* Helper functions */

const char *Get_state_name(DoorState door_state)
{
     284:	defffe04 	addi	sp,sp,-8
     288:	df000115 	stw	fp,4(sp)
     28c:	df000104 	addi	fp,sp,4
     290:	e13fff15 	stw	r4,-4(fp)
  switch (door_state)
     294:	e0bfff17 	ldw	r2,-4(fp)
     298:	10800268 	cmpgeui	r2,r2,9
     29c:	10002b1e 	bne	r2,zero,34c <Get_state_name+0xc8>
     2a0:	e0bfff17 	ldw	r2,-4(fp)
     2a4:	100690ba 	slli	r3,r2,2
     2a8:	00800034 	movhi	r2,0
     2ac:	1080af04 	addi	r2,r2,700
     2b0:	1885883a 	add	r2,r3,r2
     2b4:	10800017 	ldw	r2,0(r2)
     2b8:	1000683a 	jmp	r2
     2bc:	000002e0 	cmpeqi	zero,zero,11
     2c0:	000002ec 	andhi	zero,zero,11
     2c4:	000002f8 	rdprs	zero,zero,11
     2c8:	00000304 	movi	zero,12
     2cc:	00000310 	cmplti	zero,zero,12
     2d0:	0000031c 	xori	zero,zero,12
     2d4:	00000328 	cmpgeui	zero,zero,12
     2d8:	00000334 	movhi	zero,12
     2dc:	00000340 	call	34 <OSTCBPrio_OFFSET+0x2>
  {
  case INIT:
    return "INIT";
     2e0:	008000b4 	movhi	r2,2
     2e4:	10a65e04 	addi	r2,r2,-26248
     2e8:	00001a06 	br	354 <Get_state_name+0xd0>
  case OPEN:
    return "OPEN";
     2ec:	008000b4 	movhi	r2,2
     2f0:	10a66004 	addi	r2,r2,-26240
     2f4:	00001706 	br	354 <Get_state_name+0xd0>
  case CLOSE:
    return "CLOSE";
     2f8:	008000b4 	movhi	r2,2
     2fc:	10a66204 	addi	r2,r2,-26232
     300:	00001406 	br	354 <Get_state_name+0xd0>
  case LOCK:
    return "LOCK";
     304:	008000b4 	movhi	r2,2
     308:	10a66404 	addi	r2,r2,-26224
     30c:	00001106 	br	354 <Get_state_name+0xd0>
  case CODE:
    return "CODE";
     310:	008000b4 	movhi	r2,2
     314:	10a66604 	addi	r2,r2,-26216
     318:	00000e06 	br	354 <Get_state_name+0xd0>
  case PROG:
    return "PROG";
     31c:	008000b4 	movhi	r2,2
     320:	10a66804 	addi	r2,r2,-26208
     324:	00000b06 	br	354 <Get_state_name+0xd0>
  case VERIFIED:
    return "VERIFIED";
     328:	008000b4 	movhi	r2,2
     32c:	10a66a04 	addi	r2,r2,-26200
     330:	00000806 	br	354 <Get_state_name+0xd0>
  case ADD_CODE:
    return "ADD_CODE";
     334:	008000b4 	movhi	r2,2
     338:	10a66d04 	addi	r2,r2,-26188
     33c:	00000506 	br	354 <Get_state_name+0xd0>
  case DELETE_CODE:
    return "DELETE_CODE";
     340:	008000b4 	movhi	r2,2
     344:	10a67004 	addi	r2,r2,-26176
     348:	00000206 	br	354 <Get_state_name+0xd0>
  default:
    return "INVALID";
     34c:	008000b4 	movhi	r2,2
     350:	10a67304 	addi	r2,r2,-26164
  }
}
     354:	e037883a 	mov	sp,fp
     358:	df000017 	ldw	fp,0(sp)
     35c:	dec00104 	addi	sp,sp,4
     360:	f800283a 	ret

00000364 <Check_KEYs>:

void Check_KEYs(int *KEY0_ptr, int *KEY1_ptr, int *KEY2_ptr, int *KEY3_ptr)
{
     364:	defff904 	addi	sp,sp,-28
     368:	dfc00615 	stw	ra,24(sp)
     36c:	df000515 	stw	fp,20(sp)
     370:	df000504 	addi	fp,sp,20
     374:	e13ffc15 	stw	r4,-16(fp)
     378:	e17ffd15 	stw	r5,-12(fp)
     37c:	e1bffe15 	stw	r6,-8(fp)
     380:	e1ffff15 	stw	r7,-4(fp)

  KEY_val = *(KEY_ptr);
     384:	00bfc834 	movhi	r2,65312
     388:	10801404 	addi	r2,r2,80
     38c:	10800017 	ldw	r2,0(r2)
     390:	d0a7d315 	stw	r2,-24756(gp)

  if (KEY_val == KEY0)
     394:	d0a7d317 	ldw	r2,-24756(gp)
     398:	10800058 	cmpnei	r2,r2,1
     39c:	10000d1e 	bne	r2,zero,3d4 <Check_KEYs+0x70>
  {
    debug("KEY0 Pressed!"); // check KEY0
     3a0:	d0a00117 	ldw	r2,-32764(gp)
     3a4:	10800317 	ldw	r2,12(r2)
     3a8:	01c01784 	movi	r7,94
     3ac:	018000b4 	movhi	r6,2
     3b0:	31a67504 	addi	r6,r6,-26156
     3b4:	014000b4 	movhi	r5,2
     3b8:	29667904 	addi	r5,r5,-26140
     3bc:	1009883a 	mov	r4,r2
     3c0:	0000d400 	call	d40 <fprintf>
    *KEY0_ptr = 1;
     3c4:	e0bffc17 	ldw	r2,-16(fp)
     3c8:	00c00044 	movi	r3,1
     3cc:	10c00015 	stw	r3,0(r2)
     3d0:	00002f06 	br	490 <Check_KEYs+0x12c>
  }
  else if (KEY_val == KEY1) // check KEY1
     3d4:	d0a7d317 	ldw	r2,-24756(gp)
     3d8:	10800098 	cmpnei	r2,r2,2
     3dc:	10000d1e 	bne	r2,zero,414 <Check_KEYs+0xb0>
  {
    debug("KEY1 Pressed!");
     3e0:	d0a00117 	ldw	r2,-32764(gp)
     3e4:	10800317 	ldw	r2,12(r2)
     3e8:	01c018c4 	movi	r7,99
     3ec:	018000b4 	movhi	r6,2
     3f0:	31a67504 	addi	r6,r6,-26156
     3f4:	014000b4 	movhi	r5,2
     3f8:	29668004 	addi	r5,r5,-26112
     3fc:	1009883a 	mov	r4,r2
     400:	0000d400 	call	d40 <fprintf>
    *KEY1_ptr = 1;
     404:	e0bffd17 	ldw	r2,-12(fp)
     408:	00c00044 	movi	r3,1
     40c:	10c00015 	stw	r3,0(r2)
     410:	00001f06 	br	490 <Check_KEYs+0x12c>
  }
  else if (KEY_val == KEY2) // check KEY2
     414:	d0a7d317 	ldw	r2,-24756(gp)
     418:	10800118 	cmpnei	r2,r2,4
     41c:	10000d1e 	bne	r2,zero,454 <Check_KEYs+0xf0>
  {
    debug("KEY2 Pressed!");
     420:	d0a00117 	ldw	r2,-32764(gp)
     424:	10800317 	ldw	r2,12(r2)
     428:	01c01a04 	movi	r7,104
     42c:	018000b4 	movhi	r6,2
     430:	31a67504 	addi	r6,r6,-26156
     434:	014000b4 	movhi	r5,2
     438:	29668704 	addi	r5,r5,-26084
     43c:	1009883a 	mov	r4,r2
     440:	0000d400 	call	d40 <fprintf>
    *KEY2_ptr = 1;
     444:	e0bffe17 	ldw	r2,-8(fp)
     448:	00c00044 	movi	r3,1
     44c:	10c00015 	stw	r3,0(r2)
     450:	00000f06 	br	490 <Check_KEYs+0x12c>
  }
  else if (KEY_val == KEY3) // check KEY3
     454:	d0a7d317 	ldw	r2,-24756(gp)
     458:	10800218 	cmpnei	r2,r2,8
     45c:	10000c1e 	bne	r2,zero,490 <Check_KEYs+0x12c>
  {
    debug("KEY3 Pressed!");
     460:	d0a00117 	ldw	r2,-32764(gp)
     464:	10800317 	ldw	r2,12(r2)
     468:	01c01b44 	movi	r7,109
     46c:	018000b4 	movhi	r6,2
     470:	31a67504 	addi	r6,r6,-26156
     474:	014000b4 	movhi	r5,2
     478:	29668e04 	addi	r5,r5,-26056
     47c:	1009883a 	mov	r4,r2
     480:	0000d400 	call	d40 <fprintf>
    *KEY3_ptr = 1;
     484:	e0bfff17 	ldw	r2,-4(fp)
     488:	00c00044 	movi	r3,1
     48c:	10c00015 	stw	r3,0(r2)
  }

  if (KEY_val)
     490:	d0a7d317 	ldw	r2,-24756(gp)
     494:	10000b26 	beq	r2,zero,4c4 <Check_KEYs+0x160>
    debug("KEY_value: %d", KEY_val);
     498:	d0a00117 	ldw	r2,-32764(gp)
     49c:	10c00317 	ldw	r3,12(r2)
     4a0:	d0a7d317 	ldw	r2,-24756(gp)
     4a4:	d8800015 	stw	r2,0(sp)
     4a8:	01c01c84 	movi	r7,114
     4ac:	018000b4 	movhi	r6,2
     4b0:	31a67504 	addi	r6,r6,-26156
     4b4:	014000b4 	movhi	r5,2
     4b8:	29669504 	addi	r5,r5,-26028
     4bc:	1809883a 	mov	r4,r3
     4c0:	0000d400 	call	d40 <fprintf>
}
     4c4:	0001883a 	nop
     4c8:	e037883a 	mov	sp,fp
     4cc:	dfc00117 	ldw	ra,4(sp)
     4d0:	df000017 	ldw	fp,0(sp)
     4d4:	dec00204 	addi	sp,sp,8
     4d8:	f800283a 	ret

000004dc <Task_read_PS2>:

/* Tasks Implementation */
void Task_read_PS2(void *pdata)
{
     4dc:	defff904 	addi	sp,sp,-28
     4e0:	dfc00615 	stw	ra,24(sp)
     4e4:	df000515 	stw	fp,20(sp)
     4e8:	df000504 	addi	fp,sp,20
     4ec:	e13fff15 	stw	r4,-4(fp)

  debug("Started: Task_read_PS2");
     4f0:	d0a00117 	ldw	r2,-32764(gp)
     4f4:	10800317 	ldw	r2,12(r2)
     4f8:	01c01e44 	movi	r7,121
     4fc:	018000b4 	movhi	r6,2
     500:	31a67504 	addi	r6,r6,-26156
     504:	014000b4 	movhi	r5,2
     508:	29669c04 	addi	r5,r5,-26000
     50c:	1009883a 	mov	r4,r2
     510:	0000d400 	call	d40 <fprintf>

  char byte5;
  int PS2_data, RAVAIL;

  *(PS2_ptr) = 0xFF; // reset PS/2
     514:	00bfc834 	movhi	r2,65312
     518:	10804004 	addi	r2,r2,256
     51c:	00c03fc4 	movi	r3,255
     520:	10c00015 	stw	r3,0(r2)
  int flag = 0;
     524:	e03ffb15 	stw	zero,-20(fp)

  while (1)
  {

    OSSemPend(SEM_read_PS2, 0, &err);
     528:	d0a7d917 	ldw	r2,-24732(gp)
     52c:	d1a7d504 	addi	r6,gp,-24748
     530:	000b883a 	mov	r5,zero
     534:	1009883a 	mov	r4,r2
     538:	001374c0 	call	1374c <OSSemPend>

    PS2_data = *(PS2_ptr);                  /* read the Data register in the PS/2 port */
     53c:	00bfc834 	movhi	r2,65312
     540:	10804004 	addi	r2,r2,256
     544:	10800017 	ldw	r2,0(r2)
     548:	e0bffc15 	stw	r2,-16(fp)
    RAVAIL = (PS2_data & 0xFFFF0000) >> 16; /* extract the RAVAIL field */
     54c:	e0bffc17 	ldw	r2,-16(fp)
     550:	1004d43a 	srli	r2,r2,16
     554:	e0bffd15 	stw	r2,-12(fp)

    if (RAVAIL > 0)
     558:	e0bffd17 	ldw	r2,-12(fp)
     55c:	0080eb0e 	bge	zero,r2,90c <Task_read_PS2+0x430>
    {
      byte5 = PS2_data & 0xFF;
     560:	e0bffc17 	ldw	r2,-16(fp)
     564:	e0bffe05 	stb	r2,-8(fp)

      /* TODO: Refactor this code */
      if (byte5 == -16)
     568:	e0bffe07 	ldb	r2,-8(fp)
     56c:	10bffc18 	cmpnei	r2,r2,-16
     570:	1000031e 	bne	r2,zero,580 <Task_read_PS2+0xa4>
        flag = 1;
     574:	00800044 	movi	r2,1
     578:	e0bffb15 	stw	r2,-20(fp)
     57c:	0000e306 	br	90c <Task_read_PS2+0x430>

      else if (flag == 1)
     580:	e0bffb17 	ldw	r2,-20(fp)
     584:	10800058 	cmpnei	r2,r2,1
     588:	1000e01e 	bne	r2,zero,90c <Task_read_PS2+0x430>
      {
        flag = 0;
     58c:	e03ffb15 	stw	zero,-20(fp)

        switch (byte5)
     590:	e0bffe07 	ldb	r2,-8(fp)
     594:	10bffa84 	addi	r2,r2,-22
     598:	10c01a28 	cmpgeui	r3,r2,104
     59c:	1800d21e 	bne	r3,zero,8e8 <Task_read_PS2+0x40c>
     5a0:	100690ba 	slli	r3,r2,2
     5a4:	00800034 	movhi	r2,0
     5a8:	10816e04 	addi	r2,r2,1464
     5ac:	1885883a 	add	r2,r3,r2
     5b0:	10800017 	ldw	r2,0(r2)
     5b4:	1000683a 	jmp	r2
     5b8:	00000780 	call	78 <OSCtxSw_SWITCH_PC+0x38>
     5bc:	000008e8 	cmpgeui	zero,zero,35
     5c0:	000008e8 	cmpgeui	zero,zero,35
     5c4:	000008e8 	cmpgeui	zero,zero,35
     5c8:	000008e8 	cmpgeui	zero,zero,35
     5cc:	000008e8 	cmpgeui	zero,zero,35
     5d0:	000008e8 	cmpgeui	zero,zero,35
     5d4:	000008e8 	cmpgeui	zero,zero,35
     5d8:	000007a8 	cmpgeui	zero,zero,30
     5dc:	000008e8 	cmpgeui	zero,zero,35
     5e0:	000008e8 	cmpgeui	zero,zero,35
     5e4:	000008e8 	cmpgeui	zero,zero,35
     5e8:	000008e8 	cmpgeui	zero,zero,35
     5ec:	000008e8 	cmpgeui	zero,zero,35
     5f0:	000008e8 	cmpgeui	zero,zero,35
     5f4:	000007f8 	rdprs	zero,zero,31
     5f8:	000007d0 	cmplti	zero,zero,31
     5fc:	000008e8 	cmpgeui	zero,zero,35
     600:	000008e8 	cmpgeui	zero,zero,35
     604:	000008e8 	cmpgeui	zero,zero,35
     608:	000008e8 	cmpgeui	zero,zero,35
     60c:	000008e8 	cmpgeui	zero,zero,35
     610:	000008e8 	cmpgeui	zero,zero,35
     614:	000008e8 	cmpgeui	zero,zero,35
     618:	00000820 	cmpeqi	zero,zero,32
     61c:	000008e8 	cmpgeui	zero,zero,35
     620:	000008e8 	cmpgeui	zero,zero,35
     624:	000008e8 	cmpgeui	zero,zero,35
     628:	000008e8 	cmpgeui	zero,zero,35
     62c:	000008e8 	cmpgeui	zero,zero,35
     630:	000008e8 	cmpgeui	zero,zero,35
     634:	000008e8 	cmpgeui	zero,zero,35
     638:	00000848 	cmpgei	zero,zero,33
     63c:	000008e8 	cmpgeui	zero,zero,35
     640:	000008e8 	cmpgeui	zero,zero,35
     644:	000008e8 	cmpgeui	zero,zero,35
     648:	000008e8 	cmpgeui	zero,zero,35
     64c:	000008e8 	cmpgeui	zero,zero,35
     650:	000008e8 	cmpgeui	zero,zero,35
     654:	00000870 	cmpltui	zero,zero,33
     658:	00000898 	cmpnei	zero,zero,34
     65c:	000008e8 	cmpgeui	zero,zero,35
     660:	000008e8 	cmpgeui	zero,zero,35
     664:	000008e8 	cmpgeui	zero,zero,35
     668:	000008e8 	cmpgeui	zero,zero,35
     66c:	000008e8 	cmpgeui	zero,zero,35
     670:	000008e8 	cmpgeui	zero,zero,35
     674:	00000758 	cmpnei	zero,zero,29
     678:	000008c0 	call	8c <OSCtxSw_SWITCH_PC+0x4c>
     67c:	000008e8 	cmpgeui	zero,zero,35
     680:	000008e8 	cmpgeui	zero,zero,35
     684:	000008e8 	cmpgeui	zero,zero,35
     688:	000008e8 	cmpgeui	zero,zero,35
     68c:	000008e8 	cmpgeui	zero,zero,35
     690:	000008e8 	cmpgeui	zero,zero,35
     694:	000008e8 	cmpgeui	zero,zero,35
     698:	000008e8 	cmpgeui	zero,zero,35
     69c:	000008e8 	cmpgeui	zero,zero,35
     6a0:	000008e8 	cmpgeui	zero,zero,35
     6a4:	000008e8 	cmpgeui	zero,zero,35
     6a8:	000008e8 	cmpgeui	zero,zero,35
     6ac:	000008e8 	cmpgeui	zero,zero,35
     6b0:	000008e8 	cmpgeui	zero,zero,35
     6b4:	000008e8 	cmpgeui	zero,zero,35
     6b8:	000008e8 	cmpgeui	zero,zero,35
     6bc:	000008e8 	cmpgeui	zero,zero,35
     6c0:	000008e8 	cmpgeui	zero,zero,35
     6c4:	000008e8 	cmpgeui	zero,zero,35
     6c8:	000008e8 	cmpgeui	zero,zero,35
     6cc:	000008e8 	cmpgeui	zero,zero,35
     6d0:	000008e8 	cmpgeui	zero,zero,35
     6d4:	000008e8 	cmpgeui	zero,zero,35
     6d8:	000008e8 	cmpgeui	zero,zero,35
     6dc:	000008e8 	cmpgeui	zero,zero,35
     6e0:	000008e8 	cmpgeui	zero,zero,35
     6e4:	000008e8 	cmpgeui	zero,zero,35
     6e8:	000008e8 	cmpgeui	zero,zero,35
     6ec:	000008e8 	cmpgeui	zero,zero,35
     6f0:	000008e8 	cmpgeui	zero,zero,35
     6f4:	000008e8 	cmpgeui	zero,zero,35
     6f8:	000008e8 	cmpgeui	zero,zero,35
     6fc:	000008e8 	cmpgeui	zero,zero,35
     700:	000008e8 	cmpgeui	zero,zero,35
     704:	00000780 	call	78 <OSCtxSw_SWITCH_PC+0x38>
     708:	000008e8 	cmpgeui	zero,zero,35
     70c:	000007f8 	rdprs	zero,zero,31
     710:	00000870 	cmpltui	zero,zero,33
     714:	000008e8 	cmpgeui	zero,zero,35
     718:	000008e8 	cmpgeui	zero,zero,35
     71c:	000008e8 	cmpgeui	zero,zero,35
     720:	00000758 	cmpnei	zero,zero,29
     724:	000008e8 	cmpgeui	zero,zero,35
     728:	000007a8 	cmpgeui	zero,zero,30
     72c:	00000820 	cmpeqi	zero,zero,32
     730:	00000848 	cmpgei	zero,zero,33
     734:	00000898 	cmpnei	zero,zero,34
     738:	000008e8 	cmpgeui	zero,zero,35
     73c:	000008e8 	cmpgeui	zero,zero,35
     740:	000008e8 	cmpgeui	zero,zero,35
     744:	000008e8 	cmpgeui	zero,zero,35
     748:	000007d0 	cmplti	zero,zero,31
     74c:	000008e8 	cmpgeui	zero,zero,35
     750:	000008e8 	cmpgeui	zero,zero,35
     754:	000008c0 	call	8c <OSCtxSw_SWITCH_PC+0x4c>
        {
        case 69:
        case 112:
          debug("0 pressed");
     758:	d0a00117 	ldw	r2,-32764(gp)
     75c:	10800317 	ldw	r2,12(r2)
     760:	01c02644 	movi	r7,153
     764:	018000b4 	movhi	r6,2
     768:	31a67504 	addi	r6,r6,-26156
     76c:	014000b4 	movhi	r5,2
     770:	2966a604 	addi	r5,r5,-25960
     774:	1009883a 	mov	r4,r2
     778:	0000d400 	call	d40 <fprintf>
          break;
     77c:	00006306 	br	90c <Task_read_PS2+0x430>
        case 22:
        case 105:
          debug("1 pressed");
     780:	d0a00117 	ldw	r2,-32764(gp)
     784:	10800317 	ldw	r2,12(r2)
     788:	01c02744 	movi	r7,157
     78c:	018000b4 	movhi	r6,2
     790:	31a67504 	addi	r6,r6,-26156
     794:	014000b4 	movhi	r5,2
     798:	2966ac04 	addi	r5,r5,-25936
     79c:	1009883a 	mov	r4,r2
     7a0:	0000d400 	call	d40 <fprintf>
          break;
     7a4:	00005906 	br	90c <Task_read_PS2+0x430>
        case 30:
        case 114:
          debug("2 pressed");
     7a8:	d0a00117 	ldw	r2,-32764(gp)
     7ac:	10800317 	ldw	r2,12(r2)
     7b0:	01c02844 	movi	r7,161
     7b4:	018000b4 	movhi	r6,2
     7b8:	31a67504 	addi	r6,r6,-26156
     7bc:	014000b4 	movhi	r5,2
     7c0:	2966b204 	addi	r5,r5,-25912
     7c4:	1009883a 	mov	r4,r2
     7c8:	0000d400 	call	d40 <fprintf>
          break;
     7cc:	00004f06 	br	90c <Task_read_PS2+0x430>
        case 38:
        case 122:
          debug("3 pressed");
     7d0:	d0a00117 	ldw	r2,-32764(gp)
     7d4:	10800317 	ldw	r2,12(r2)
     7d8:	01c02944 	movi	r7,165
     7dc:	018000b4 	movhi	r6,2
     7e0:	31a67504 	addi	r6,r6,-26156
     7e4:	014000b4 	movhi	r5,2
     7e8:	2966b804 	addi	r5,r5,-25888
     7ec:	1009883a 	mov	r4,r2
     7f0:	0000d400 	call	d40 <fprintf>
          break;
     7f4:	00004506 	br	90c <Task_read_PS2+0x430>
        case 37:
        case 107:
          debug("4 pressed");
     7f8:	d0a00117 	ldw	r2,-32764(gp)
     7fc:	10800317 	ldw	r2,12(r2)
     800:	01c02a44 	movi	r7,169
     804:	018000b4 	movhi	r6,2
     808:	31a67504 	addi	r6,r6,-26156
     80c:	014000b4 	movhi	r5,2
     810:	2966be04 	addi	r5,r5,-25864
     814:	1009883a 	mov	r4,r2
     818:	0000d400 	call	d40 <fprintf>
          break;
     81c:	00003b06 	br	90c <Task_read_PS2+0x430>
        case 46:
        case 115:
          debug("5 pressed");
     820:	d0a00117 	ldw	r2,-32764(gp)
     824:	10800317 	ldw	r2,12(r2)
     828:	01c02b44 	movi	r7,173
     82c:	018000b4 	movhi	r6,2
     830:	31a67504 	addi	r6,r6,-26156
     834:	014000b4 	movhi	r5,2
     838:	2966c404 	addi	r5,r5,-25840
     83c:	1009883a 	mov	r4,r2
     840:	0000d400 	call	d40 <fprintf>
          break;
     844:	00003106 	br	90c <Task_read_PS2+0x430>
        case 54:
        case 116:
          debug("6 pressed");
     848:	d0a00117 	ldw	r2,-32764(gp)
     84c:	10800317 	ldw	r2,12(r2)
     850:	01c02c44 	movi	r7,177
     854:	018000b4 	movhi	r6,2
     858:	31a67504 	addi	r6,r6,-26156
     85c:	014000b4 	movhi	r5,2
     860:	2966ca04 	addi	r5,r5,-25816
     864:	1009883a 	mov	r4,r2
     868:	0000d400 	call	d40 <fprintf>
          break;
     86c:	00002706 	br	90c <Task_read_PS2+0x430>
        case 61:
        case 108:
          debug("7 pressed");
     870:	d0a00117 	ldw	r2,-32764(gp)
     874:	10800317 	ldw	r2,12(r2)
     878:	01c02d44 	movi	r7,181
     87c:	018000b4 	movhi	r6,2
     880:	31a67504 	addi	r6,r6,-26156
     884:	014000b4 	movhi	r5,2
     888:	2966d004 	addi	r5,r5,-25792
     88c:	1009883a 	mov	r4,r2
     890:	0000d400 	call	d40 <fprintf>
          break;
     894:	00001d06 	br	90c <Task_read_PS2+0x430>
        case 62:
        case 117:
          debug("8 pressed");
     898:	d0a00117 	ldw	r2,-32764(gp)
     89c:	10800317 	ldw	r2,12(r2)
     8a0:	01c02e44 	movi	r7,185
     8a4:	018000b4 	movhi	r6,2
     8a8:	31a67504 	addi	r6,r6,-26156
     8ac:	014000b4 	movhi	r5,2
     8b0:	2966d604 	addi	r5,r5,-25768
     8b4:	1009883a 	mov	r4,r2
     8b8:	0000d400 	call	d40 <fprintf>
          break;
     8bc:	00001306 	br	90c <Task_read_PS2+0x430>
        case 70:
        case 125:
          debug("9 pressed");
     8c0:	d0a00117 	ldw	r2,-32764(gp)
     8c4:	10800317 	ldw	r2,12(r2)
     8c8:	01c02f44 	movi	r7,189
     8cc:	018000b4 	movhi	r6,2
     8d0:	31a67504 	addi	r6,r6,-26156
     8d4:	014000b4 	movhi	r5,2
     8d8:	2966dc04 	addi	r5,r5,-25744
     8dc:	1009883a 	mov	r4,r2
     8e0:	0000d400 	call	d40 <fprintf>
          break;
     8e4:	00000906 	br	90c <Task_read_PS2+0x430>
        default:
          debug("Nothing Pressed");
     8e8:	d0a00117 	ldw	r2,-32764(gp)
     8ec:	10800317 	ldw	r2,12(r2)
     8f0:	01c03004 	movi	r7,192
     8f4:	018000b4 	movhi	r6,2
     8f8:	31a67504 	addi	r6,r6,-26156
     8fc:	014000b4 	movhi	r5,2
     900:	2966e204 	addi	r5,r5,-25720
     904:	1009883a 	mov	r4,r2
     908:	0000d400 	call	d40 <fprintf>
        }
      }
    }

    OSSemPost(SEM_read_PS2);
     90c:	d0a7d917 	ldw	r2,-24732(gp)
     910:	1009883a 	mov	r4,r2
     914:	0013ac40 	call	13ac4 <OSSemPost>
    OSTimeDlyHMSM(0, 0, 100, 0);
     918:	000f883a 	mov	r7,zero
     91c:	01801904 	movi	r6,100
     920:	000b883a 	mov	r5,zero
     924:	0009883a 	mov	r4,zero
     928:	00156540 	call	15654 <OSTimeDlyHMSM>
  }
     92c:	003efe06 	br	528 <__alt_mem_VGA_Subsystem_Char_Buf_Subsystem_Onchip_SRAM+0xf7000528>

00000930 <Task_read_KEYs>:
}

/* Prints "Hello World" and sleeps for three seconds */
void Task_read_KEYs(void *pdata)
{
     930:	defffc04 	addi	sp,sp,-16
     934:	dfc00315 	stw	ra,12(sp)
     938:	df000215 	stw	fp,8(sp)
     93c:	df000204 	addi	fp,sp,8
     940:	e13fff15 	stw	r4,-4(fp)
  debug("Started: Task_read_KEYs");
     944:	d0a00117 	ldw	r2,-32764(gp)
     948:	10800317 	ldw	r2,12(r2)
     94c:	01c03344 	movi	r7,205
     950:	018000b4 	movhi	r6,2
     954:	31a67504 	addi	r6,r6,-26156
     958:	014000b4 	movhi	r5,2
     95c:	2966ea04 	addi	r5,r5,-25688
     960:	1009883a 	mov	r4,r2
     964:	0000d400 	call	d40 <fprintf>

  while (1)
  {
    OSSemPend(SEM_read_KEYS, 0, &err);
     968:	d0a7da17 	ldw	r2,-24728(gp)
     96c:	d1a7d504 	addi	r6,gp,-24748
     970:	000b883a 	mov	r5,zero
     974:	1009883a 	mov	r4,r2
     978:	001374c0 	call	1374c <OSSemPend>
    // log_info("%u: Hello from Task_read_KEYs", OSTime);
    Check_KEYs(0, &KEY1_flag, 0, 0);
     97c:	000f883a 	mov	r7,zero
     980:	000d883a 	mov	r6,zero
     984:	d167d404 	addi	r5,gp,-24752
     988:	0009883a 	mov	r4,zero
     98c:	00003640 	call	364 <Check_KEYs>

    /* Example of KEY1_flag usage */
    if (KEY1_flag)
     990:	d0a7d417 	ldw	r2,-24752(gp)
     994:	10000c26 	beq	r2,zero,9c8 <Task_read_KEYs+0x98>
    {
      debug("KEY1_flag: %d", KEY1_flag);
     998:	d0a00117 	ldw	r2,-32764(gp)
     99c:	10c00317 	ldw	r3,12(r2)
     9a0:	d0a7d417 	ldw	r2,-24752(gp)
     9a4:	d8800015 	stw	r2,0(sp)
     9a8:	01c03604 	movi	r7,216
     9ac:	018000b4 	movhi	r6,2
     9b0:	31a67504 	addi	r6,r6,-26156
     9b4:	014000b4 	movhi	r5,2
     9b8:	2966f404 	addi	r5,r5,-25648
     9bc:	1809883a 	mov	r4,r3
     9c0:	0000d400 	call	d40 <fprintf>
      KEY1_flag = 0;
     9c4:	d027d415 	stw	zero,-24752(gp)
    }

    OSSemPost(SEM_read_KEYS);
     9c8:	d0a7da17 	ldw	r2,-24728(gp)
     9cc:	1009883a 	mov	r4,r2
     9d0:	0013ac40 	call	13ac4 <OSSemPost>

    OSTimeDlyHMSM(0, 0, 0, 100);
     9d4:	01c01904 	movi	r7,100
     9d8:	000d883a 	mov	r6,zero
     9dc:	000b883a 	mov	r5,zero
     9e0:	0009883a 	mov	r4,zero
     9e4:	00156540 	call	15654 <OSTimeDlyHMSM>
  }
     9e8:	003fdf06 	br	968 <__alt_mem_VGA_Subsystem_Char_Buf_Subsystem_Onchip_SRAM+0xf7000968>

000009ec <Task_state_timer>:
}
/* Prints "Hello World" and sleeps for three seconds */
void Task_state_timer(void *pdata)
{
     9ec:	defff804 	addi	sp,sp,-32
     9f0:	dfc00715 	stw	ra,28(sp)
     9f4:	df000615 	stw	fp,24(sp)
     9f8:	dc400515 	stw	r17,20(sp)
     9fc:	dc000415 	stw	r16,16(sp)
     a00:	df000604 	addi	fp,sp,24
     a04:	e13ffd15 	stw	r4,-12(fp)
  debug("Started: Task_state_timer");
     a08:	d0a00117 	ldw	r2,-32764(gp)
     a0c:	10800317 	ldw	r2,12(r2)
     a10:	01c03904 	movi	r7,228
     a14:	018000b4 	movhi	r6,2
     a18:	31a67504 	addi	r6,r6,-26156
     a1c:	014000b4 	movhi	r5,2
     a20:	2966fb04 	addi	r5,r5,-25620
     a24:	1009883a 	mov	r4,r2
     a28:	0000d400 	call	d40 <fprintf>

  while (1)
  {
    log_info("%u: State: %s\t State Time: %ds", OSTime, Get_state_name(state), state_timer);
     a2c:	d0a00117 	ldw	r2,-32764(gp)
     a30:	14400317 	ldw	r17,12(r2)
     a34:	d427fa17 	ldw	r16,-24600(gp)
     a38:	d0a7d217 	ldw	r2,-24760(gp)
     a3c:	1009883a 	mov	r4,r2
     a40:	00002840 	call	284 <Get_state_name>
     a44:	1007883a 	mov	r3,r2
     a48:	d0a7d117 	ldw	r2,-24764(gp)
     a4c:	d8800215 	stw	r2,8(sp)
     a50:	d8c00115 	stw	r3,4(sp)
     a54:	dc000015 	stw	r16,0(sp)
     a58:	01c03a04 	movi	r7,232
     a5c:	018000b4 	movhi	r6,2
     a60:	31a67504 	addi	r6,r6,-26156
     a64:	014000b4 	movhi	r5,2
     a68:	29670504 	addi	r5,r5,-25580
     a6c:	8809883a 	mov	r4,r17
     a70:	0000d400 	call	d40 <fprintf>

    if (prev_state != state)
     a74:	d0e7cf17 	ldw	r3,-24772(gp)
     a78:	d0a7d217 	ldw	r2,-24760(gp)
     a7c:	18800b26 	beq	r3,r2,aac <Task_state_timer+0xc0>
    {

      OSSemPend(SEM_state_change, 0, &err);
     a80:	d0a7d617 	ldw	r2,-24744(gp)
     a84:	d1a7d504 	addi	r6,gp,-24748
     a88:	000b883a 	mov	r5,zero
     a8c:	1009883a 	mov	r4,r2
     a90:	001374c0 	call	1374c <OSSemPend>
      prev_state = state;
     a94:	d0a7d217 	ldw	r2,-24760(gp)
     a98:	d0a7cf15 	stw	r2,-24772(gp)
      state_timer = 0;
     a9c:	d027d115 	stw	zero,-24764(gp)
      OSSemPost(SEM_state_change);
     aa0:	d0a7d617 	ldw	r2,-24744(gp)
     aa4:	1009883a 	mov	r4,r2
     aa8:	0013ac40 	call	13ac4 <OSSemPost>
    }

    state_timer++;
     aac:	d0a7d117 	ldw	r2,-24764(gp)
     ab0:	10800044 	addi	r2,r2,1
     ab4:	d0a7d115 	stw	r2,-24764(gp)

    if (state == INIT && SW0_VALUE == 1)
     ab8:	d0a7d217 	ldw	r2,-24760(gp)
     abc:	1000101e 	bne	r2,zero,b00 <Task_state_timer+0x114>
     ac0:	00bfc834 	movhi	r2,65312
     ac4:	10801004 	addi	r2,r2,64
     ac8:	10800017 	ldw	r2,0(r2)
     acc:	1080004c 	andi	r2,r2,1
     ad0:	10000b26 	beq	r2,zero,b00 <Task_state_timer+0x114>
    {
      OSSemPend(SEM_state_change, 0, &err);
     ad4:	d0a7d617 	ldw	r2,-24744(gp)
     ad8:	d1a7d504 	addi	r6,gp,-24748
     adc:	000b883a 	mov	r5,zero
     ae0:	1009883a 	mov	r4,r2
     ae4:	001374c0 	call	1374c <OSSemPend>
      state = OPEN;
     ae8:	00800044 	movi	r2,1
     aec:	d0a7d215 	stw	r2,-24760(gp)
      state_timer = 0;
     af0:	d027d115 	stw	zero,-24764(gp)
      OSSemPost(SEM_state_change);
     af4:	d0a7d617 	ldw	r2,-24744(gp)
     af8:	1009883a 	mov	r4,r2
     afc:	0013ac40 	call	13ac4 <OSSemPost>
    }

    if (state == INIT && SW0_VALUE == 0)
     b00:	d0a7d217 	ldw	r2,-24760(gp)
     b04:	1000101e 	bne	r2,zero,b48 <Task_state_timer+0x15c>
     b08:	00bfc834 	movhi	r2,65312
     b0c:	10801004 	addi	r2,r2,64
     b10:	10800017 	ldw	r2,0(r2)
     b14:	1080004c 	andi	r2,r2,1
     b18:	10000b1e 	bne	r2,zero,b48 <Task_state_timer+0x15c>
    {
      OSSemPend(SEM_state_change, 0, &err);
     b1c:	d0a7d617 	ldw	r2,-24744(gp)
     b20:	d1a7d504 	addi	r6,gp,-24748
     b24:	000b883a 	mov	r5,zero
     b28:	1009883a 	mov	r4,r2
     b2c:	001374c0 	call	1374c <OSSemPend>
      state = CLOSE;
     b30:	00800084 	movi	r2,2
     b34:	d0a7d215 	stw	r2,-24760(gp)
      state_timer = 0;
     b38:	d027d115 	stw	zero,-24764(gp)
      OSSemPost(SEM_state_change);
     b3c:	d0a7d617 	ldw	r2,-24744(gp)
     b40:	1009883a 	mov	r4,r2
     b44:	0013ac40 	call	13ac4 <OSSemPost>
    }

    OSTimeDlyHMSM(0, 0, 1, 0);
     b48:	000f883a 	mov	r7,zero
     b4c:	01800044 	movi	r6,1
     b50:	000b883a 	mov	r5,zero
     b54:	0009883a 	mov	r4,zero
     b58:	00156540 	call	15654 <OSTimeDlyHMSM>
  }
     b5c:	003fb306 	br	a2c <__alt_mem_VGA_Subsystem_Char_Buf_Subsystem_Onchip_SRAM+0xf7000a2c>

00000b60 <main>:
}

/* The main function creates two task and starts multi-tasking */
int main(void)
{
     b60:	defff904 	addi	sp,sp,-28
     b64:	dfc00615 	stw	ra,24(sp)
     b68:	df000515 	stw	fp,20(sp)
     b6c:	df000504 	addi	fp,sp,20
  printf("MicroC/OS-II Licensing Terms\n");
     b70:	010000b4 	movhi	r4,2
     b74:	21271104 	addi	r4,r4,-25532
     b78:	0000e240 	call	e24 <puts>
  printf("============================\n");
     b7c:	010000b4 	movhi	r4,2
     b80:	21271904 	addi	r4,r4,-25500
     b84:	0000e240 	call	e24 <puts>
  printf("Micrium\'s uC/OS-II is a real-time operating system (RTOS) available in source code.\n");
     b88:	010000b4 	movhi	r4,2
     b8c:	21272104 	addi	r4,r4,-25468
     b90:	0000e240 	call	e24 <puts>
  printf("This is not open-source software.\n");
     b94:	010000b4 	movhi	r4,2
     b98:	21273604 	addi	r4,r4,-25384
     b9c:	0000e240 	call	e24 <puts>
  printf("This RTOS can be used free of charge only for non-commercial purposes and academic projects,\n");
     ba0:	010000b4 	movhi	r4,2
     ba4:	21273f04 	addi	r4,r4,-25348
     ba8:	0000e240 	call	e24 <puts>
  printf("any other use of the code is subject to the terms of an end-user license agreement\n");
     bac:	010000b4 	movhi	r4,2
     bb0:	21275704 	addi	r4,r4,-25252
     bb4:	0000e240 	call	e24 <puts>
  printf("for more information please see the license files included in the BSP project or contact Micrium.\n");
     bb8:	010000b4 	movhi	r4,2
     bbc:	21276c04 	addi	r4,r4,-25168
     bc0:	0000e240 	call	e24 <puts>
  printf("Anyone planning to use a Micrium RTOS in a commercial product must purchase a commercial license\n");
     bc4:	010000b4 	movhi	r4,2
     bc8:	21278504 	addi	r4,r4,-25068
     bcc:	0000e240 	call	e24 <puts>
  printf("from the owner of the software, Silicon Laboratories Inc.\n");
     bd0:	010000b4 	movhi	r4,2
     bd4:	21279e04 	addi	r4,r4,-24968
     bd8:	0000e240 	call	e24 <puts>
  printf("Licensing information is available at:\n");
     bdc:	010000b4 	movhi	r4,2
     be0:	2127ad04 	addi	r4,r4,-24908
     be4:	0000e240 	call	e24 <puts>
  printf("Phone: +1 954-217-2036\n");
     be8:	010000b4 	movhi	r4,2
     bec:	2127b704 	addi	r4,r4,-24868
     bf0:	0000e240 	call	e24 <puts>
  printf("Email: sales@micrium.com\n");
     bf4:	010000b4 	movhi	r4,2
     bf8:	2127bd04 	addi	r4,r4,-24844
     bfc:	0000e240 	call	e24 <puts>
  printf("URL: www.micrium.com\n\n\n");
     c00:	010000b4 	movhi	r4,2
     c04:	2127c404 	addi	r4,r4,-24816
     c08:	0000e240 	call	e24 <puts>

  KEY0_flag, KEY1_flag, KEY2_flag, KEY3_flag = 0, 0, 0, 0;
     c0c:	d027d715 	stw	zero,-24740(gp)

  /* Initialization Code */
  state = INIT;
     c10:	d027d215 	stw	zero,-24760(gp)
  state_timer = 0;
     c14:	d027d115 	stw	zero,-24764(gp)

  SEM_read_PS2 = OSSemCreate(1);
     c18:	01000044 	movi	r4,1
     c1c:	00134340 	call	13434 <OSSemCreate>
     c20:	d0a7d915 	stw	r2,-24732(gp)
  SEM_read_KEYS = OSSemCreate(1);
     c24:	01000044 	movi	r4,1
     c28:	00134340 	call	13434 <OSSemCreate>
     c2c:	d0a7da15 	stw	r2,-24728(gp)
  SEM_state_change = OSSemCreate(1);
     c30:	01000044 	movi	r4,1
     c34:	00134340 	call	13434 <OSSemCreate>
     c38:	d0a7d615 	stw	r2,-24744(gp)

  /* Task creation */
  OSTaskCreateExt(Task_read_KEYs,
     c3c:	d8000415 	stw	zero,16(sp)
     c40:	d8000315 	stw	zero,12(sp)
     c44:	00820004 	movi	r2,2048
     c48:	d8800215 	stw	r2,8(sp)
     c4c:	008000b4 	movhi	r2,2
     c50:	1080a104 	addi	r2,r2,644
     c54:	d8800115 	stw	r2,4(sp)
     c58:	00800044 	movi	r2,1
     c5c:	d8800015 	stw	r2,0(sp)
     c60:	01c00044 	movi	r7,1
     c64:	018000b4 	movhi	r6,2
     c68:	3188a004 	addi	r6,r6,8832
     c6c:	000b883a 	mov	r5,zero
     c70:	01000034 	movhi	r4,0
     c74:	21024c04 	addi	r4,r4,2352
     c78:	00144800 	call	14480 <OSTaskCreateExt>
                  task_read_keys_stk,
                  TASK_STACKSIZE,
                  NULL,
                  0);

  OSTaskCreateExt(Task_state_timer,
     c7c:	d8000415 	stw	zero,16(sp)
     c80:	d8000315 	stw	zero,12(sp)
     c84:	00820004 	movi	r2,2048
     c88:	d8800215 	stw	r2,8(sp)
     c8c:	008000b4 	movhi	r2,2
     c90:	1088a104 	addi	r2,r2,8836
     c94:	d8800115 	stw	r2,4(sp)
     c98:	00800084 	movi	r2,2
     c9c:	d8800015 	stw	r2,0(sp)
     ca0:	01c00084 	movi	r7,2
     ca4:	018000b4 	movhi	r6,2
     ca8:	3190a004 	addi	r6,r6,17024
     cac:	000b883a 	mov	r5,zero
     cb0:	01000034 	movhi	r4,0
     cb4:	21027b04 	addi	r4,r4,2540
     cb8:	00144800 	call	14480 <OSTaskCreateExt>
                  task2_stk,
                  TASK_STACKSIZE,
                  NULL,
                  0);

  OSTaskCreateExt(Task_read_PS2,
     cbc:	d8000415 	stw	zero,16(sp)
     cc0:	d8000315 	stw	zero,12(sp)
     cc4:	00820004 	movi	r2,2048
     cc8:	d8800215 	stw	r2,8(sp)
     ccc:	008000b4 	movhi	r2,2
     cd0:	10b8a104 	addi	r2,r2,-7548
     cd4:	d8800115 	stw	r2,4(sp)
     cd8:	00800104 	movi	r2,4
     cdc:	d8800015 	stw	r2,0(sp)
     ce0:	01c00104 	movi	r7,4
     ce4:	018000b4 	movhi	r6,2
     ce8:	3180a004 	addi	r6,r6,640
     cec:	000b883a 	mov	r5,zero
     cf0:	01000034 	movhi	r4,0
     cf4:	21013704 	addi	r4,r4,1244
     cf8:	00144800 	call	14480 <OSTaskCreateExt>
                  task_read_ps2_stk,
                  TASK_STACKSIZE,
                  NULL,
                  0);

  OSStart();
     cfc:	000edd80 	call	edd8 <OSStart>

  return 0;
     d00:	0005883a 	mov	r2,zero
}
     d04:	e037883a 	mov	sp,fp
     d08:	dfc00117 	ldw	ra,4(sp)
     d0c:	df000017 	ldw	fp,0(sp)
     d10:	dec00204 	addi	sp,sp,8
     d14:	f800283a 	ret

00000d18 <_fprintf_r>:
     d18:	defffe04 	addi	sp,sp,-8
     d1c:	2809883a 	mov	r4,r5
     d20:	300b883a 	mov	r5,r6
     d24:	dfc00015 	stw	ra,0(sp)
     d28:	d9c00115 	stw	r7,4(sp)
     d2c:	d9800104 	addi	r6,sp,4
     d30:	00030c80 	call	30c8 <__vfprintf_internal>
     d34:	dfc00017 	ldw	ra,0(sp)
     d38:	dec00204 	addi	sp,sp,8
     d3c:	f800283a 	ret

00000d40 <fprintf>:
     d40:	defffd04 	addi	sp,sp,-12
     d44:	dfc00015 	stw	ra,0(sp)
     d48:	d9800115 	stw	r6,4(sp)
     d4c:	d9c00215 	stw	r7,8(sp)
     d50:	d9800104 	addi	r6,sp,4
     d54:	00030c80 	call	30c8 <__vfprintf_internal>
     d58:	dfc00017 	ldw	ra,0(sp)
     d5c:	dec00304 	addi	sp,sp,12
     d60:	f800283a 	ret

00000d64 <_puts_r>:
     d64:	defff604 	addi	sp,sp,-40
     d68:	dc000715 	stw	r16,28(sp)
     d6c:	2021883a 	mov	r16,r4
     d70:	2809883a 	mov	r4,r5
     d74:	dc400815 	stw	r17,32(sp)
     d78:	dfc00915 	stw	ra,36(sp)
     d7c:	2823883a 	mov	r17,r5
     d80:	0000e380 	call	e38 <strlen>
     d84:	10c00044 	addi	r3,r2,1
     d88:	d8800115 	stw	r2,4(sp)
     d8c:	008000b4 	movhi	r2,2
     d90:	10a7cb04 	addi	r2,r2,-24788
     d94:	d8800215 	stw	r2,8(sp)
     d98:	00800044 	movi	r2,1
     d9c:	d8800315 	stw	r2,12(sp)
     da0:	00800084 	movi	r2,2
     da4:	dc400015 	stw	r17,0(sp)
     da8:	d8c00615 	stw	r3,24(sp)
     dac:	dec00415 	stw	sp,16(sp)
     db0:	d8800515 	stw	r2,20(sp)
     db4:	80000226 	beq	r16,zero,dc0 <_puts_r+0x5c>
     db8:	80800e17 	ldw	r2,56(r16)
     dbc:	10001426 	beq	r2,zero,e10 <_puts_r+0xac>
     dc0:	81400217 	ldw	r5,8(r16)
     dc4:	2880030b 	ldhu	r2,12(r5)
     dc8:	10c8000c 	andi	r3,r2,8192
     dcc:	1800061e 	bne	r3,zero,de8 <_puts_r+0x84>
     dd0:	29001917 	ldw	r4,100(r5)
     dd4:	00f7ffc4 	movi	r3,-8193
     dd8:	10880014 	ori	r2,r2,8192
     ddc:	20c6703a 	and	r3,r4,r3
     de0:	2880030d 	sth	r2,12(r5)
     de4:	28c01915 	stw	r3,100(r5)
     de8:	d9800404 	addi	r6,sp,16
     dec:	8009883a 	mov	r4,r16
     df0:	00055f80 	call	55f8 <__sfvwrite_r>
     df4:	1000091e 	bne	r2,zero,e1c <_puts_r+0xb8>
     df8:	00800284 	movi	r2,10
     dfc:	dfc00917 	ldw	ra,36(sp)
     e00:	dc400817 	ldw	r17,32(sp)
     e04:	dc000717 	ldw	r16,28(sp)
     e08:	dec00a04 	addi	sp,sp,40
     e0c:	f800283a 	ret
     e10:	8009883a 	mov	r4,r16
     e14:	00051740 	call	5174 <__sinit>
     e18:	003fe906 	br	dc0 <__alt_mem_VGA_Subsystem_Char_Buf_Subsystem_Onchip_SRAM+0xf7000dc0>
     e1c:	00bfffc4 	movi	r2,-1
     e20:	003ff606 	br	dfc <__alt_mem_VGA_Subsystem_Char_Buf_Subsystem_Onchip_SRAM+0xf7000dfc>

00000e24 <puts>:
     e24:	008000b4 	movhi	r2,2
     e28:	10b09604 	addi	r2,r2,-15784
     e2c:	200b883a 	mov	r5,r4
     e30:	11000017 	ldw	r4,0(r2)
     e34:	0000d641 	jmpi	d64 <_puts_r>

00000e38 <strlen>:
     e38:	208000cc 	andi	r2,r4,3
     e3c:	10002026 	beq	r2,zero,ec0 <strlen+0x88>
     e40:	20800007 	ldb	r2,0(r4)
     e44:	10002026 	beq	r2,zero,ec8 <strlen+0x90>
     e48:	2005883a 	mov	r2,r4
     e4c:	00000206 	br	e58 <strlen+0x20>
     e50:	10c00007 	ldb	r3,0(r2)
     e54:	18001826 	beq	r3,zero,eb8 <strlen+0x80>
     e58:	10800044 	addi	r2,r2,1
     e5c:	10c000cc 	andi	r3,r2,3
     e60:	183ffb1e 	bne	r3,zero,e50 <__alt_mem_VGA_Subsystem_Char_Buf_Subsystem_Onchip_SRAM+0xf7000e50>
     e64:	10c00017 	ldw	r3,0(r2)
     e68:	01ffbff4 	movhi	r7,65279
     e6c:	39ffbfc4 	addi	r7,r7,-257
     e70:	00ca303a 	nor	r5,zero,r3
     e74:	01a02074 	movhi	r6,32897
     e78:	19c7883a 	add	r3,r3,r7
     e7c:	31a02004 	addi	r6,r6,-32640
     e80:	1946703a 	and	r3,r3,r5
     e84:	1986703a 	and	r3,r3,r6
     e88:	1800091e 	bne	r3,zero,eb0 <strlen+0x78>
     e8c:	10800104 	addi	r2,r2,4
     e90:	10c00017 	ldw	r3,0(r2)
     e94:	19cb883a 	add	r5,r3,r7
     e98:	00c6303a 	nor	r3,zero,r3
     e9c:	28c6703a 	and	r3,r5,r3
     ea0:	1986703a 	and	r3,r3,r6
     ea4:	183ff926 	beq	r3,zero,e8c <__alt_mem_VGA_Subsystem_Char_Buf_Subsystem_Onchip_SRAM+0xf7000e8c>
     ea8:	00000106 	br	eb0 <strlen+0x78>
     eac:	10800044 	addi	r2,r2,1
     eb0:	10c00007 	ldb	r3,0(r2)
     eb4:	183ffd1e 	bne	r3,zero,eac <__alt_mem_VGA_Subsystem_Char_Buf_Subsystem_Onchip_SRAM+0xf7000eac>
     eb8:	1105c83a 	sub	r2,r2,r4
     ebc:	f800283a 	ret
     ec0:	2005883a 	mov	r2,r4
     ec4:	003fe706 	br	e64 <__alt_mem_VGA_Subsystem_Char_Buf_Subsystem_Onchip_SRAM+0xf7000e64>
     ec8:	0005883a 	mov	r2,zero
     ecc:	f800283a 	ret

00000ed0 <___vfprintf_internal_r>:
     ed0:	deffb804 	addi	sp,sp,-288
     ed4:	dfc04715 	stw	ra,284(sp)
     ed8:	ddc04515 	stw	r23,276(sp)
     edc:	dd404315 	stw	r21,268(sp)
     ee0:	d9002c15 	stw	r4,176(sp)
     ee4:	282f883a 	mov	r23,r5
     ee8:	302b883a 	mov	r21,r6
     eec:	d9c02d15 	stw	r7,180(sp)
     ef0:	df004615 	stw	fp,280(sp)
     ef4:	dd804415 	stw	r22,272(sp)
     ef8:	dd004215 	stw	r20,264(sp)
     efc:	dcc04115 	stw	r19,260(sp)
     f00:	dc804015 	stw	r18,256(sp)
     f04:	dc403f15 	stw	r17,252(sp)
     f08:	dc003e15 	stw	r16,248(sp)
     f0c:	0005ce80 	call	5ce8 <_localeconv_r>
     f10:	10800017 	ldw	r2,0(r2)
     f14:	1009883a 	mov	r4,r2
     f18:	d8803415 	stw	r2,208(sp)
     f1c:	0000e380 	call	e38 <strlen>
     f20:	d8803715 	stw	r2,220(sp)
     f24:	d8802c17 	ldw	r2,176(sp)
     f28:	10000226 	beq	r2,zero,f34 <___vfprintf_internal_r+0x64>
     f2c:	10800e17 	ldw	r2,56(r2)
     f30:	1000f926 	beq	r2,zero,1318 <___vfprintf_internal_r+0x448>
     f34:	b880030b 	ldhu	r2,12(r23)
     f38:	10c8000c 	andi	r3,r2,8192
     f3c:	1800061e 	bne	r3,zero,f58 <___vfprintf_internal_r+0x88>
     f40:	b9001917 	ldw	r4,100(r23)
     f44:	00f7ffc4 	movi	r3,-8193
     f48:	10880014 	ori	r2,r2,8192
     f4c:	20c6703a 	and	r3,r4,r3
     f50:	b880030d 	sth	r2,12(r23)
     f54:	b8c01915 	stw	r3,100(r23)
     f58:	10c0020c 	andi	r3,r2,8
     f5c:	1800c126 	beq	r3,zero,1264 <___vfprintf_internal_r+0x394>
     f60:	b8c00417 	ldw	r3,16(r23)
     f64:	1800bf26 	beq	r3,zero,1264 <___vfprintf_internal_r+0x394>
     f68:	1080068c 	andi	r2,r2,26
     f6c:	00c00284 	movi	r3,10
     f70:	10c0c426 	beq	r2,r3,1284 <___vfprintf_internal_r+0x3b4>
     f74:	d8c00404 	addi	r3,sp,16
     f78:	050000b4 	movhi	r20,2
     f7c:	d9001e04 	addi	r4,sp,120
     f80:	a527dc84 	addi	r20,r20,-24718
     f84:	d8c01e15 	stw	r3,120(sp)
     f88:	d8002015 	stw	zero,128(sp)
     f8c:	d8001f15 	stw	zero,124(sp)
     f90:	d8003315 	stw	zero,204(sp)
     f94:	d8003615 	stw	zero,216(sp)
     f98:	d8003815 	stw	zero,224(sp)
     f9c:	1811883a 	mov	r8,r3
     fa0:	d8003915 	stw	zero,228(sp)
     fa4:	d8003a15 	stw	zero,232(sp)
     fa8:	d8002f15 	stw	zero,188(sp)
     fac:	d9002815 	stw	r4,160(sp)
     fb0:	a8800007 	ldb	r2,0(r21)
     fb4:	10027b26 	beq	r2,zero,19a4 <___vfprintf_internal_r+0xad4>
     fb8:	00c00944 	movi	r3,37
     fbc:	a821883a 	mov	r16,r21
     fc0:	10c0021e 	bne	r2,r3,fcc <___vfprintf_internal_r+0xfc>
     fc4:	00001406 	br	1018 <___vfprintf_internal_r+0x148>
     fc8:	10c00326 	beq	r2,r3,fd8 <___vfprintf_internal_r+0x108>
     fcc:	84000044 	addi	r16,r16,1
     fd0:	80800007 	ldb	r2,0(r16)
     fd4:	103ffc1e 	bne	r2,zero,fc8 <__alt_mem_VGA_Subsystem_Char_Buf_Subsystem_Onchip_SRAM+0xf7000fc8>
     fd8:	8563c83a 	sub	r17,r16,r21
     fdc:	88000e26 	beq	r17,zero,1018 <___vfprintf_internal_r+0x148>
     fe0:	d8c02017 	ldw	r3,128(sp)
     fe4:	d8801f17 	ldw	r2,124(sp)
     fe8:	45400015 	stw	r21,0(r8)
     fec:	1c47883a 	add	r3,r3,r17
     ff0:	10800044 	addi	r2,r2,1
     ff4:	d8c02015 	stw	r3,128(sp)
     ff8:	44400115 	stw	r17,4(r8)
     ffc:	d8801f15 	stw	r2,124(sp)
    1000:	00c001c4 	movi	r3,7
    1004:	1880a716 	blt	r3,r2,12a4 <___vfprintf_internal_r+0x3d4>
    1008:	42000204 	addi	r8,r8,8
    100c:	d9402f17 	ldw	r5,188(sp)
    1010:	2c4b883a 	add	r5,r5,r17
    1014:	d9402f15 	stw	r5,188(sp)
    1018:	80800007 	ldb	r2,0(r16)
    101c:	1000a826 	beq	r2,zero,12c0 <___vfprintf_internal_r+0x3f0>
    1020:	84400047 	ldb	r17,1(r16)
    1024:	00bfffc4 	movi	r2,-1
    1028:	85400044 	addi	r21,r16,1
    102c:	d8002785 	stb	zero,158(sp)
    1030:	0007883a 	mov	r3,zero
    1034:	000f883a 	mov	r7,zero
    1038:	d8802915 	stw	r2,164(sp)
    103c:	d8003115 	stw	zero,196(sp)
    1040:	0025883a 	mov	r18,zero
    1044:	01401604 	movi	r5,88
    1048:	01800244 	movi	r6,9
    104c:	02800a84 	movi	r10,42
    1050:	02401b04 	movi	r9,108
    1054:	ad400044 	addi	r21,r21,1
    1058:	88bff804 	addi	r2,r17,-32
    105c:	28830436 	bltu	r5,r2,1c70 <___vfprintf_internal_r+0xda0>
    1060:	100490ba 	slli	r2,r2,2
    1064:	01000034 	movhi	r4,0
    1068:	21041e04 	addi	r4,r4,4216
    106c:	1105883a 	add	r2,r2,r4
    1070:	10800017 	ldw	r2,0(r2)
    1074:	1000683a 	jmp	r2
    1078:	00001b90 	cmplti	zero,zero,110
    107c:	00001c70 	cmpltui	zero,zero,113
    1080:	00001c70 	cmpltui	zero,zero,113
    1084:	00001bb0 	cmpltui	zero,zero,110
    1088:	00001c70 	cmpltui	zero,zero,113
    108c:	00001c70 	cmpltui	zero,zero,113
    1090:	00001c70 	cmpltui	zero,zero,113
    1094:	00001c70 	cmpltui	zero,zero,113
    1098:	00001c70 	cmpltui	zero,zero,113
    109c:	00001c70 	cmpltui	zero,zero,113
    10a0:	00001324 	muli	zero,zero,76
    10a4:	00001acc 	andi	zero,zero,107
    10a8:	00001c70 	cmpltui	zero,zero,113
    10ac:	000011ec 	andhi	zero,zero,71
    10b0:	0000134c 	andi	zero,zero,77
    10b4:	00001c70 	cmpltui	zero,zero,113
    10b8:	0000138c 	andi	zero,zero,78
    10bc:	00001398 	cmpnei	zero,zero,78
    10c0:	00001398 	cmpnei	zero,zero,78
    10c4:	00001398 	cmpnei	zero,zero,78
    10c8:	00001398 	cmpnei	zero,zero,78
    10cc:	00001398 	cmpnei	zero,zero,78
    10d0:	00001398 	cmpnei	zero,zero,78
    10d4:	00001398 	cmpnei	zero,zero,78
    10d8:	00001398 	cmpnei	zero,zero,78
    10dc:	00001398 	cmpnei	zero,zero,78
    10e0:	00001c70 	cmpltui	zero,zero,113
    10e4:	00001c70 	cmpltui	zero,zero,113
    10e8:	00001c70 	cmpltui	zero,zero,113
    10ec:	00001c70 	cmpltui	zero,zero,113
    10f0:	00001c70 	cmpltui	zero,zero,113
    10f4:	00001c70 	cmpltui	zero,zero,113
    10f8:	00001c70 	cmpltui	zero,zero,113
    10fc:	00001c70 	cmpltui	zero,zero,113
    1100:	00001c70 	cmpltui	zero,zero,113
    1104:	00001c70 	cmpltui	zero,zero,113
    1108:	000013cc 	andi	zero,zero,79
    110c:	00001488 	cmpgei	zero,zero,82
    1110:	00001c70 	cmpltui	zero,zero,113
    1114:	00001488 	cmpgei	zero,zero,82
    1118:	00001c70 	cmpltui	zero,zero,113
    111c:	00001c70 	cmpltui	zero,zero,113
    1120:	00001c70 	cmpltui	zero,zero,113
    1124:	00001c70 	cmpltui	zero,zero,113
    1128:	00001528 	cmpgeui	zero,zero,84
    112c:	00001c70 	cmpltui	zero,zero,113
    1130:	00001c70 	cmpltui	zero,zero,113
    1134:	00001534 	movhi	zero,84
    1138:	00001c70 	cmpltui	zero,zero,113
    113c:	00001c70 	cmpltui	zero,zero,113
    1140:	00001c70 	cmpltui	zero,zero,113
    1144:	00001c70 	cmpltui	zero,zero,113
    1148:	00001c70 	cmpltui	zero,zero,113
    114c:	000019ac 	andhi	zero,zero,102
    1150:	00001c70 	cmpltui	zero,zero,113
    1154:	00001c70 	cmpltui	zero,zero,113
    1158:	00001a0c 	andi	zero,zero,104
    115c:	00001c70 	cmpltui	zero,zero,113
    1160:	00001c70 	cmpltui	zero,zero,113
    1164:	00001c70 	cmpltui	zero,zero,113
    1168:	00001c70 	cmpltui	zero,zero,113
    116c:	00001c70 	cmpltui	zero,zero,113
    1170:	00001c70 	cmpltui	zero,zero,113
    1174:	00001c70 	cmpltui	zero,zero,113
    1178:	00001c70 	cmpltui	zero,zero,113
    117c:	00001c70 	cmpltui	zero,zero,113
    1180:	00001c70 	cmpltui	zero,zero,113
    1184:	00001c1c 	xori	zero,zero,112
    1188:	00001bbc 	xorhi	zero,zero,110
    118c:	00001488 	cmpgei	zero,zero,82
    1190:	00001488 	cmpgei	zero,zero,82
    1194:	00001488 	cmpgei	zero,zero,82
    1198:	00001bcc 	andi	zero,zero,111
    119c:	00001bbc 	xorhi	zero,zero,110
    11a0:	00001c70 	cmpltui	zero,zero,113
    11a4:	00001c70 	cmpltui	zero,zero,113
    11a8:	00001bd8 	cmpnei	zero,zero,111
    11ac:	00001c70 	cmpltui	zero,zero,113
    11b0:	00001be8 	cmpgeui	zero,zero,111
    11b4:	00001abc 	xorhi	zero,zero,106
    11b8:	000011f8 	rdprs	zero,zero,71
    11bc:	00001adc 	xori	zero,zero,107
    11c0:	00001c70 	cmpltui	zero,zero,113
    11c4:	00001ae8 	cmpgeui	zero,zero,107
    11c8:	00001c70 	cmpltui	zero,zero,113
    11cc:	00001b44 	movi	zero,109
    11d0:	00001c70 	cmpltui	zero,zero,113
    11d4:	00001c70 	cmpltui	zero,zero,113
    11d8:	00001b54 	movui	zero,109
    11dc:	d9003117 	ldw	r4,196(sp)
    11e0:	d8802d15 	stw	r2,180(sp)
    11e4:	0109c83a 	sub	r4,zero,r4
    11e8:	d9003115 	stw	r4,196(sp)
    11ec:	94800114 	ori	r18,r18,4
    11f0:	ac400007 	ldb	r17,0(r21)
    11f4:	003f9706 	br	1054 <__alt_mem_VGA_Subsystem_Char_Buf_Subsystem_Onchip_SRAM+0xf7001054>
    11f8:	00800c04 	movi	r2,48
    11fc:	d9002d17 	ldw	r4,180(sp)
    1200:	d9402917 	ldw	r5,164(sp)
    1204:	d8802705 	stb	r2,156(sp)
    1208:	00801e04 	movi	r2,120
    120c:	d8802745 	stb	r2,157(sp)
    1210:	d8002785 	stb	zero,158(sp)
    1214:	20c00104 	addi	r3,r4,4
    1218:	24c00017 	ldw	r19,0(r4)
    121c:	002d883a 	mov	r22,zero
    1220:	90800094 	ori	r2,r18,2
    1224:	28029a16 	blt	r5,zero,1c90 <___vfprintf_internal_r+0xdc0>
    1228:	00bfdfc4 	movi	r2,-129
    122c:	90a4703a 	and	r18,r18,r2
    1230:	d8c02d15 	stw	r3,180(sp)
    1234:	94800094 	ori	r18,r18,2
    1238:	9802871e 	bne	r19,zero,1c58 <___vfprintf_internal_r+0xd88>
    123c:	008000b4 	movhi	r2,2
    1240:	10a7d504 	addi	r2,r2,-24748
    1244:	d8803915 	stw	r2,228(sp)
    1248:	04401e04 	movi	r17,120
    124c:	d8802917 	ldw	r2,164(sp)
    1250:	0039883a 	mov	fp,zero
    1254:	1001e926 	beq	r2,zero,19fc <___vfprintf_internal_r+0xb2c>
    1258:	0027883a 	mov	r19,zero
    125c:	002d883a 	mov	r22,zero
    1260:	00020506 	br	1a78 <___vfprintf_internal_r+0xba8>
    1264:	d9002c17 	ldw	r4,176(sp)
    1268:	b80b883a 	mov	r5,r23
    126c:	00031a00 	call	31a0 <__swsetup_r>
    1270:	1005ac1e 	bne	r2,zero,2924 <___vfprintf_internal_r+0x1a54>
    1274:	b880030b 	ldhu	r2,12(r23)
    1278:	00c00284 	movi	r3,10
    127c:	1080068c 	andi	r2,r2,26
    1280:	10ff3c1e 	bne	r2,r3,f74 <__alt_mem_VGA_Subsystem_Char_Buf_Subsystem_Onchip_SRAM+0xf7000f74>
    1284:	b880038f 	ldh	r2,14(r23)
    1288:	103f3a16 	blt	r2,zero,f74 <__alt_mem_VGA_Subsystem_Char_Buf_Subsystem_Onchip_SRAM+0xf7000f74>
    128c:	d9c02d17 	ldw	r7,180(sp)
    1290:	d9002c17 	ldw	r4,176(sp)
    1294:	a80d883a 	mov	r6,r21
    1298:	b80b883a 	mov	r5,r23
    129c:	00030e40 	call	30e4 <__sbprintf>
    12a0:	00001106 	br	12e8 <___vfprintf_internal_r+0x418>
    12a4:	d9002c17 	ldw	r4,176(sp)
    12a8:	d9801e04 	addi	r6,sp,120
    12ac:	b80b883a 	mov	r5,r23
    12b0:	00084cc0 	call	84cc <__sprint_r>
    12b4:	1000081e 	bne	r2,zero,12d8 <___vfprintf_internal_r+0x408>
    12b8:	da000404 	addi	r8,sp,16
    12bc:	003f5306 	br	100c <__alt_mem_VGA_Subsystem_Char_Buf_Subsystem_Onchip_SRAM+0xf700100c>
    12c0:	d8802017 	ldw	r2,128(sp)
    12c4:	10000426 	beq	r2,zero,12d8 <___vfprintf_internal_r+0x408>
    12c8:	d9002c17 	ldw	r4,176(sp)
    12cc:	d9801e04 	addi	r6,sp,120
    12d0:	b80b883a 	mov	r5,r23
    12d4:	00084cc0 	call	84cc <__sprint_r>
    12d8:	b880030b 	ldhu	r2,12(r23)
    12dc:	1080100c 	andi	r2,r2,64
    12e0:	1005901e 	bne	r2,zero,2924 <___vfprintf_internal_r+0x1a54>
    12e4:	d8802f17 	ldw	r2,188(sp)
    12e8:	dfc04717 	ldw	ra,284(sp)
    12ec:	df004617 	ldw	fp,280(sp)
    12f0:	ddc04517 	ldw	r23,276(sp)
    12f4:	dd804417 	ldw	r22,272(sp)
    12f8:	dd404317 	ldw	r21,268(sp)
    12fc:	dd004217 	ldw	r20,264(sp)
    1300:	dcc04117 	ldw	r19,260(sp)
    1304:	dc804017 	ldw	r18,256(sp)
    1308:	dc403f17 	ldw	r17,252(sp)
    130c:	dc003e17 	ldw	r16,248(sp)
    1310:	dec04804 	addi	sp,sp,288
    1314:	f800283a 	ret
    1318:	d9002c17 	ldw	r4,176(sp)
    131c:	00051740 	call	5174 <__sinit>
    1320:	003f0406 	br	f34 <__alt_mem_VGA_Subsystem_Char_Buf_Subsystem_Onchip_SRAM+0xf7000f34>
    1324:	d8802d17 	ldw	r2,180(sp)
    1328:	d9002d17 	ldw	r4,180(sp)
    132c:	10800017 	ldw	r2,0(r2)
    1330:	d8803115 	stw	r2,196(sp)
    1334:	20800104 	addi	r2,r4,4
    1338:	d9003117 	ldw	r4,196(sp)
    133c:	203fa716 	blt	r4,zero,11dc <__alt_mem_VGA_Subsystem_Char_Buf_Subsystem_Onchip_SRAM+0xf70011dc>
    1340:	d8802d15 	stw	r2,180(sp)
    1344:	ac400007 	ldb	r17,0(r21)
    1348:	003f4206 	br	1054 <__alt_mem_VGA_Subsystem_Char_Buf_Subsystem_Onchip_SRAM+0xf7001054>
    134c:	ac400007 	ldb	r17,0(r21)
    1350:	aac00044 	addi	r11,r21,1
    1354:	8a872826 	beq	r17,r10,2ff8 <___vfprintf_internal_r+0x2128>
    1358:	88bff404 	addi	r2,r17,-48
    135c:	0009883a 	mov	r4,zero
    1360:	30867d36 	bltu	r6,r2,2d58 <___vfprintf_internal_r+0x1e88>
    1364:	5c400007 	ldb	r17,0(r11)
    1368:	210002a4 	muli	r4,r4,10
    136c:	5d400044 	addi	r21,r11,1
    1370:	a817883a 	mov	r11,r21
    1374:	2089883a 	add	r4,r4,r2
    1378:	88bff404 	addi	r2,r17,-48
    137c:	30bff92e 	bgeu	r6,r2,1364 <__alt_mem_VGA_Subsystem_Char_Buf_Subsystem_Onchip_SRAM+0xf7001364>
    1380:	2005c916 	blt	r4,zero,2aa8 <___vfprintf_internal_r+0x1bd8>
    1384:	d9002915 	stw	r4,164(sp)
    1388:	003f3306 	br	1058 <__alt_mem_VGA_Subsystem_Char_Buf_Subsystem_Onchip_SRAM+0xf7001058>
    138c:	94802014 	ori	r18,r18,128
    1390:	ac400007 	ldb	r17,0(r21)
    1394:	003f2f06 	br	1054 <__alt_mem_VGA_Subsystem_Char_Buf_Subsystem_Onchip_SRAM+0xf7001054>
    1398:	a809883a 	mov	r4,r21
    139c:	d8003115 	stw	zero,196(sp)
    13a0:	88bff404 	addi	r2,r17,-48
    13a4:	0017883a 	mov	r11,zero
    13a8:	24400007 	ldb	r17,0(r4)
    13ac:	5ac002a4 	muli	r11,r11,10
    13b0:	ad400044 	addi	r21,r21,1
    13b4:	a809883a 	mov	r4,r21
    13b8:	12d7883a 	add	r11,r2,r11
    13bc:	88bff404 	addi	r2,r17,-48
    13c0:	30bff92e 	bgeu	r6,r2,13a8 <__alt_mem_VGA_Subsystem_Char_Buf_Subsystem_Onchip_SRAM+0xf70013a8>
    13c4:	dac03115 	stw	r11,196(sp)
    13c8:	003f2306 	br	1058 <__alt_mem_VGA_Subsystem_Char_Buf_Subsystem_Onchip_SRAM+0xf7001058>
    13cc:	18c03fcc 	andi	r3,r3,255
    13d0:	18072b1e 	bne	r3,zero,3080 <___vfprintf_internal_r+0x21b0>
    13d4:	94800414 	ori	r18,r18,16
    13d8:	9080080c 	andi	r2,r18,32
    13dc:	10037b26 	beq	r2,zero,21cc <___vfprintf_internal_r+0x12fc>
    13e0:	d9402d17 	ldw	r5,180(sp)
    13e4:	28800117 	ldw	r2,4(r5)
    13e8:	2cc00017 	ldw	r19,0(r5)
    13ec:	29400204 	addi	r5,r5,8
    13f0:	d9402d15 	stw	r5,180(sp)
    13f4:	102d883a 	mov	r22,r2
    13f8:	10044b16 	blt	r2,zero,2528 <___vfprintf_internal_r+0x1658>
    13fc:	d9402917 	ldw	r5,164(sp)
    1400:	df002783 	ldbu	fp,158(sp)
    1404:	2803bc16 	blt	r5,zero,22f8 <___vfprintf_internal_r+0x1428>
    1408:	00ffdfc4 	movi	r3,-129
    140c:	9d84b03a 	or	r2,r19,r22
    1410:	90e4703a 	and	r18,r18,r3
    1414:	10017726 	beq	r2,zero,19f4 <___vfprintf_internal_r+0xb24>
    1418:	b0038326 	beq	r22,zero,2228 <___vfprintf_internal_r+0x1358>
    141c:	dc402a15 	stw	r17,168(sp)
    1420:	dc001e04 	addi	r16,sp,120
    1424:	b023883a 	mov	r17,r22
    1428:	402d883a 	mov	r22,r8
    142c:	9809883a 	mov	r4,r19
    1430:	880b883a 	mov	r5,r17
    1434:	01800284 	movi	r6,10
    1438:	000f883a 	mov	r7,zero
    143c:	000a8c40 	call	a8c4 <__umoddi3>
    1440:	10800c04 	addi	r2,r2,48
    1444:	843fffc4 	addi	r16,r16,-1
    1448:	9809883a 	mov	r4,r19
    144c:	880b883a 	mov	r5,r17
    1450:	80800005 	stb	r2,0(r16)
    1454:	01800284 	movi	r6,10
    1458:	000f883a 	mov	r7,zero
    145c:	000a34c0 	call	a34c <__udivdi3>
    1460:	1027883a 	mov	r19,r2
    1464:	10c4b03a 	or	r2,r2,r3
    1468:	1823883a 	mov	r17,r3
    146c:	103fef1e 	bne	r2,zero,142c <__alt_mem_VGA_Subsystem_Char_Buf_Subsystem_Onchip_SRAM+0xf700142c>
    1470:	d8c02817 	ldw	r3,160(sp)
    1474:	dc402a17 	ldw	r17,168(sp)
    1478:	b011883a 	mov	r8,r22
    147c:	1c07c83a 	sub	r3,r3,r16
    1480:	d8c02e15 	stw	r3,184(sp)
    1484:	00005906 	br	15ec <___vfprintf_internal_r+0x71c>
    1488:	18c03fcc 	andi	r3,r3,255
    148c:	1806fa1e 	bne	r3,zero,3078 <___vfprintf_internal_r+0x21a8>
    1490:	9080020c 	andi	r2,r18,8
    1494:	10048a26 	beq	r2,zero,26c0 <___vfprintf_internal_r+0x17f0>
    1498:	d8c02d17 	ldw	r3,180(sp)
    149c:	d9002d17 	ldw	r4,180(sp)
    14a0:	d9402d17 	ldw	r5,180(sp)
    14a4:	18c00017 	ldw	r3,0(r3)
    14a8:	21000117 	ldw	r4,4(r4)
    14ac:	29400204 	addi	r5,r5,8
    14b0:	d8c03615 	stw	r3,216(sp)
    14b4:	d9003815 	stw	r4,224(sp)
    14b8:	d9402d15 	stw	r5,180(sp)
    14bc:	d9003617 	ldw	r4,216(sp)
    14c0:	d9403817 	ldw	r5,224(sp)
    14c4:	da003d15 	stw	r8,244(sp)
    14c8:	04000044 	movi	r16,1
    14cc:	00080f00 	call	80f0 <__fpclassifyd>
    14d0:	da003d17 	ldw	r8,244(sp)
    14d4:	14041f1e 	bne	r2,r16,2554 <___vfprintf_internal_r+0x1684>
    14d8:	d9003617 	ldw	r4,216(sp)
    14dc:	d9403817 	ldw	r5,224(sp)
    14e0:	000d883a 	mov	r6,zero
    14e4:	000f883a 	mov	r7,zero
    14e8:	000c2a80 	call	c2a8 <__ledf2>
    14ec:	da003d17 	ldw	r8,244(sp)
    14f0:	1005be16 	blt	r2,zero,2bec <___vfprintf_internal_r+0x1d1c>
    14f4:	df002783 	ldbu	fp,158(sp)
    14f8:	008011c4 	movi	r2,71
    14fc:	1445330e 	bge	r2,r17,29cc <___vfprintf_internal_r+0x1afc>
    1500:	040000b4 	movhi	r16,2
    1504:	8427cd04 	addi	r16,r16,-24780
    1508:	00c000c4 	movi	r3,3
    150c:	00bfdfc4 	movi	r2,-129
    1510:	d8c02a15 	stw	r3,168(sp)
    1514:	90a4703a 	and	r18,r18,r2
    1518:	d8c02e15 	stw	r3,184(sp)
    151c:	d8002915 	stw	zero,164(sp)
    1520:	d8003215 	stw	zero,200(sp)
    1524:	00003706 	br	1604 <___vfprintf_internal_r+0x734>
    1528:	94800214 	ori	r18,r18,8
    152c:	ac400007 	ldb	r17,0(r21)
    1530:	003ec806 	br	1054 <__alt_mem_VGA_Subsystem_Char_Buf_Subsystem_Onchip_SRAM+0xf7001054>
    1534:	18c03fcc 	andi	r3,r3,255
    1538:	1806db1e 	bne	r3,zero,30a8 <___vfprintf_internal_r+0x21d8>
    153c:	94800414 	ori	r18,r18,16
    1540:	9080080c 	andi	r2,r18,32
    1544:	1002d826 	beq	r2,zero,20a8 <___vfprintf_internal_r+0x11d8>
    1548:	d9402d17 	ldw	r5,180(sp)
    154c:	d8c02917 	ldw	r3,164(sp)
    1550:	d8002785 	stb	zero,158(sp)
    1554:	28800204 	addi	r2,r5,8
    1558:	2cc00017 	ldw	r19,0(r5)
    155c:	2d800117 	ldw	r22,4(r5)
    1560:	18048f16 	blt	r3,zero,27a0 <___vfprintf_internal_r+0x18d0>
    1564:	013fdfc4 	movi	r4,-129
    1568:	9d86b03a 	or	r3,r19,r22
    156c:	d8802d15 	stw	r2,180(sp)
    1570:	9124703a 	and	r18,r18,r4
    1574:	1802d91e 	bne	r3,zero,20dc <___vfprintf_internal_r+0x120c>
    1578:	d8c02917 	ldw	r3,164(sp)
    157c:	0039883a 	mov	fp,zero
    1580:	1805c326 	beq	r3,zero,2c90 <___vfprintf_internal_r+0x1dc0>
    1584:	0027883a 	mov	r19,zero
    1588:	002d883a 	mov	r22,zero
    158c:	dc001e04 	addi	r16,sp,120
    1590:	9806d0fa 	srli	r3,r19,3
    1594:	b008977a 	slli	r4,r22,29
    1598:	b02cd0fa 	srli	r22,r22,3
    159c:	9cc001cc 	andi	r19,r19,7
    15a0:	98800c04 	addi	r2,r19,48
    15a4:	843fffc4 	addi	r16,r16,-1
    15a8:	20e6b03a 	or	r19,r4,r3
    15ac:	80800005 	stb	r2,0(r16)
    15b0:	9d86b03a 	or	r3,r19,r22
    15b4:	183ff61e 	bne	r3,zero,1590 <__alt_mem_VGA_Subsystem_Char_Buf_Subsystem_Onchip_SRAM+0xf7001590>
    15b8:	90c0004c 	andi	r3,r18,1
    15bc:	18013b26 	beq	r3,zero,1aac <___vfprintf_internal_r+0xbdc>
    15c0:	10803fcc 	andi	r2,r2,255
    15c4:	1080201c 	xori	r2,r2,128
    15c8:	10bfe004 	addi	r2,r2,-128
    15cc:	00c00c04 	movi	r3,48
    15d0:	10c13626 	beq	r2,r3,1aac <___vfprintf_internal_r+0xbdc>
    15d4:	80ffffc5 	stb	r3,-1(r16)
    15d8:	d8c02817 	ldw	r3,160(sp)
    15dc:	80bfffc4 	addi	r2,r16,-1
    15e0:	1021883a 	mov	r16,r2
    15e4:	1887c83a 	sub	r3,r3,r2
    15e8:	d8c02e15 	stw	r3,184(sp)
    15ec:	d8802e17 	ldw	r2,184(sp)
    15f0:	d9002917 	ldw	r4,164(sp)
    15f4:	1100010e 	bge	r2,r4,15fc <___vfprintf_internal_r+0x72c>
    15f8:	2005883a 	mov	r2,r4
    15fc:	d8802a15 	stw	r2,168(sp)
    1600:	d8003215 	stw	zero,200(sp)
    1604:	e7003fcc 	andi	fp,fp,255
    1608:	e700201c 	xori	fp,fp,128
    160c:	e73fe004 	addi	fp,fp,-128
    1610:	e0000326 	beq	fp,zero,1620 <___vfprintf_internal_r+0x750>
    1614:	d8c02a17 	ldw	r3,168(sp)
    1618:	18c00044 	addi	r3,r3,1
    161c:	d8c02a15 	stw	r3,168(sp)
    1620:	90c0008c 	andi	r3,r18,2
    1624:	d8c02b15 	stw	r3,172(sp)
    1628:	18000326 	beq	r3,zero,1638 <___vfprintf_internal_r+0x768>
    162c:	d8c02a17 	ldw	r3,168(sp)
    1630:	18c00084 	addi	r3,r3,2
    1634:	d8c02a15 	stw	r3,168(sp)
    1638:	90c0210c 	andi	r3,r18,132
    163c:	d8c03015 	stw	r3,192(sp)
    1640:	1801a31e 	bne	r3,zero,1cd0 <___vfprintf_internal_r+0xe00>
    1644:	d9003117 	ldw	r4,196(sp)
    1648:	d8c02a17 	ldw	r3,168(sp)
    164c:	20e7c83a 	sub	r19,r4,r3
    1650:	04c19f0e 	bge	zero,r19,1cd0 <___vfprintf_internal_r+0xe00>
    1654:	02400404 	movi	r9,16
    1658:	d8c02017 	ldw	r3,128(sp)
    165c:	d8801f17 	ldw	r2,124(sp)
    1660:	4cc50d0e 	bge	r9,r19,2a98 <___vfprintf_internal_r+0x1bc8>
    1664:	014000b4 	movhi	r5,2
    1668:	2967e084 	addi	r5,r5,-24702
    166c:	dc403b15 	stw	r17,236(sp)
    1670:	d9403515 	stw	r5,212(sp)
    1674:	9823883a 	mov	r17,r19
    1678:	482d883a 	mov	r22,r9
    167c:	9027883a 	mov	r19,r18
    1680:	070001c4 	movi	fp,7
    1684:	8025883a 	mov	r18,r16
    1688:	dc002c17 	ldw	r16,176(sp)
    168c:	00000306 	br	169c <___vfprintf_internal_r+0x7cc>
    1690:	8c7ffc04 	addi	r17,r17,-16
    1694:	42000204 	addi	r8,r8,8
    1698:	b440130e 	bge	r22,r17,16e8 <___vfprintf_internal_r+0x818>
    169c:	010000b4 	movhi	r4,2
    16a0:	18c00404 	addi	r3,r3,16
    16a4:	10800044 	addi	r2,r2,1
    16a8:	2127e084 	addi	r4,r4,-24702
    16ac:	41000015 	stw	r4,0(r8)
    16b0:	45800115 	stw	r22,4(r8)
    16b4:	d8c02015 	stw	r3,128(sp)
    16b8:	d8801f15 	stw	r2,124(sp)
    16bc:	e0bff40e 	bge	fp,r2,1690 <__alt_mem_VGA_Subsystem_Char_Buf_Subsystem_Onchip_SRAM+0xf7001690>
    16c0:	d9801e04 	addi	r6,sp,120
    16c4:	b80b883a 	mov	r5,r23
    16c8:	8009883a 	mov	r4,r16
    16cc:	00084cc0 	call	84cc <__sprint_r>
    16d0:	103f011e 	bne	r2,zero,12d8 <__alt_mem_VGA_Subsystem_Char_Buf_Subsystem_Onchip_SRAM+0xf70012d8>
    16d4:	8c7ffc04 	addi	r17,r17,-16
    16d8:	d8c02017 	ldw	r3,128(sp)
    16dc:	d8801f17 	ldw	r2,124(sp)
    16e0:	da000404 	addi	r8,sp,16
    16e4:	b47fed16 	blt	r22,r17,169c <__alt_mem_VGA_Subsystem_Char_Buf_Subsystem_Onchip_SRAM+0xf700169c>
    16e8:	9021883a 	mov	r16,r18
    16ec:	9825883a 	mov	r18,r19
    16f0:	8827883a 	mov	r19,r17
    16f4:	dc403b17 	ldw	r17,236(sp)
    16f8:	d9403517 	ldw	r5,212(sp)
    16fc:	98c7883a 	add	r3,r19,r3
    1700:	10800044 	addi	r2,r2,1
    1704:	41400015 	stw	r5,0(r8)
    1708:	44c00115 	stw	r19,4(r8)
    170c:	d8c02015 	stw	r3,128(sp)
    1710:	d8801f15 	stw	r2,124(sp)
    1714:	010001c4 	movi	r4,7
    1718:	2082a316 	blt	r4,r2,21a8 <___vfprintf_internal_r+0x12d8>
    171c:	df002787 	ldb	fp,158(sp)
    1720:	42000204 	addi	r8,r8,8
    1724:	e0000c26 	beq	fp,zero,1758 <___vfprintf_internal_r+0x888>
    1728:	d8801f17 	ldw	r2,124(sp)
    172c:	d9002784 	addi	r4,sp,158
    1730:	18c00044 	addi	r3,r3,1
    1734:	10800044 	addi	r2,r2,1
    1738:	41000015 	stw	r4,0(r8)
    173c:	01000044 	movi	r4,1
    1740:	41000115 	stw	r4,4(r8)
    1744:	d8c02015 	stw	r3,128(sp)
    1748:	d8801f15 	stw	r2,124(sp)
    174c:	010001c4 	movi	r4,7
    1750:	20823c16 	blt	r4,r2,2044 <___vfprintf_internal_r+0x1174>
    1754:	42000204 	addi	r8,r8,8
    1758:	d8802b17 	ldw	r2,172(sp)
    175c:	10000c26 	beq	r2,zero,1790 <___vfprintf_internal_r+0x8c0>
    1760:	d8801f17 	ldw	r2,124(sp)
    1764:	d9002704 	addi	r4,sp,156
    1768:	18c00084 	addi	r3,r3,2
    176c:	10800044 	addi	r2,r2,1
    1770:	41000015 	stw	r4,0(r8)
    1774:	01000084 	movi	r4,2
    1778:	41000115 	stw	r4,4(r8)
    177c:	d8c02015 	stw	r3,128(sp)
    1780:	d8801f15 	stw	r2,124(sp)
    1784:	010001c4 	movi	r4,7
    1788:	20823616 	blt	r4,r2,2064 <___vfprintf_internal_r+0x1194>
    178c:	42000204 	addi	r8,r8,8
    1790:	d9003017 	ldw	r4,192(sp)
    1794:	00802004 	movi	r2,128
    1798:	20819926 	beq	r4,r2,1e00 <___vfprintf_internal_r+0xf30>
    179c:	d9402917 	ldw	r5,164(sp)
    17a0:	d8802e17 	ldw	r2,184(sp)
    17a4:	28adc83a 	sub	r22,r5,r2
    17a8:	0580310e 	bge	zero,r22,1870 <___vfprintf_internal_r+0x9a0>
    17ac:	07000404 	movi	fp,16
    17b0:	d8801f17 	ldw	r2,124(sp)
    17b4:	e584140e 	bge	fp,r22,2808 <___vfprintf_internal_r+0x1938>
    17b8:	014000b4 	movhi	r5,2
    17bc:	2967dc84 	addi	r5,r5,-24718
    17c0:	dc402915 	stw	r17,164(sp)
    17c4:	d9402b15 	stw	r5,172(sp)
    17c8:	b023883a 	mov	r17,r22
    17cc:	04c001c4 	movi	r19,7
    17d0:	a82d883a 	mov	r22,r21
    17d4:	902b883a 	mov	r21,r18
    17d8:	8025883a 	mov	r18,r16
    17dc:	dc002c17 	ldw	r16,176(sp)
    17e0:	00000306 	br	17f0 <___vfprintf_internal_r+0x920>
    17e4:	8c7ffc04 	addi	r17,r17,-16
    17e8:	42000204 	addi	r8,r8,8
    17ec:	e440110e 	bge	fp,r17,1834 <___vfprintf_internal_r+0x964>
    17f0:	18c00404 	addi	r3,r3,16
    17f4:	10800044 	addi	r2,r2,1
    17f8:	45000015 	stw	r20,0(r8)
    17fc:	47000115 	stw	fp,4(r8)
    1800:	d8c02015 	stw	r3,128(sp)
    1804:	d8801f15 	stw	r2,124(sp)
    1808:	98bff60e 	bge	r19,r2,17e4 <__alt_mem_VGA_Subsystem_Char_Buf_Subsystem_Onchip_SRAM+0xf70017e4>
    180c:	d9801e04 	addi	r6,sp,120
    1810:	b80b883a 	mov	r5,r23
    1814:	8009883a 	mov	r4,r16
    1818:	00084cc0 	call	84cc <__sprint_r>
    181c:	103eae1e 	bne	r2,zero,12d8 <__alt_mem_VGA_Subsystem_Char_Buf_Subsystem_Onchip_SRAM+0xf70012d8>
    1820:	8c7ffc04 	addi	r17,r17,-16
    1824:	d8c02017 	ldw	r3,128(sp)
    1828:	d8801f17 	ldw	r2,124(sp)
    182c:	da000404 	addi	r8,sp,16
    1830:	e47fef16 	blt	fp,r17,17f0 <__alt_mem_VGA_Subsystem_Char_Buf_Subsystem_Onchip_SRAM+0xf70017f0>
    1834:	9021883a 	mov	r16,r18
    1838:	a825883a 	mov	r18,r21
    183c:	b02b883a 	mov	r21,r22
    1840:	882d883a 	mov	r22,r17
    1844:	dc402917 	ldw	r17,164(sp)
    1848:	d9002b17 	ldw	r4,172(sp)
    184c:	1d87883a 	add	r3,r3,r22
    1850:	10800044 	addi	r2,r2,1
    1854:	41000015 	stw	r4,0(r8)
    1858:	45800115 	stw	r22,4(r8)
    185c:	d8c02015 	stw	r3,128(sp)
    1860:	d8801f15 	stw	r2,124(sp)
    1864:	010001c4 	movi	r4,7
    1868:	2081ee16 	blt	r4,r2,2024 <___vfprintf_internal_r+0x1154>
    186c:	42000204 	addi	r8,r8,8
    1870:	9080400c 	andi	r2,r18,256
    1874:	1001181e 	bne	r2,zero,1cd8 <___vfprintf_internal_r+0xe08>
    1878:	d9402e17 	ldw	r5,184(sp)
    187c:	d8801f17 	ldw	r2,124(sp)
    1880:	44000015 	stw	r16,0(r8)
    1884:	1947883a 	add	r3,r3,r5
    1888:	10800044 	addi	r2,r2,1
    188c:	41400115 	stw	r5,4(r8)
    1890:	d8c02015 	stw	r3,128(sp)
    1894:	d8801f15 	stw	r2,124(sp)
    1898:	010001c4 	movi	r4,7
    189c:	2081d316 	blt	r4,r2,1fec <___vfprintf_internal_r+0x111c>
    18a0:	42000204 	addi	r8,r8,8
    18a4:	9480010c 	andi	r18,r18,4
    18a8:	90003226 	beq	r18,zero,1974 <___vfprintf_internal_r+0xaa4>
    18ac:	d9403117 	ldw	r5,196(sp)
    18b0:	d8802a17 	ldw	r2,168(sp)
    18b4:	28a1c83a 	sub	r16,r5,r2
    18b8:	04002e0e 	bge	zero,r16,1974 <___vfprintf_internal_r+0xaa4>
    18bc:	04400404 	movi	r17,16
    18c0:	d8801f17 	ldw	r2,124(sp)
    18c4:	8c04a20e 	bge	r17,r16,2b50 <___vfprintf_internal_r+0x1c80>
    18c8:	014000b4 	movhi	r5,2
    18cc:	2967e084 	addi	r5,r5,-24702
    18d0:	d9403515 	stw	r5,212(sp)
    18d4:	048001c4 	movi	r18,7
    18d8:	dcc02c17 	ldw	r19,176(sp)
    18dc:	00000306 	br	18ec <___vfprintf_internal_r+0xa1c>
    18e0:	843ffc04 	addi	r16,r16,-16
    18e4:	42000204 	addi	r8,r8,8
    18e8:	8c00130e 	bge	r17,r16,1938 <___vfprintf_internal_r+0xa68>
    18ec:	010000b4 	movhi	r4,2
    18f0:	18c00404 	addi	r3,r3,16
    18f4:	10800044 	addi	r2,r2,1
    18f8:	2127e084 	addi	r4,r4,-24702
    18fc:	41000015 	stw	r4,0(r8)
    1900:	44400115 	stw	r17,4(r8)
    1904:	d8c02015 	stw	r3,128(sp)
    1908:	d8801f15 	stw	r2,124(sp)
    190c:	90bff40e 	bge	r18,r2,18e0 <__alt_mem_VGA_Subsystem_Char_Buf_Subsystem_Onchip_SRAM+0xf70018e0>
    1910:	d9801e04 	addi	r6,sp,120
    1914:	b80b883a 	mov	r5,r23
    1918:	9809883a 	mov	r4,r19
    191c:	00084cc0 	call	84cc <__sprint_r>
    1920:	103e6d1e 	bne	r2,zero,12d8 <__alt_mem_VGA_Subsystem_Char_Buf_Subsystem_Onchip_SRAM+0xf70012d8>
    1924:	843ffc04 	addi	r16,r16,-16
    1928:	d8c02017 	ldw	r3,128(sp)
    192c:	d8801f17 	ldw	r2,124(sp)
    1930:	da000404 	addi	r8,sp,16
    1934:	8c3fed16 	blt	r17,r16,18ec <__alt_mem_VGA_Subsystem_Char_Buf_Subsystem_Onchip_SRAM+0xf70018ec>
    1938:	d9403517 	ldw	r5,212(sp)
    193c:	1c07883a 	add	r3,r3,r16
    1940:	10800044 	addi	r2,r2,1
    1944:	41400015 	stw	r5,0(r8)
    1948:	44000115 	stw	r16,4(r8)
    194c:	d8c02015 	stw	r3,128(sp)
    1950:	d8801f15 	stw	r2,124(sp)
    1954:	010001c4 	movi	r4,7
    1958:	2080060e 	bge	r4,r2,1974 <___vfprintf_internal_r+0xaa4>
    195c:	d9002c17 	ldw	r4,176(sp)
    1960:	d9801e04 	addi	r6,sp,120
    1964:	b80b883a 	mov	r5,r23
    1968:	00084cc0 	call	84cc <__sprint_r>
    196c:	103e5a1e 	bne	r2,zero,12d8 <__alt_mem_VGA_Subsystem_Char_Buf_Subsystem_Onchip_SRAM+0xf70012d8>
    1970:	d8c02017 	ldw	r3,128(sp)
    1974:	d8803117 	ldw	r2,196(sp)
    1978:	d9002a17 	ldw	r4,168(sp)
    197c:	1100010e 	bge	r2,r4,1984 <___vfprintf_internal_r+0xab4>
    1980:	2005883a 	mov	r2,r4
    1984:	d9402f17 	ldw	r5,188(sp)
    1988:	288b883a 	add	r5,r5,r2
    198c:	d9402f15 	stw	r5,188(sp)
    1990:	18019e1e 	bne	r3,zero,200c <___vfprintf_internal_r+0x113c>
    1994:	a8800007 	ldb	r2,0(r21)
    1998:	d8001f15 	stw	zero,124(sp)
    199c:	da000404 	addi	r8,sp,16
    19a0:	103d851e 	bne	r2,zero,fb8 <__alt_mem_VGA_Subsystem_Char_Buf_Subsystem_Onchip_SRAM+0xf7000fb8>
    19a4:	a821883a 	mov	r16,r21
    19a8:	003d9b06 	br	1018 <__alt_mem_VGA_Subsystem_Char_Buf_Subsystem_Onchip_SRAM+0xf7001018>
    19ac:	18c03fcc 	andi	r3,r3,255
    19b0:	1805c11e 	bne	r3,zero,30b8 <___vfprintf_internal_r+0x21e8>
    19b4:	94800414 	ori	r18,r18,16
    19b8:	9080080c 	andi	r2,r18,32
    19bc:	10020c26 	beq	r2,zero,21f0 <___vfprintf_internal_r+0x1320>
    19c0:	d8802d17 	ldw	r2,180(sp)
    19c4:	d9002917 	ldw	r4,164(sp)
    19c8:	d8002785 	stb	zero,158(sp)
    19cc:	10c00204 	addi	r3,r2,8
    19d0:	14c00017 	ldw	r19,0(r2)
    19d4:	15800117 	ldw	r22,4(r2)
    19d8:	20040f16 	blt	r4,zero,2a18 <___vfprintf_internal_r+0x1b48>
    19dc:	013fdfc4 	movi	r4,-129
    19e0:	9d84b03a 	or	r2,r19,r22
    19e4:	d8c02d15 	stw	r3,180(sp)
    19e8:	9124703a 	and	r18,r18,r4
    19ec:	0039883a 	mov	fp,zero
    19f0:	103e891e 	bne	r2,zero,1418 <__alt_mem_VGA_Subsystem_Char_Buf_Subsystem_Onchip_SRAM+0xf7001418>
    19f4:	d9002917 	ldw	r4,164(sp)
    19f8:	2002c11e 	bne	r4,zero,2500 <___vfprintf_internal_r+0x1630>
    19fc:	d8002915 	stw	zero,164(sp)
    1a00:	d8002e15 	stw	zero,184(sp)
    1a04:	dc001e04 	addi	r16,sp,120
    1a08:	003ef806 	br	15ec <__alt_mem_VGA_Subsystem_Char_Buf_Subsystem_Onchip_SRAM+0xf70015ec>
    1a0c:	18c03fcc 	andi	r3,r3,255
    1a10:	18059d1e 	bne	r3,zero,3088 <___vfprintf_internal_r+0x21b8>
    1a14:	014000b4 	movhi	r5,2
    1a18:	2967d004 	addi	r5,r5,-24768
    1a1c:	d9403915 	stw	r5,228(sp)
    1a20:	9080080c 	andi	r2,r18,32
    1a24:	10005226 	beq	r2,zero,1b70 <___vfprintf_internal_r+0xca0>
    1a28:	d8802d17 	ldw	r2,180(sp)
    1a2c:	14c00017 	ldw	r19,0(r2)
    1a30:	15800117 	ldw	r22,4(r2)
    1a34:	10800204 	addi	r2,r2,8
    1a38:	d8802d15 	stw	r2,180(sp)
    1a3c:	9080004c 	andi	r2,r18,1
    1a40:	10019026 	beq	r2,zero,2084 <___vfprintf_internal_r+0x11b4>
    1a44:	9d84b03a 	or	r2,r19,r22
    1a48:	10036926 	beq	r2,zero,27f0 <___vfprintf_internal_r+0x1920>
    1a4c:	d8c02917 	ldw	r3,164(sp)
    1a50:	00800c04 	movi	r2,48
    1a54:	d8802705 	stb	r2,156(sp)
    1a58:	dc402745 	stb	r17,157(sp)
    1a5c:	d8002785 	stb	zero,158(sp)
    1a60:	90800094 	ori	r2,r18,2
    1a64:	18045d16 	blt	r3,zero,2bdc <___vfprintf_internal_r+0x1d0c>
    1a68:	00bfdfc4 	movi	r2,-129
    1a6c:	90a4703a 	and	r18,r18,r2
    1a70:	94800094 	ori	r18,r18,2
    1a74:	0039883a 	mov	fp,zero
    1a78:	d9003917 	ldw	r4,228(sp)
    1a7c:	dc001e04 	addi	r16,sp,120
    1a80:	988003cc 	andi	r2,r19,15
    1a84:	b006973a 	slli	r3,r22,28
    1a88:	2085883a 	add	r2,r4,r2
    1a8c:	9826d13a 	srli	r19,r19,4
    1a90:	10800003 	ldbu	r2,0(r2)
    1a94:	b02cd13a 	srli	r22,r22,4
    1a98:	843fffc4 	addi	r16,r16,-1
    1a9c:	1ce6b03a 	or	r19,r3,r19
    1aa0:	80800005 	stb	r2,0(r16)
    1aa4:	9d84b03a 	or	r2,r19,r22
    1aa8:	103ff51e 	bne	r2,zero,1a80 <__alt_mem_VGA_Subsystem_Char_Buf_Subsystem_Onchip_SRAM+0xf7001a80>
    1aac:	d8c02817 	ldw	r3,160(sp)
    1ab0:	1c07c83a 	sub	r3,r3,r16
    1ab4:	d8c02e15 	stw	r3,184(sp)
    1ab8:	003ecc06 	br	15ec <__alt_mem_VGA_Subsystem_Char_Buf_Subsystem_Onchip_SRAM+0xf70015ec>
    1abc:	18c03fcc 	andi	r3,r3,255
    1ac0:	183e9f26 	beq	r3,zero,1540 <__alt_mem_VGA_Subsystem_Char_Buf_Subsystem_Onchip_SRAM+0xf7001540>
    1ac4:	d9c02785 	stb	r7,158(sp)
    1ac8:	003e9d06 	br	1540 <__alt_mem_VGA_Subsystem_Char_Buf_Subsystem_Onchip_SRAM+0xf7001540>
    1acc:	00c00044 	movi	r3,1
    1ad0:	01c00ac4 	movi	r7,43
    1ad4:	ac400007 	ldb	r17,0(r21)
    1ad8:	003d5e06 	br	1054 <__alt_mem_VGA_Subsystem_Char_Buf_Subsystem_Onchip_SRAM+0xf7001054>
    1adc:	94800814 	ori	r18,r18,32
    1ae0:	ac400007 	ldb	r17,0(r21)
    1ae4:	003d5b06 	br	1054 <__alt_mem_VGA_Subsystem_Char_Buf_Subsystem_Onchip_SRAM+0xf7001054>
    1ae8:	d8c02d17 	ldw	r3,180(sp)
    1aec:	d8002785 	stb	zero,158(sp)
    1af0:	1c000017 	ldw	r16,0(r3)
    1af4:	1cc00104 	addi	r19,r3,4
    1af8:	80041926 	beq	r16,zero,2b60 <___vfprintf_internal_r+0x1c90>
    1afc:	d9002917 	ldw	r4,164(sp)
    1b00:	2003d016 	blt	r4,zero,2a44 <___vfprintf_internal_r+0x1b74>
    1b04:	200d883a 	mov	r6,r4
    1b08:	000b883a 	mov	r5,zero
    1b0c:	8009883a 	mov	r4,r16
    1b10:	da003d15 	stw	r8,244(sp)
    1b14:	00066e00 	call	66e0 <memchr>
    1b18:	da003d17 	ldw	r8,244(sp)
    1b1c:	10045426 	beq	r2,zero,2c70 <___vfprintf_internal_r+0x1da0>
    1b20:	1405c83a 	sub	r2,r2,r16
    1b24:	d8802e15 	stw	r2,184(sp)
    1b28:	1003cc16 	blt	r2,zero,2a5c <___vfprintf_internal_r+0x1b8c>
    1b2c:	df002783 	ldbu	fp,158(sp)
    1b30:	d8802a15 	stw	r2,168(sp)
    1b34:	dcc02d15 	stw	r19,180(sp)
    1b38:	d8002915 	stw	zero,164(sp)
    1b3c:	d8003215 	stw	zero,200(sp)
    1b40:	003eb006 	br	1604 <__alt_mem_VGA_Subsystem_Char_Buf_Subsystem_Onchip_SRAM+0xf7001604>
    1b44:	18c03fcc 	andi	r3,r3,255
    1b48:	183f9b26 	beq	r3,zero,19b8 <__alt_mem_VGA_Subsystem_Char_Buf_Subsystem_Onchip_SRAM+0xf70019b8>
    1b4c:	d9c02785 	stb	r7,158(sp)
    1b50:	003f9906 	br	19b8 <__alt_mem_VGA_Subsystem_Char_Buf_Subsystem_Onchip_SRAM+0xf70019b8>
    1b54:	18c03fcc 	andi	r3,r3,255
    1b58:	1805551e 	bne	r3,zero,30b0 <___vfprintf_internal_r+0x21e0>
    1b5c:	014000b4 	movhi	r5,2
    1b60:	2967d504 	addi	r5,r5,-24748
    1b64:	d9403915 	stw	r5,228(sp)
    1b68:	9080080c 	andi	r2,r18,32
    1b6c:	103fae1e 	bne	r2,zero,1a28 <__alt_mem_VGA_Subsystem_Char_Buf_Subsystem_Onchip_SRAM+0xf7001a28>
    1b70:	9080040c 	andi	r2,r18,16
    1b74:	1002de26 	beq	r2,zero,26f0 <___vfprintf_internal_r+0x1820>
    1b78:	d8c02d17 	ldw	r3,180(sp)
    1b7c:	002d883a 	mov	r22,zero
    1b80:	1cc00017 	ldw	r19,0(r3)
    1b84:	18c00104 	addi	r3,r3,4
    1b88:	d8c02d15 	stw	r3,180(sp)
    1b8c:	003fab06 	br	1a3c <__alt_mem_VGA_Subsystem_Char_Buf_Subsystem_Onchip_SRAM+0xf7001a3c>
    1b90:	38803fcc 	andi	r2,r7,255
    1b94:	1080201c 	xori	r2,r2,128
    1b98:	10bfe004 	addi	r2,r2,-128
    1b9c:	1002d21e 	bne	r2,zero,26e8 <___vfprintf_internal_r+0x1818>
    1ba0:	00c00044 	movi	r3,1
    1ba4:	01c00804 	movi	r7,32
    1ba8:	ac400007 	ldb	r17,0(r21)
    1bac:	003d2906 	br	1054 <__alt_mem_VGA_Subsystem_Char_Buf_Subsystem_Onchip_SRAM+0xf7001054>
    1bb0:	94800054 	ori	r18,r18,1
    1bb4:	ac400007 	ldb	r17,0(r21)
    1bb8:	003d2606 	br	1054 <__alt_mem_VGA_Subsystem_Char_Buf_Subsystem_Onchip_SRAM+0xf7001054>
    1bbc:	18c03fcc 	andi	r3,r3,255
    1bc0:	183e0526 	beq	r3,zero,13d8 <__alt_mem_VGA_Subsystem_Char_Buf_Subsystem_Onchip_SRAM+0xf70013d8>
    1bc4:	d9c02785 	stb	r7,158(sp)
    1bc8:	003e0306 	br	13d8 <__alt_mem_VGA_Subsystem_Char_Buf_Subsystem_Onchip_SRAM+0xf70013d8>
    1bcc:	94801014 	ori	r18,r18,64
    1bd0:	ac400007 	ldb	r17,0(r21)
    1bd4:	003d1f06 	br	1054 <__alt_mem_VGA_Subsystem_Char_Buf_Subsystem_Onchip_SRAM+0xf7001054>
    1bd8:	ac400007 	ldb	r17,0(r21)
    1bdc:	8a438726 	beq	r17,r9,29fc <___vfprintf_internal_r+0x1b2c>
    1be0:	94800414 	ori	r18,r18,16
    1be4:	003d1b06 	br	1054 <__alt_mem_VGA_Subsystem_Char_Buf_Subsystem_Onchip_SRAM+0xf7001054>
    1be8:	18c03fcc 	andi	r3,r3,255
    1bec:	1805341e 	bne	r3,zero,30c0 <___vfprintf_internal_r+0x21f0>
    1bf0:	9080080c 	andi	r2,r18,32
    1bf4:	1002cd26 	beq	r2,zero,272c <___vfprintf_internal_r+0x185c>
    1bf8:	d9402d17 	ldw	r5,180(sp)
    1bfc:	d9002f17 	ldw	r4,188(sp)
    1c00:	28800017 	ldw	r2,0(r5)
    1c04:	2007d7fa 	srai	r3,r4,31
    1c08:	29400104 	addi	r5,r5,4
    1c0c:	d9402d15 	stw	r5,180(sp)
    1c10:	11000015 	stw	r4,0(r2)
    1c14:	10c00115 	stw	r3,4(r2)
    1c18:	003ce506 	br	fb0 <__alt_mem_VGA_Subsystem_Char_Buf_Subsystem_Onchip_SRAM+0xf7000fb0>
    1c1c:	d8c02d17 	ldw	r3,180(sp)
    1c20:	d9002d17 	ldw	r4,180(sp)
    1c24:	d8002785 	stb	zero,158(sp)
    1c28:	18800017 	ldw	r2,0(r3)
    1c2c:	21000104 	addi	r4,r4,4
    1c30:	00c00044 	movi	r3,1
    1c34:	d8c02a15 	stw	r3,168(sp)
    1c38:	d8801405 	stb	r2,80(sp)
    1c3c:	d9002d15 	stw	r4,180(sp)
    1c40:	d8c02e15 	stw	r3,184(sp)
    1c44:	d8002915 	stw	zero,164(sp)
    1c48:	d8003215 	stw	zero,200(sp)
    1c4c:	dc001404 	addi	r16,sp,80
    1c50:	0039883a 	mov	fp,zero
    1c54:	003e7206 	br	1620 <__alt_mem_VGA_Subsystem_Char_Buf_Subsystem_Onchip_SRAM+0xf7001620>
    1c58:	010000b4 	movhi	r4,2
    1c5c:	2127d504 	addi	r4,r4,-24748
    1c60:	0039883a 	mov	fp,zero
    1c64:	d9003915 	stw	r4,228(sp)
    1c68:	04401e04 	movi	r17,120
    1c6c:	003f8206 	br	1a78 <__alt_mem_VGA_Subsystem_Char_Buf_Subsystem_Onchip_SRAM+0xf7001a78>
    1c70:	18c03fcc 	andi	r3,r3,255
    1c74:	1805061e 	bne	r3,zero,3090 <___vfprintf_internal_r+0x21c0>
    1c78:	883d9126 	beq	r17,zero,12c0 <__alt_mem_VGA_Subsystem_Char_Buf_Subsystem_Onchip_SRAM+0xf70012c0>
    1c7c:	00c00044 	movi	r3,1
    1c80:	d8c02a15 	stw	r3,168(sp)
    1c84:	dc401405 	stb	r17,80(sp)
    1c88:	d8002785 	stb	zero,158(sp)
    1c8c:	003fec06 	br	1c40 <__alt_mem_VGA_Subsystem_Char_Buf_Subsystem_Onchip_SRAM+0xf7001c40>
    1c90:	014000b4 	movhi	r5,2
    1c94:	2967d504 	addi	r5,r5,-24748
    1c98:	d9403915 	stw	r5,228(sp)
    1c9c:	d8c02d15 	stw	r3,180(sp)
    1ca0:	1025883a 	mov	r18,r2
    1ca4:	04401e04 	movi	r17,120
    1ca8:	9d84b03a 	or	r2,r19,r22
    1cac:	1000fc1e 	bne	r2,zero,20a0 <___vfprintf_internal_r+0x11d0>
    1cb0:	0039883a 	mov	fp,zero
    1cb4:	00800084 	movi	r2,2
    1cb8:	10803fcc 	andi	r2,r2,255
    1cbc:	00c00044 	movi	r3,1
    1cc0:	10c20f26 	beq	r2,r3,2500 <___vfprintf_internal_r+0x1630>
    1cc4:	00c00084 	movi	r3,2
    1cc8:	10fd6326 	beq	r2,r3,1258 <__alt_mem_VGA_Subsystem_Char_Buf_Subsystem_Onchip_SRAM+0xf7001258>
    1ccc:	003e2d06 	br	1584 <__alt_mem_VGA_Subsystem_Char_Buf_Subsystem_Onchip_SRAM+0xf7001584>
    1cd0:	d8c02017 	ldw	r3,128(sp)
    1cd4:	003e9306 	br	1724 <__alt_mem_VGA_Subsystem_Char_Buf_Subsystem_Onchip_SRAM+0xf7001724>
    1cd8:	00801944 	movi	r2,101
    1cdc:	14407e0e 	bge	r2,r17,1ed8 <___vfprintf_internal_r+0x1008>
    1ce0:	d9003617 	ldw	r4,216(sp)
    1ce4:	d9403817 	ldw	r5,224(sp)
    1ce8:	000d883a 	mov	r6,zero
    1cec:	000f883a 	mov	r7,zero
    1cf0:	d8c03c15 	stw	r3,240(sp)
    1cf4:	da003d15 	stw	r8,244(sp)
    1cf8:	000c1440 	call	c144 <__eqdf2>
    1cfc:	d8c03c17 	ldw	r3,240(sp)
    1d00:	da003d17 	ldw	r8,244(sp)
    1d04:	1000f71e 	bne	r2,zero,20e4 <___vfprintf_internal_r+0x1214>
    1d08:	d8801f17 	ldw	r2,124(sp)
    1d0c:	010000b4 	movhi	r4,2
    1d10:	2127dc04 	addi	r4,r4,-24720
    1d14:	18c00044 	addi	r3,r3,1
    1d18:	10800044 	addi	r2,r2,1
    1d1c:	41000015 	stw	r4,0(r8)
    1d20:	01000044 	movi	r4,1
    1d24:	41000115 	stw	r4,4(r8)
    1d28:	d8c02015 	stw	r3,128(sp)
    1d2c:	d8801f15 	stw	r2,124(sp)
    1d30:	010001c4 	movi	r4,7
    1d34:	2082b816 	blt	r4,r2,2818 <___vfprintf_internal_r+0x1948>
    1d38:	42000204 	addi	r8,r8,8
    1d3c:	d8802617 	ldw	r2,152(sp)
    1d40:	d9403317 	ldw	r5,204(sp)
    1d44:	11400216 	blt	r2,r5,1d50 <___vfprintf_internal_r+0xe80>
    1d48:	9080004c 	andi	r2,r18,1
    1d4c:	103ed526 	beq	r2,zero,18a4 <__alt_mem_VGA_Subsystem_Char_Buf_Subsystem_Onchip_SRAM+0xf70018a4>
    1d50:	d8803717 	ldw	r2,220(sp)
    1d54:	d9003417 	ldw	r4,208(sp)
    1d58:	d9403717 	ldw	r5,220(sp)
    1d5c:	1887883a 	add	r3,r3,r2
    1d60:	d8801f17 	ldw	r2,124(sp)
    1d64:	41000015 	stw	r4,0(r8)
    1d68:	41400115 	stw	r5,4(r8)
    1d6c:	10800044 	addi	r2,r2,1
    1d70:	d8c02015 	stw	r3,128(sp)
    1d74:	d8801f15 	stw	r2,124(sp)
    1d78:	010001c4 	movi	r4,7
    1d7c:	20832916 	blt	r4,r2,2a24 <___vfprintf_internal_r+0x1b54>
    1d80:	42000204 	addi	r8,r8,8
    1d84:	d8803317 	ldw	r2,204(sp)
    1d88:	143fffc4 	addi	r16,r2,-1
    1d8c:	043ec50e 	bge	zero,r16,18a4 <__alt_mem_VGA_Subsystem_Char_Buf_Subsystem_Onchip_SRAM+0xf70018a4>
    1d90:	04400404 	movi	r17,16
    1d94:	d8801f17 	ldw	r2,124(sp)
    1d98:	8c00880e 	bge	r17,r16,1fbc <___vfprintf_internal_r+0x10ec>
    1d9c:	014000b4 	movhi	r5,2
    1da0:	2967dc84 	addi	r5,r5,-24718
    1da4:	d9402b15 	stw	r5,172(sp)
    1da8:	058001c4 	movi	r22,7
    1dac:	dcc02c17 	ldw	r19,176(sp)
    1db0:	00000306 	br	1dc0 <___vfprintf_internal_r+0xef0>
    1db4:	42000204 	addi	r8,r8,8
    1db8:	843ffc04 	addi	r16,r16,-16
    1dbc:	8c00820e 	bge	r17,r16,1fc8 <___vfprintf_internal_r+0x10f8>
    1dc0:	18c00404 	addi	r3,r3,16
    1dc4:	10800044 	addi	r2,r2,1
    1dc8:	45000015 	stw	r20,0(r8)
    1dcc:	44400115 	stw	r17,4(r8)
    1dd0:	d8c02015 	stw	r3,128(sp)
    1dd4:	d8801f15 	stw	r2,124(sp)
    1dd8:	b0bff60e 	bge	r22,r2,1db4 <__alt_mem_VGA_Subsystem_Char_Buf_Subsystem_Onchip_SRAM+0xf7001db4>
    1ddc:	d9801e04 	addi	r6,sp,120
    1de0:	b80b883a 	mov	r5,r23
    1de4:	9809883a 	mov	r4,r19
    1de8:	00084cc0 	call	84cc <__sprint_r>
    1dec:	103d3a1e 	bne	r2,zero,12d8 <__alt_mem_VGA_Subsystem_Char_Buf_Subsystem_Onchip_SRAM+0xf70012d8>
    1df0:	d8c02017 	ldw	r3,128(sp)
    1df4:	d8801f17 	ldw	r2,124(sp)
    1df8:	da000404 	addi	r8,sp,16
    1dfc:	003fee06 	br	1db8 <__alt_mem_VGA_Subsystem_Char_Buf_Subsystem_Onchip_SRAM+0xf7001db8>
    1e00:	d9403117 	ldw	r5,196(sp)
    1e04:	d8802a17 	ldw	r2,168(sp)
    1e08:	28adc83a 	sub	r22,r5,r2
    1e0c:	05be630e 	bge	zero,r22,179c <__alt_mem_VGA_Subsystem_Char_Buf_Subsystem_Onchip_SRAM+0xf700179c>
    1e10:	07000404 	movi	fp,16
    1e14:	d8801f17 	ldw	r2,124(sp)
    1e18:	e5838f0e 	bge	fp,r22,2c58 <___vfprintf_internal_r+0x1d88>
    1e1c:	014000b4 	movhi	r5,2
    1e20:	2967dc84 	addi	r5,r5,-24718
    1e24:	dc403015 	stw	r17,192(sp)
    1e28:	d9402b15 	stw	r5,172(sp)
    1e2c:	b023883a 	mov	r17,r22
    1e30:	04c001c4 	movi	r19,7
    1e34:	a82d883a 	mov	r22,r21
    1e38:	902b883a 	mov	r21,r18
    1e3c:	8025883a 	mov	r18,r16
    1e40:	dc002c17 	ldw	r16,176(sp)
    1e44:	00000306 	br	1e54 <___vfprintf_internal_r+0xf84>
    1e48:	8c7ffc04 	addi	r17,r17,-16
    1e4c:	42000204 	addi	r8,r8,8
    1e50:	e440110e 	bge	fp,r17,1e98 <___vfprintf_internal_r+0xfc8>
    1e54:	18c00404 	addi	r3,r3,16
    1e58:	10800044 	addi	r2,r2,1
    1e5c:	45000015 	stw	r20,0(r8)
    1e60:	47000115 	stw	fp,4(r8)
    1e64:	d8c02015 	stw	r3,128(sp)
    1e68:	d8801f15 	stw	r2,124(sp)
    1e6c:	98bff60e 	bge	r19,r2,1e48 <__alt_mem_VGA_Subsystem_Char_Buf_Subsystem_Onchip_SRAM+0xf7001e48>
    1e70:	d9801e04 	addi	r6,sp,120
    1e74:	b80b883a 	mov	r5,r23
    1e78:	8009883a 	mov	r4,r16
    1e7c:	00084cc0 	call	84cc <__sprint_r>
    1e80:	103d151e 	bne	r2,zero,12d8 <__alt_mem_VGA_Subsystem_Char_Buf_Subsystem_Onchip_SRAM+0xf70012d8>
    1e84:	8c7ffc04 	addi	r17,r17,-16
    1e88:	d8c02017 	ldw	r3,128(sp)
    1e8c:	d8801f17 	ldw	r2,124(sp)
    1e90:	da000404 	addi	r8,sp,16
    1e94:	e47fef16 	blt	fp,r17,1e54 <__alt_mem_VGA_Subsystem_Char_Buf_Subsystem_Onchip_SRAM+0xf7001e54>
    1e98:	9021883a 	mov	r16,r18
    1e9c:	a825883a 	mov	r18,r21
    1ea0:	b02b883a 	mov	r21,r22
    1ea4:	882d883a 	mov	r22,r17
    1ea8:	dc403017 	ldw	r17,192(sp)
    1eac:	d9002b17 	ldw	r4,172(sp)
    1eb0:	1d87883a 	add	r3,r3,r22
    1eb4:	10800044 	addi	r2,r2,1
    1eb8:	41000015 	stw	r4,0(r8)
    1ebc:	45800115 	stw	r22,4(r8)
    1ec0:	d8c02015 	stw	r3,128(sp)
    1ec4:	d8801f15 	stw	r2,124(sp)
    1ec8:	010001c4 	movi	r4,7
    1ecc:	20818e16 	blt	r4,r2,2508 <___vfprintf_internal_r+0x1638>
    1ed0:	42000204 	addi	r8,r8,8
    1ed4:	003e3106 	br	179c <__alt_mem_VGA_Subsystem_Char_Buf_Subsystem_Onchip_SRAM+0xf700179c>
    1ed8:	d9403317 	ldw	r5,204(sp)
    1edc:	00800044 	movi	r2,1
    1ee0:	18c00044 	addi	r3,r3,1
    1ee4:	1141530e 	bge	r2,r5,2434 <___vfprintf_internal_r+0x1564>
    1ee8:	dc401f17 	ldw	r17,124(sp)
    1eec:	00800044 	movi	r2,1
    1ef0:	40800115 	stw	r2,4(r8)
    1ef4:	8c400044 	addi	r17,r17,1
    1ef8:	44000015 	stw	r16,0(r8)
    1efc:	d8c02015 	stw	r3,128(sp)
    1f00:	dc401f15 	stw	r17,124(sp)
    1f04:	008001c4 	movi	r2,7
    1f08:	14416b16 	blt	r2,r17,24b8 <___vfprintf_internal_r+0x15e8>
    1f0c:	42000204 	addi	r8,r8,8
    1f10:	d8803717 	ldw	r2,220(sp)
    1f14:	d9003417 	ldw	r4,208(sp)
    1f18:	8c400044 	addi	r17,r17,1
    1f1c:	10c7883a 	add	r3,r2,r3
    1f20:	40800115 	stw	r2,4(r8)
    1f24:	41000015 	stw	r4,0(r8)
    1f28:	d8c02015 	stw	r3,128(sp)
    1f2c:	dc401f15 	stw	r17,124(sp)
    1f30:	008001c4 	movi	r2,7
    1f34:	14416916 	blt	r2,r17,24dc <___vfprintf_internal_r+0x160c>
    1f38:	45800204 	addi	r22,r8,8
    1f3c:	d9003617 	ldw	r4,216(sp)
    1f40:	d9403817 	ldw	r5,224(sp)
    1f44:	000d883a 	mov	r6,zero
    1f48:	000f883a 	mov	r7,zero
    1f4c:	d8c03c15 	stw	r3,240(sp)
    1f50:	000c1440 	call	c144 <__eqdf2>
    1f54:	d8c03c17 	ldw	r3,240(sp)
    1f58:	1000bc26 	beq	r2,zero,224c <___vfprintf_internal_r+0x137c>
    1f5c:	d9403317 	ldw	r5,204(sp)
    1f60:	84000044 	addi	r16,r16,1
    1f64:	8c400044 	addi	r17,r17,1
    1f68:	28bfffc4 	addi	r2,r5,-1
    1f6c:	1887883a 	add	r3,r3,r2
    1f70:	b0800115 	stw	r2,4(r22)
    1f74:	b4000015 	stw	r16,0(r22)
    1f78:	d8c02015 	stw	r3,128(sp)
    1f7c:	dc401f15 	stw	r17,124(sp)
    1f80:	008001c4 	movi	r2,7
    1f84:	14414316 	blt	r2,r17,2494 <___vfprintf_internal_r+0x15c4>
    1f88:	b5800204 	addi	r22,r22,8
    1f8c:	d9003a17 	ldw	r4,232(sp)
    1f90:	df0022c4 	addi	fp,sp,139
    1f94:	8c400044 	addi	r17,r17,1
    1f98:	20c7883a 	add	r3,r4,r3
    1f9c:	b7000015 	stw	fp,0(r22)
    1fa0:	b1000115 	stw	r4,4(r22)
    1fa4:	d8c02015 	stw	r3,128(sp)
    1fa8:	dc401f15 	stw	r17,124(sp)
    1fac:	008001c4 	movi	r2,7
    1fb0:	14400e16 	blt	r2,r17,1fec <___vfprintf_internal_r+0x111c>
    1fb4:	b2000204 	addi	r8,r22,8
    1fb8:	003e3a06 	br	18a4 <__alt_mem_VGA_Subsystem_Char_Buf_Subsystem_Onchip_SRAM+0xf70018a4>
    1fbc:	010000b4 	movhi	r4,2
    1fc0:	2127dc84 	addi	r4,r4,-24718
    1fc4:	d9002b15 	stw	r4,172(sp)
    1fc8:	d9002b17 	ldw	r4,172(sp)
    1fcc:	1c07883a 	add	r3,r3,r16
    1fd0:	44000115 	stw	r16,4(r8)
    1fd4:	41000015 	stw	r4,0(r8)
    1fd8:	10800044 	addi	r2,r2,1
    1fdc:	d8c02015 	stw	r3,128(sp)
    1fe0:	d8801f15 	stw	r2,124(sp)
    1fe4:	010001c4 	movi	r4,7
    1fe8:	20be2d0e 	bge	r4,r2,18a0 <__alt_mem_VGA_Subsystem_Char_Buf_Subsystem_Onchip_SRAM+0xf70018a0>
    1fec:	d9002c17 	ldw	r4,176(sp)
    1ff0:	d9801e04 	addi	r6,sp,120
    1ff4:	b80b883a 	mov	r5,r23
    1ff8:	00084cc0 	call	84cc <__sprint_r>
    1ffc:	103cb61e 	bne	r2,zero,12d8 <__alt_mem_VGA_Subsystem_Char_Buf_Subsystem_Onchip_SRAM+0xf70012d8>
    2000:	d8c02017 	ldw	r3,128(sp)
    2004:	da000404 	addi	r8,sp,16
    2008:	003e2606 	br	18a4 <__alt_mem_VGA_Subsystem_Char_Buf_Subsystem_Onchip_SRAM+0xf70018a4>
    200c:	d9002c17 	ldw	r4,176(sp)
    2010:	d9801e04 	addi	r6,sp,120
    2014:	b80b883a 	mov	r5,r23
    2018:	00084cc0 	call	84cc <__sprint_r>
    201c:	103e5d26 	beq	r2,zero,1994 <__alt_mem_VGA_Subsystem_Char_Buf_Subsystem_Onchip_SRAM+0xf7001994>
    2020:	003cad06 	br	12d8 <__alt_mem_VGA_Subsystem_Char_Buf_Subsystem_Onchip_SRAM+0xf70012d8>
    2024:	d9002c17 	ldw	r4,176(sp)
    2028:	d9801e04 	addi	r6,sp,120
    202c:	b80b883a 	mov	r5,r23
    2030:	00084cc0 	call	84cc <__sprint_r>
    2034:	103ca81e 	bne	r2,zero,12d8 <__alt_mem_VGA_Subsystem_Char_Buf_Subsystem_Onchip_SRAM+0xf70012d8>
    2038:	d8c02017 	ldw	r3,128(sp)
    203c:	da000404 	addi	r8,sp,16
    2040:	003e0b06 	br	1870 <__alt_mem_VGA_Subsystem_Char_Buf_Subsystem_Onchip_SRAM+0xf7001870>
    2044:	d9002c17 	ldw	r4,176(sp)
    2048:	d9801e04 	addi	r6,sp,120
    204c:	b80b883a 	mov	r5,r23
    2050:	00084cc0 	call	84cc <__sprint_r>
    2054:	103ca01e 	bne	r2,zero,12d8 <__alt_mem_VGA_Subsystem_Char_Buf_Subsystem_Onchip_SRAM+0xf70012d8>
    2058:	d8c02017 	ldw	r3,128(sp)
    205c:	da000404 	addi	r8,sp,16
    2060:	003dbd06 	br	1758 <__alt_mem_VGA_Subsystem_Char_Buf_Subsystem_Onchip_SRAM+0xf7001758>
    2064:	d9002c17 	ldw	r4,176(sp)
    2068:	d9801e04 	addi	r6,sp,120
    206c:	b80b883a 	mov	r5,r23
    2070:	00084cc0 	call	84cc <__sprint_r>
    2074:	103c981e 	bne	r2,zero,12d8 <__alt_mem_VGA_Subsystem_Char_Buf_Subsystem_Onchip_SRAM+0xf70012d8>
    2078:	d8c02017 	ldw	r3,128(sp)
    207c:	da000404 	addi	r8,sp,16
    2080:	003dc306 	br	1790 <__alt_mem_VGA_Subsystem_Char_Buf_Subsystem_Onchip_SRAM+0xf7001790>
    2084:	d8802917 	ldw	r2,164(sp)
    2088:	d8002785 	stb	zero,158(sp)
    208c:	103f0616 	blt	r2,zero,1ca8 <__alt_mem_VGA_Subsystem_Char_Buf_Subsystem_Onchip_SRAM+0xf7001ca8>
    2090:	00ffdfc4 	movi	r3,-129
    2094:	9d84b03a 	or	r2,r19,r22
    2098:	90e4703a 	and	r18,r18,r3
    209c:	103c6b26 	beq	r2,zero,124c <__alt_mem_VGA_Subsystem_Char_Buf_Subsystem_Onchip_SRAM+0xf700124c>
    20a0:	0039883a 	mov	fp,zero
    20a4:	003e7406 	br	1a78 <__alt_mem_VGA_Subsystem_Char_Buf_Subsystem_Onchip_SRAM+0xf7001a78>
    20a8:	9080040c 	andi	r2,r18,16
    20ac:	1001b326 	beq	r2,zero,277c <___vfprintf_internal_r+0x18ac>
    20b0:	d9002d17 	ldw	r4,180(sp)
    20b4:	d9402917 	ldw	r5,164(sp)
    20b8:	d8002785 	stb	zero,158(sp)
    20bc:	20800104 	addi	r2,r4,4
    20c0:	24c00017 	ldw	r19,0(r4)
    20c4:	002d883a 	mov	r22,zero
    20c8:	2801b516 	blt	r5,zero,27a0 <___vfprintf_internal_r+0x18d0>
    20cc:	00ffdfc4 	movi	r3,-129
    20d0:	d8802d15 	stw	r2,180(sp)
    20d4:	90e4703a 	and	r18,r18,r3
    20d8:	983d2726 	beq	r19,zero,1578 <__alt_mem_VGA_Subsystem_Char_Buf_Subsystem_Onchip_SRAM+0xf7001578>
    20dc:	0039883a 	mov	fp,zero
    20e0:	003d2a06 	br	158c <__alt_mem_VGA_Subsystem_Char_Buf_Subsystem_Onchip_SRAM+0xf700158c>
    20e4:	dc402617 	ldw	r17,152(sp)
    20e8:	0441d30e 	bge	zero,r17,2838 <___vfprintf_internal_r+0x1968>
    20ec:	dc403217 	ldw	r17,200(sp)
    20f0:	d8803317 	ldw	r2,204(sp)
    20f4:	1440010e 	bge	r2,r17,20fc <___vfprintf_internal_r+0x122c>
    20f8:	1023883a 	mov	r17,r2
    20fc:	04400a0e 	bge	zero,r17,2128 <___vfprintf_internal_r+0x1258>
    2100:	d8801f17 	ldw	r2,124(sp)
    2104:	1c47883a 	add	r3,r3,r17
    2108:	44000015 	stw	r16,0(r8)
    210c:	10800044 	addi	r2,r2,1
    2110:	44400115 	stw	r17,4(r8)
    2114:	d8c02015 	stw	r3,128(sp)
    2118:	d8801f15 	stw	r2,124(sp)
    211c:	010001c4 	movi	r4,7
    2120:	20826516 	blt	r4,r2,2ab8 <___vfprintf_internal_r+0x1be8>
    2124:	42000204 	addi	r8,r8,8
    2128:	88026116 	blt	r17,zero,2ab0 <___vfprintf_internal_r+0x1be0>
    212c:	d9003217 	ldw	r4,200(sp)
    2130:	2463c83a 	sub	r17,r4,r17
    2134:	04407b0e 	bge	zero,r17,2324 <___vfprintf_internal_r+0x1454>
    2138:	05800404 	movi	r22,16
    213c:	d8801f17 	ldw	r2,124(sp)
    2140:	b4419d0e 	bge	r22,r17,27b8 <___vfprintf_internal_r+0x18e8>
    2144:	010000b4 	movhi	r4,2
    2148:	2127dc84 	addi	r4,r4,-24718
    214c:	d9002b15 	stw	r4,172(sp)
    2150:	070001c4 	movi	fp,7
    2154:	dcc02c17 	ldw	r19,176(sp)
    2158:	00000306 	br	2168 <___vfprintf_internal_r+0x1298>
    215c:	42000204 	addi	r8,r8,8
    2160:	8c7ffc04 	addi	r17,r17,-16
    2164:	b441970e 	bge	r22,r17,27c4 <___vfprintf_internal_r+0x18f4>
    2168:	18c00404 	addi	r3,r3,16
    216c:	10800044 	addi	r2,r2,1
    2170:	45000015 	stw	r20,0(r8)
    2174:	45800115 	stw	r22,4(r8)
    2178:	d8c02015 	stw	r3,128(sp)
    217c:	d8801f15 	stw	r2,124(sp)
    2180:	e0bff60e 	bge	fp,r2,215c <__alt_mem_VGA_Subsystem_Char_Buf_Subsystem_Onchip_SRAM+0xf700215c>
    2184:	d9801e04 	addi	r6,sp,120
    2188:	b80b883a 	mov	r5,r23
    218c:	9809883a 	mov	r4,r19
    2190:	00084cc0 	call	84cc <__sprint_r>
    2194:	103c501e 	bne	r2,zero,12d8 <__alt_mem_VGA_Subsystem_Char_Buf_Subsystem_Onchip_SRAM+0xf70012d8>
    2198:	d8c02017 	ldw	r3,128(sp)
    219c:	d8801f17 	ldw	r2,124(sp)
    21a0:	da000404 	addi	r8,sp,16
    21a4:	003fee06 	br	2160 <__alt_mem_VGA_Subsystem_Char_Buf_Subsystem_Onchip_SRAM+0xf7002160>
    21a8:	d9002c17 	ldw	r4,176(sp)
    21ac:	d9801e04 	addi	r6,sp,120
    21b0:	b80b883a 	mov	r5,r23
    21b4:	00084cc0 	call	84cc <__sprint_r>
    21b8:	103c471e 	bne	r2,zero,12d8 <__alt_mem_VGA_Subsystem_Char_Buf_Subsystem_Onchip_SRAM+0xf70012d8>
    21bc:	d8c02017 	ldw	r3,128(sp)
    21c0:	df002787 	ldb	fp,158(sp)
    21c4:	da000404 	addi	r8,sp,16
    21c8:	003d5606 	br	1724 <__alt_mem_VGA_Subsystem_Char_Buf_Subsystem_Onchip_SRAM+0xf7001724>
    21cc:	9080040c 	andi	r2,r18,16
    21d0:	10016126 	beq	r2,zero,2758 <___vfprintf_internal_r+0x1888>
    21d4:	d8802d17 	ldw	r2,180(sp)
    21d8:	14c00017 	ldw	r19,0(r2)
    21dc:	10800104 	addi	r2,r2,4
    21e0:	d8802d15 	stw	r2,180(sp)
    21e4:	982dd7fa 	srai	r22,r19,31
    21e8:	b005883a 	mov	r2,r22
    21ec:	003c8206 	br	13f8 <__alt_mem_VGA_Subsystem_Char_Buf_Subsystem_Onchip_SRAM+0xf70013f8>
    21f0:	9080040c 	andi	r2,r18,16
    21f4:	10003526 	beq	r2,zero,22cc <___vfprintf_internal_r+0x13fc>
    21f8:	d9402d17 	ldw	r5,180(sp)
    21fc:	d8c02917 	ldw	r3,164(sp)
    2200:	d8002785 	stb	zero,158(sp)
    2204:	28800104 	addi	r2,r5,4
    2208:	2cc00017 	ldw	r19,0(r5)
    220c:	002d883a 	mov	r22,zero
    2210:	18003716 	blt	r3,zero,22f0 <___vfprintf_internal_r+0x1420>
    2214:	00ffdfc4 	movi	r3,-129
    2218:	d8802d15 	stw	r2,180(sp)
    221c:	90e4703a 	and	r18,r18,r3
    2220:	0039883a 	mov	fp,zero
    2224:	983df326 	beq	r19,zero,19f4 <__alt_mem_VGA_Subsystem_Char_Buf_Subsystem_Onchip_SRAM+0xf70019f4>
    2228:	00800244 	movi	r2,9
    222c:	14fc7b36 	bltu	r2,r19,141c <__alt_mem_VGA_Subsystem_Char_Buf_Subsystem_Onchip_SRAM+0xf700141c>
    2230:	d8c02817 	ldw	r3,160(sp)
    2234:	dc001dc4 	addi	r16,sp,119
    2238:	9cc00c04 	addi	r19,r19,48
    223c:	1c07c83a 	sub	r3,r3,r16
    2240:	dcc01dc5 	stb	r19,119(sp)
    2244:	d8c02e15 	stw	r3,184(sp)
    2248:	003ce806 	br	15ec <__alt_mem_VGA_Subsystem_Char_Buf_Subsystem_Onchip_SRAM+0xf70015ec>
    224c:	d8803317 	ldw	r2,204(sp)
    2250:	143fffc4 	addi	r16,r2,-1
    2254:	043f4d0e 	bge	zero,r16,1f8c <__alt_mem_VGA_Subsystem_Char_Buf_Subsystem_Onchip_SRAM+0xf7001f8c>
    2258:	07000404 	movi	fp,16
    225c:	e400810e 	bge	fp,r16,2464 <___vfprintf_internal_r+0x1594>
    2260:	014000b4 	movhi	r5,2
    2264:	2967dc84 	addi	r5,r5,-24718
    2268:	d9402b15 	stw	r5,172(sp)
    226c:	01c001c4 	movi	r7,7
    2270:	dcc02c17 	ldw	r19,176(sp)
    2274:	00000306 	br	2284 <___vfprintf_internal_r+0x13b4>
    2278:	b5800204 	addi	r22,r22,8
    227c:	843ffc04 	addi	r16,r16,-16
    2280:	e4007b0e 	bge	fp,r16,2470 <___vfprintf_internal_r+0x15a0>
    2284:	18c00404 	addi	r3,r3,16
    2288:	8c400044 	addi	r17,r17,1
    228c:	b5000015 	stw	r20,0(r22)
    2290:	b7000115 	stw	fp,4(r22)
    2294:	d8c02015 	stw	r3,128(sp)
    2298:	dc401f15 	stw	r17,124(sp)
    229c:	3c7ff60e 	bge	r7,r17,2278 <__alt_mem_VGA_Subsystem_Char_Buf_Subsystem_Onchip_SRAM+0xf7002278>
    22a0:	d9801e04 	addi	r6,sp,120
    22a4:	b80b883a 	mov	r5,r23
    22a8:	9809883a 	mov	r4,r19
    22ac:	d9c03c15 	stw	r7,240(sp)
    22b0:	00084cc0 	call	84cc <__sprint_r>
    22b4:	d9c03c17 	ldw	r7,240(sp)
    22b8:	103c071e 	bne	r2,zero,12d8 <__alt_mem_VGA_Subsystem_Char_Buf_Subsystem_Onchip_SRAM+0xf70012d8>
    22bc:	d8c02017 	ldw	r3,128(sp)
    22c0:	dc401f17 	ldw	r17,124(sp)
    22c4:	dd800404 	addi	r22,sp,16
    22c8:	003fec06 	br	227c <__alt_mem_VGA_Subsystem_Char_Buf_Subsystem_Onchip_SRAM+0xf700227c>
    22cc:	9080100c 	andi	r2,r18,64
    22d0:	d8002785 	stb	zero,158(sp)
    22d4:	10010e26 	beq	r2,zero,2710 <___vfprintf_internal_r+0x1840>
    22d8:	d9002d17 	ldw	r4,180(sp)
    22dc:	d9402917 	ldw	r5,164(sp)
    22e0:	002d883a 	mov	r22,zero
    22e4:	20800104 	addi	r2,r4,4
    22e8:	24c0000b 	ldhu	r19,0(r4)
    22ec:	283fc90e 	bge	r5,zero,2214 <__alt_mem_VGA_Subsystem_Char_Buf_Subsystem_Onchip_SRAM+0xf7002214>
    22f0:	d8802d15 	stw	r2,180(sp)
    22f4:	0039883a 	mov	fp,zero
    22f8:	9d84b03a 	or	r2,r19,r22
    22fc:	103c461e 	bne	r2,zero,1418 <__alt_mem_VGA_Subsystem_Char_Buf_Subsystem_Onchip_SRAM+0xf7001418>
    2300:	00800044 	movi	r2,1
    2304:	003e6c06 	br	1cb8 <__alt_mem_VGA_Subsystem_Char_Buf_Subsystem_Onchip_SRAM+0xf7001cb8>
    2308:	d9002c17 	ldw	r4,176(sp)
    230c:	d9801e04 	addi	r6,sp,120
    2310:	b80b883a 	mov	r5,r23
    2314:	00084cc0 	call	84cc <__sprint_r>
    2318:	103bef1e 	bne	r2,zero,12d8 <__alt_mem_VGA_Subsystem_Char_Buf_Subsystem_Onchip_SRAM+0xf70012d8>
    231c:	d8c02017 	ldw	r3,128(sp)
    2320:	da000404 	addi	r8,sp,16
    2324:	d9003217 	ldw	r4,200(sp)
    2328:	d8802617 	ldw	r2,152(sp)
    232c:	d9403317 	ldw	r5,204(sp)
    2330:	8123883a 	add	r17,r16,r4
    2334:	11400216 	blt	r2,r5,2340 <___vfprintf_internal_r+0x1470>
    2338:	9100004c 	andi	r4,r18,1
    233c:	20000d26 	beq	r4,zero,2374 <___vfprintf_internal_r+0x14a4>
    2340:	d9003717 	ldw	r4,220(sp)
    2344:	d9403417 	ldw	r5,208(sp)
    2348:	1907883a 	add	r3,r3,r4
    234c:	d9001f17 	ldw	r4,124(sp)
    2350:	41400015 	stw	r5,0(r8)
    2354:	d9403717 	ldw	r5,220(sp)
    2358:	21000044 	addi	r4,r4,1
    235c:	d8c02015 	stw	r3,128(sp)
    2360:	41400115 	stw	r5,4(r8)
    2364:	d9001f15 	stw	r4,124(sp)
    2368:	014001c4 	movi	r5,7
    236c:	2901e816 	blt	r5,r4,2b10 <___vfprintf_internal_r+0x1c40>
    2370:	42000204 	addi	r8,r8,8
    2374:	d9003317 	ldw	r4,204(sp)
    2378:	8121883a 	add	r16,r16,r4
    237c:	2085c83a 	sub	r2,r4,r2
    2380:	8461c83a 	sub	r16,r16,r17
    2384:	1400010e 	bge	r2,r16,238c <___vfprintf_internal_r+0x14bc>
    2388:	1021883a 	mov	r16,r2
    238c:	04000a0e 	bge	zero,r16,23b8 <___vfprintf_internal_r+0x14e8>
    2390:	d9001f17 	ldw	r4,124(sp)
    2394:	1c07883a 	add	r3,r3,r16
    2398:	44400015 	stw	r17,0(r8)
    239c:	21000044 	addi	r4,r4,1
    23a0:	44000115 	stw	r16,4(r8)
    23a4:	d8c02015 	stw	r3,128(sp)
    23a8:	d9001f15 	stw	r4,124(sp)
    23ac:	014001c4 	movi	r5,7
    23b0:	2901fb16 	blt	r5,r4,2ba0 <___vfprintf_internal_r+0x1cd0>
    23b4:	42000204 	addi	r8,r8,8
    23b8:	8001f716 	blt	r16,zero,2b98 <___vfprintf_internal_r+0x1cc8>
    23bc:	1421c83a 	sub	r16,r2,r16
    23c0:	043d380e 	bge	zero,r16,18a4 <__alt_mem_VGA_Subsystem_Char_Buf_Subsystem_Onchip_SRAM+0xf70018a4>
    23c4:	04400404 	movi	r17,16
    23c8:	d8801f17 	ldw	r2,124(sp)
    23cc:	8c3efb0e 	bge	r17,r16,1fbc <__alt_mem_VGA_Subsystem_Char_Buf_Subsystem_Onchip_SRAM+0xf7001fbc>
    23d0:	014000b4 	movhi	r5,2
    23d4:	2967dc84 	addi	r5,r5,-24718
    23d8:	d9402b15 	stw	r5,172(sp)
    23dc:	058001c4 	movi	r22,7
    23e0:	dcc02c17 	ldw	r19,176(sp)
    23e4:	00000306 	br	23f4 <___vfprintf_internal_r+0x1524>
    23e8:	42000204 	addi	r8,r8,8
    23ec:	843ffc04 	addi	r16,r16,-16
    23f0:	8c3ef50e 	bge	r17,r16,1fc8 <__alt_mem_VGA_Subsystem_Char_Buf_Subsystem_Onchip_SRAM+0xf7001fc8>
    23f4:	18c00404 	addi	r3,r3,16
    23f8:	10800044 	addi	r2,r2,1
    23fc:	45000015 	stw	r20,0(r8)
    2400:	44400115 	stw	r17,4(r8)
    2404:	d8c02015 	stw	r3,128(sp)
    2408:	d8801f15 	stw	r2,124(sp)
    240c:	b0bff60e 	bge	r22,r2,23e8 <__alt_mem_VGA_Subsystem_Char_Buf_Subsystem_Onchip_SRAM+0xf70023e8>
    2410:	d9801e04 	addi	r6,sp,120
    2414:	b80b883a 	mov	r5,r23
    2418:	9809883a 	mov	r4,r19
    241c:	00084cc0 	call	84cc <__sprint_r>
    2420:	103bad1e 	bne	r2,zero,12d8 <__alt_mem_VGA_Subsystem_Char_Buf_Subsystem_Onchip_SRAM+0xf70012d8>
    2424:	d8c02017 	ldw	r3,128(sp)
    2428:	d8801f17 	ldw	r2,124(sp)
    242c:	da000404 	addi	r8,sp,16
    2430:	003fee06 	br	23ec <__alt_mem_VGA_Subsystem_Char_Buf_Subsystem_Onchip_SRAM+0xf70023ec>
    2434:	9088703a 	and	r4,r18,r2
    2438:	203eab1e 	bne	r4,zero,1ee8 <__alt_mem_VGA_Subsystem_Char_Buf_Subsystem_Onchip_SRAM+0xf7001ee8>
    243c:	dc401f17 	ldw	r17,124(sp)
    2440:	40800115 	stw	r2,4(r8)
    2444:	44000015 	stw	r16,0(r8)
    2448:	8c400044 	addi	r17,r17,1
    244c:	d8c02015 	stw	r3,128(sp)
    2450:	dc401f15 	stw	r17,124(sp)
    2454:	008001c4 	movi	r2,7
    2458:	14400e16 	blt	r2,r17,2494 <___vfprintf_internal_r+0x15c4>
    245c:	45800204 	addi	r22,r8,8
    2460:	003eca06 	br	1f8c <__alt_mem_VGA_Subsystem_Char_Buf_Subsystem_Onchip_SRAM+0xf7001f8c>
    2464:	010000b4 	movhi	r4,2
    2468:	2127dc84 	addi	r4,r4,-24718
    246c:	d9002b15 	stw	r4,172(sp)
    2470:	d8802b17 	ldw	r2,172(sp)
    2474:	1c07883a 	add	r3,r3,r16
    2478:	8c400044 	addi	r17,r17,1
    247c:	b0800015 	stw	r2,0(r22)
    2480:	b4000115 	stw	r16,4(r22)
    2484:	d8c02015 	stw	r3,128(sp)
    2488:	dc401f15 	stw	r17,124(sp)
    248c:	008001c4 	movi	r2,7
    2490:	147ebd0e 	bge	r2,r17,1f88 <__alt_mem_VGA_Subsystem_Char_Buf_Subsystem_Onchip_SRAM+0xf7001f88>
    2494:	d9002c17 	ldw	r4,176(sp)
    2498:	d9801e04 	addi	r6,sp,120
    249c:	b80b883a 	mov	r5,r23
    24a0:	00084cc0 	call	84cc <__sprint_r>
    24a4:	103b8c1e 	bne	r2,zero,12d8 <__alt_mem_VGA_Subsystem_Char_Buf_Subsystem_Onchip_SRAM+0xf70012d8>
    24a8:	d8c02017 	ldw	r3,128(sp)
    24ac:	dc401f17 	ldw	r17,124(sp)
    24b0:	dd800404 	addi	r22,sp,16
    24b4:	003eb506 	br	1f8c <__alt_mem_VGA_Subsystem_Char_Buf_Subsystem_Onchip_SRAM+0xf7001f8c>
    24b8:	d9002c17 	ldw	r4,176(sp)
    24bc:	d9801e04 	addi	r6,sp,120
    24c0:	b80b883a 	mov	r5,r23
    24c4:	00084cc0 	call	84cc <__sprint_r>
    24c8:	103b831e 	bne	r2,zero,12d8 <__alt_mem_VGA_Subsystem_Char_Buf_Subsystem_Onchip_SRAM+0xf70012d8>
    24cc:	d8c02017 	ldw	r3,128(sp)
    24d0:	dc401f17 	ldw	r17,124(sp)
    24d4:	da000404 	addi	r8,sp,16
    24d8:	003e8d06 	br	1f10 <__alt_mem_VGA_Subsystem_Char_Buf_Subsystem_Onchip_SRAM+0xf7001f10>
    24dc:	d9002c17 	ldw	r4,176(sp)
    24e0:	d9801e04 	addi	r6,sp,120
    24e4:	b80b883a 	mov	r5,r23
    24e8:	00084cc0 	call	84cc <__sprint_r>
    24ec:	103b7a1e 	bne	r2,zero,12d8 <__alt_mem_VGA_Subsystem_Char_Buf_Subsystem_Onchip_SRAM+0xf70012d8>
    24f0:	d8c02017 	ldw	r3,128(sp)
    24f4:	dc401f17 	ldw	r17,124(sp)
    24f8:	dd800404 	addi	r22,sp,16
    24fc:	003e8f06 	br	1f3c <__alt_mem_VGA_Subsystem_Char_Buf_Subsystem_Onchip_SRAM+0xf7001f3c>
    2500:	0027883a 	mov	r19,zero
    2504:	003f4a06 	br	2230 <__alt_mem_VGA_Subsystem_Char_Buf_Subsystem_Onchip_SRAM+0xf7002230>
    2508:	d9002c17 	ldw	r4,176(sp)
    250c:	d9801e04 	addi	r6,sp,120
    2510:	b80b883a 	mov	r5,r23
    2514:	00084cc0 	call	84cc <__sprint_r>
    2518:	103b6f1e 	bne	r2,zero,12d8 <__alt_mem_VGA_Subsystem_Char_Buf_Subsystem_Onchip_SRAM+0xf70012d8>
    251c:	d8c02017 	ldw	r3,128(sp)
    2520:	da000404 	addi	r8,sp,16
    2524:	003c9d06 	br	179c <__alt_mem_VGA_Subsystem_Char_Buf_Subsystem_Onchip_SRAM+0xf700179c>
    2528:	04e7c83a 	sub	r19,zero,r19
    252c:	9804c03a 	cmpne	r2,r19,zero
    2530:	05adc83a 	sub	r22,zero,r22
    2534:	b0adc83a 	sub	r22,r22,r2
    2538:	d8802917 	ldw	r2,164(sp)
    253c:	07000b44 	movi	fp,45
    2540:	df002785 	stb	fp,158(sp)
    2544:	10017b16 	blt	r2,zero,2b34 <___vfprintf_internal_r+0x1c64>
    2548:	00bfdfc4 	movi	r2,-129
    254c:	90a4703a 	and	r18,r18,r2
    2550:	003bb106 	br	1418 <__alt_mem_VGA_Subsystem_Char_Buf_Subsystem_Onchip_SRAM+0xf7001418>
    2554:	d9003617 	ldw	r4,216(sp)
    2558:	d9403817 	ldw	r5,224(sp)
    255c:	da003d15 	stw	r8,244(sp)
    2560:	00080f00 	call	80f0 <__fpclassifyd>
    2564:	da003d17 	ldw	r8,244(sp)
    2568:	1000f026 	beq	r2,zero,292c <___vfprintf_internal_r+0x1a5c>
    256c:	d9002917 	ldw	r4,164(sp)
    2570:	05bff7c4 	movi	r22,-33
    2574:	00bfffc4 	movi	r2,-1
    2578:	8dac703a 	and	r22,r17,r22
    257c:	20820026 	beq	r4,r2,2d80 <___vfprintf_internal_r+0x1eb0>
    2580:	008011c4 	movi	r2,71
    2584:	b081f726 	beq	r22,r2,2d64 <___vfprintf_internal_r+0x1e94>
    2588:	d9003817 	ldw	r4,224(sp)
    258c:	90c04014 	ori	r3,r18,256
    2590:	d8c02b15 	stw	r3,172(sp)
    2594:	20021516 	blt	r4,zero,2dec <___vfprintf_internal_r+0x1f1c>
    2598:	dcc03817 	ldw	r19,224(sp)
    259c:	d8002a05 	stb	zero,168(sp)
    25a0:	00801984 	movi	r2,102
    25a4:	8881f926 	beq	r17,r2,2d8c <___vfprintf_internal_r+0x1ebc>
    25a8:	00801184 	movi	r2,70
    25ac:	88821c26 	beq	r17,r2,2e20 <___vfprintf_internal_r+0x1f50>
    25b0:	00801144 	movi	r2,69
    25b4:	b081ef26 	beq	r22,r2,2d74 <___vfprintf_internal_r+0x1ea4>
    25b8:	d8c02917 	ldw	r3,164(sp)
    25bc:	d8802104 	addi	r2,sp,132
    25c0:	d8800315 	stw	r2,12(sp)
    25c4:	d9403617 	ldw	r5,216(sp)
    25c8:	d8802504 	addi	r2,sp,148
    25cc:	d9002c17 	ldw	r4,176(sp)
    25d0:	d8800215 	stw	r2,8(sp)
    25d4:	d8802604 	addi	r2,sp,152
    25d8:	d8c00015 	stw	r3,0(sp)
    25dc:	d8800115 	stw	r2,4(sp)
    25e0:	01c00084 	movi	r7,2
    25e4:	980d883a 	mov	r6,r19
    25e8:	d8c03c15 	stw	r3,240(sp)
    25ec:	da003d15 	stw	r8,244(sp)
    25f0:	00034f40 	call	34f4 <_dtoa_r>
    25f4:	1021883a 	mov	r16,r2
    25f8:	008019c4 	movi	r2,103
    25fc:	d8c03c17 	ldw	r3,240(sp)
    2600:	da003d17 	ldw	r8,244(sp)
    2604:	88817126 	beq	r17,r2,2bcc <___vfprintf_internal_r+0x1cfc>
    2608:	008011c4 	movi	r2,71
    260c:	88829226 	beq	r17,r2,3058 <___vfprintf_internal_r+0x2188>
    2610:	80f9883a 	add	fp,r16,r3
    2614:	d9003617 	ldw	r4,216(sp)
    2618:	000d883a 	mov	r6,zero
    261c:	000f883a 	mov	r7,zero
    2620:	980b883a 	mov	r5,r19
    2624:	da003d15 	stw	r8,244(sp)
    2628:	000c1440 	call	c144 <__eqdf2>
    262c:	da003d17 	ldw	r8,244(sp)
    2630:	10018d26 	beq	r2,zero,2c68 <___vfprintf_internal_r+0x1d98>
    2634:	d8802117 	ldw	r2,132(sp)
    2638:	1700062e 	bgeu	r2,fp,2654 <___vfprintf_internal_r+0x1784>
    263c:	01000c04 	movi	r4,48
    2640:	10c00044 	addi	r3,r2,1
    2644:	d8c02115 	stw	r3,132(sp)
    2648:	11000005 	stb	r4,0(r2)
    264c:	d8802117 	ldw	r2,132(sp)
    2650:	173ffb36 	bltu	r2,fp,2640 <__alt_mem_VGA_Subsystem_Char_Buf_Subsystem_Onchip_SRAM+0xf7002640>
    2654:	1405c83a 	sub	r2,r2,r16
    2658:	d8803315 	stw	r2,204(sp)
    265c:	008011c4 	movi	r2,71
    2660:	b0817626 	beq	r22,r2,2c3c <___vfprintf_internal_r+0x1d6c>
    2664:	00801944 	movi	r2,101
    2668:	1442810e 	bge	r2,r17,3070 <___vfprintf_internal_r+0x21a0>
    266c:	d8c02617 	ldw	r3,152(sp)
    2670:	00801984 	movi	r2,102
    2674:	d8c03215 	stw	r3,200(sp)
    2678:	8881fe26 	beq	r17,r2,2e74 <___vfprintf_internal_r+0x1fa4>
    267c:	d8c03217 	ldw	r3,200(sp)
    2680:	d9003317 	ldw	r4,204(sp)
    2684:	1901dd16 	blt	r3,r4,2dfc <___vfprintf_internal_r+0x1f2c>
    2688:	9480004c 	andi	r18,r18,1
    268c:	90022b1e 	bne	r18,zero,2f3c <___vfprintf_internal_r+0x206c>
    2690:	1805883a 	mov	r2,r3
    2694:	18028016 	blt	r3,zero,3098 <___vfprintf_internal_r+0x21c8>
    2698:	d8c03217 	ldw	r3,200(sp)
    269c:	044019c4 	movi	r17,103
    26a0:	d8c02e15 	stw	r3,184(sp)
    26a4:	df002a07 	ldb	fp,168(sp)
    26a8:	e001531e 	bne	fp,zero,2bf8 <___vfprintf_internal_r+0x1d28>
    26ac:	df002783 	ldbu	fp,158(sp)
    26b0:	d8802a15 	stw	r2,168(sp)
    26b4:	dc802b17 	ldw	r18,172(sp)
    26b8:	d8002915 	stw	zero,164(sp)
    26bc:	003bd106 	br	1604 <__alt_mem_VGA_Subsystem_Char_Buf_Subsystem_Onchip_SRAM+0xf7001604>
    26c0:	d8802d17 	ldw	r2,180(sp)
    26c4:	d8c02d17 	ldw	r3,180(sp)
    26c8:	d9002d17 	ldw	r4,180(sp)
    26cc:	10800017 	ldw	r2,0(r2)
    26d0:	18c00117 	ldw	r3,4(r3)
    26d4:	21000204 	addi	r4,r4,8
    26d8:	d8803615 	stw	r2,216(sp)
    26dc:	d8c03815 	stw	r3,224(sp)
    26e0:	d9002d15 	stw	r4,180(sp)
    26e4:	003b7506 	br	14bc <__alt_mem_VGA_Subsystem_Char_Buf_Subsystem_Onchip_SRAM+0xf70014bc>
    26e8:	ac400007 	ldb	r17,0(r21)
    26ec:	003a5906 	br	1054 <__alt_mem_VGA_Subsystem_Char_Buf_Subsystem_Onchip_SRAM+0xf7001054>
    26f0:	9080100c 	andi	r2,r18,64
    26f4:	1000a826 	beq	r2,zero,2998 <___vfprintf_internal_r+0x1ac8>
    26f8:	d9002d17 	ldw	r4,180(sp)
    26fc:	002d883a 	mov	r22,zero
    2700:	24c0000b 	ldhu	r19,0(r4)
    2704:	21000104 	addi	r4,r4,4
    2708:	d9002d15 	stw	r4,180(sp)
    270c:	003ccb06 	br	1a3c <__alt_mem_VGA_Subsystem_Char_Buf_Subsystem_Onchip_SRAM+0xf7001a3c>
    2710:	d8c02d17 	ldw	r3,180(sp)
    2714:	d9002917 	ldw	r4,164(sp)
    2718:	002d883a 	mov	r22,zero
    271c:	18800104 	addi	r2,r3,4
    2720:	1cc00017 	ldw	r19,0(r3)
    2724:	203ebb0e 	bge	r4,zero,2214 <__alt_mem_VGA_Subsystem_Char_Buf_Subsystem_Onchip_SRAM+0xf7002214>
    2728:	003ef106 	br	22f0 <__alt_mem_VGA_Subsystem_Char_Buf_Subsystem_Onchip_SRAM+0xf70022f0>
    272c:	9080040c 	andi	r2,r18,16
    2730:	1000921e 	bne	r2,zero,297c <___vfprintf_internal_r+0x1aac>
    2734:	9480100c 	andi	r18,r18,64
    2738:	90013926 	beq	r18,zero,2c20 <___vfprintf_internal_r+0x1d50>
    273c:	d9002d17 	ldw	r4,180(sp)
    2740:	d9402f17 	ldw	r5,188(sp)
    2744:	20800017 	ldw	r2,0(r4)
    2748:	21000104 	addi	r4,r4,4
    274c:	d9002d15 	stw	r4,180(sp)
    2750:	1140000d 	sth	r5,0(r2)
    2754:	003a1606 	br	fb0 <__alt_mem_VGA_Subsystem_Char_Buf_Subsystem_Onchip_SRAM+0xf7000fb0>
    2758:	9080100c 	andi	r2,r18,64
    275c:	10008026 	beq	r2,zero,2960 <___vfprintf_internal_r+0x1a90>
    2760:	d8c02d17 	ldw	r3,180(sp)
    2764:	1cc0000f 	ldh	r19,0(r3)
    2768:	18c00104 	addi	r3,r3,4
    276c:	d8c02d15 	stw	r3,180(sp)
    2770:	982dd7fa 	srai	r22,r19,31
    2774:	b005883a 	mov	r2,r22
    2778:	003b1f06 	br	13f8 <__alt_mem_VGA_Subsystem_Char_Buf_Subsystem_Onchip_SRAM+0xf70013f8>
    277c:	9080100c 	andi	r2,r18,64
    2780:	d8002785 	stb	zero,158(sp)
    2784:	10008a1e 	bne	r2,zero,29b0 <___vfprintf_internal_r+0x1ae0>
    2788:	d9402d17 	ldw	r5,180(sp)
    278c:	d8c02917 	ldw	r3,164(sp)
    2790:	002d883a 	mov	r22,zero
    2794:	28800104 	addi	r2,r5,4
    2798:	2cc00017 	ldw	r19,0(r5)
    279c:	183e4b0e 	bge	r3,zero,20cc <__alt_mem_VGA_Subsystem_Char_Buf_Subsystem_Onchip_SRAM+0xf70020cc>
    27a0:	9d86b03a 	or	r3,r19,r22
    27a4:	d8802d15 	stw	r2,180(sp)
    27a8:	183e4c1e 	bne	r3,zero,20dc <__alt_mem_VGA_Subsystem_Char_Buf_Subsystem_Onchip_SRAM+0xf70020dc>
    27ac:	0039883a 	mov	fp,zero
    27b0:	0005883a 	mov	r2,zero
    27b4:	003d4006 	br	1cb8 <__alt_mem_VGA_Subsystem_Char_Buf_Subsystem_Onchip_SRAM+0xf7001cb8>
    27b8:	014000b4 	movhi	r5,2
    27bc:	2967dc84 	addi	r5,r5,-24718
    27c0:	d9402b15 	stw	r5,172(sp)
    27c4:	d9402b17 	ldw	r5,172(sp)
    27c8:	1c47883a 	add	r3,r3,r17
    27cc:	10800044 	addi	r2,r2,1
    27d0:	41400015 	stw	r5,0(r8)
    27d4:	44400115 	stw	r17,4(r8)
    27d8:	d8c02015 	stw	r3,128(sp)
    27dc:	d8801f15 	stw	r2,124(sp)
    27e0:	010001c4 	movi	r4,7
    27e4:	20bec816 	blt	r4,r2,2308 <__alt_mem_VGA_Subsystem_Char_Buf_Subsystem_Onchip_SRAM+0xf7002308>
    27e8:	42000204 	addi	r8,r8,8
    27ec:	003ecd06 	br	2324 <__alt_mem_VGA_Subsystem_Char_Buf_Subsystem_Onchip_SRAM+0xf7002324>
    27f0:	d9002917 	ldw	r4,164(sp)
    27f4:	d8002785 	stb	zero,158(sp)
    27f8:	203d2d16 	blt	r4,zero,1cb0 <__alt_mem_VGA_Subsystem_Char_Buf_Subsystem_Onchip_SRAM+0xf7001cb0>
    27fc:	00bfdfc4 	movi	r2,-129
    2800:	90a4703a 	and	r18,r18,r2
    2804:	003a9106 	br	124c <__alt_mem_VGA_Subsystem_Char_Buf_Subsystem_Onchip_SRAM+0xf700124c>
    2808:	010000b4 	movhi	r4,2
    280c:	2127dc84 	addi	r4,r4,-24718
    2810:	d9002b15 	stw	r4,172(sp)
    2814:	003c0c06 	br	1848 <__alt_mem_VGA_Subsystem_Char_Buf_Subsystem_Onchip_SRAM+0xf7001848>
    2818:	d9002c17 	ldw	r4,176(sp)
    281c:	d9801e04 	addi	r6,sp,120
    2820:	b80b883a 	mov	r5,r23
    2824:	00084cc0 	call	84cc <__sprint_r>
    2828:	103aab1e 	bne	r2,zero,12d8 <__alt_mem_VGA_Subsystem_Char_Buf_Subsystem_Onchip_SRAM+0xf70012d8>
    282c:	d8c02017 	ldw	r3,128(sp)
    2830:	da000404 	addi	r8,sp,16
    2834:	003d4106 	br	1d3c <__alt_mem_VGA_Subsystem_Char_Buf_Subsystem_Onchip_SRAM+0xf7001d3c>
    2838:	d8801f17 	ldw	r2,124(sp)
    283c:	014000b4 	movhi	r5,2
    2840:	01000044 	movi	r4,1
    2844:	18c00044 	addi	r3,r3,1
    2848:	10800044 	addi	r2,r2,1
    284c:	2967dc04 	addi	r5,r5,-24720
    2850:	41000115 	stw	r4,4(r8)
    2854:	41400015 	stw	r5,0(r8)
    2858:	d8c02015 	stw	r3,128(sp)
    285c:	d8801f15 	stw	r2,124(sp)
    2860:	010001c4 	movi	r4,7
    2864:	20805c16 	blt	r4,r2,29d8 <___vfprintf_internal_r+0x1b08>
    2868:	42000204 	addi	r8,r8,8
    286c:	8800041e 	bne	r17,zero,2880 <___vfprintf_internal_r+0x19b0>
    2870:	d8803317 	ldw	r2,204(sp)
    2874:	1000021e 	bne	r2,zero,2880 <___vfprintf_internal_r+0x19b0>
    2878:	9080004c 	andi	r2,r18,1
    287c:	103c0926 	beq	r2,zero,18a4 <__alt_mem_VGA_Subsystem_Char_Buf_Subsystem_Onchip_SRAM+0xf70018a4>
    2880:	d9003717 	ldw	r4,220(sp)
    2884:	d8801f17 	ldw	r2,124(sp)
    2888:	d9403417 	ldw	r5,208(sp)
    288c:	20c7883a 	add	r3,r4,r3
    2890:	10800044 	addi	r2,r2,1
    2894:	41000115 	stw	r4,4(r8)
    2898:	41400015 	stw	r5,0(r8)
    289c:	d8c02015 	stw	r3,128(sp)
    28a0:	d8801f15 	stw	r2,124(sp)
    28a4:	010001c4 	movi	r4,7
    28a8:	20812116 	blt	r4,r2,2d30 <___vfprintf_internal_r+0x1e60>
    28ac:	42000204 	addi	r8,r8,8
    28b0:	0463c83a 	sub	r17,zero,r17
    28b4:	0440730e 	bge	zero,r17,2a84 <___vfprintf_internal_r+0x1bb4>
    28b8:	05800404 	movi	r22,16
    28bc:	b440860e 	bge	r22,r17,2ad8 <___vfprintf_internal_r+0x1c08>
    28c0:	014000b4 	movhi	r5,2
    28c4:	2967dc84 	addi	r5,r5,-24718
    28c8:	d9402b15 	stw	r5,172(sp)
    28cc:	070001c4 	movi	fp,7
    28d0:	dcc02c17 	ldw	r19,176(sp)
    28d4:	00000306 	br	28e4 <___vfprintf_internal_r+0x1a14>
    28d8:	42000204 	addi	r8,r8,8
    28dc:	8c7ffc04 	addi	r17,r17,-16
    28e0:	b440800e 	bge	r22,r17,2ae4 <___vfprintf_internal_r+0x1c14>
    28e4:	18c00404 	addi	r3,r3,16
    28e8:	10800044 	addi	r2,r2,1
    28ec:	45000015 	stw	r20,0(r8)
    28f0:	45800115 	stw	r22,4(r8)
    28f4:	d8c02015 	stw	r3,128(sp)
    28f8:	d8801f15 	stw	r2,124(sp)
    28fc:	e0bff60e 	bge	fp,r2,28d8 <__alt_mem_VGA_Subsystem_Char_Buf_Subsystem_Onchip_SRAM+0xf70028d8>
    2900:	d9801e04 	addi	r6,sp,120
    2904:	b80b883a 	mov	r5,r23
    2908:	9809883a 	mov	r4,r19
    290c:	00084cc0 	call	84cc <__sprint_r>
    2910:	103a711e 	bne	r2,zero,12d8 <__alt_mem_VGA_Subsystem_Char_Buf_Subsystem_Onchip_SRAM+0xf70012d8>
    2914:	d8c02017 	ldw	r3,128(sp)
    2918:	d8801f17 	ldw	r2,124(sp)
    291c:	da000404 	addi	r8,sp,16
    2920:	003fee06 	br	28dc <__alt_mem_VGA_Subsystem_Char_Buf_Subsystem_Onchip_SRAM+0xf70028dc>
    2924:	00bfffc4 	movi	r2,-1
    2928:	003a6f06 	br	12e8 <__alt_mem_VGA_Subsystem_Char_Buf_Subsystem_Onchip_SRAM+0xf70012e8>
    292c:	008011c4 	movi	r2,71
    2930:	1440b816 	blt	r2,r17,2c14 <___vfprintf_internal_r+0x1d44>
    2934:	040000b4 	movhi	r16,2
    2938:	8427ce04 	addi	r16,r16,-24776
    293c:	00c000c4 	movi	r3,3
    2940:	00bfdfc4 	movi	r2,-129
    2944:	d8c02a15 	stw	r3,168(sp)
    2948:	90a4703a 	and	r18,r18,r2
    294c:	df002783 	ldbu	fp,158(sp)
    2950:	d8c02e15 	stw	r3,184(sp)
    2954:	d8002915 	stw	zero,164(sp)
    2958:	d8003215 	stw	zero,200(sp)
    295c:	003b2906 	br	1604 <__alt_mem_VGA_Subsystem_Char_Buf_Subsystem_Onchip_SRAM+0xf7001604>
    2960:	d9002d17 	ldw	r4,180(sp)
    2964:	24c00017 	ldw	r19,0(r4)
    2968:	21000104 	addi	r4,r4,4
    296c:	d9002d15 	stw	r4,180(sp)
    2970:	982dd7fa 	srai	r22,r19,31
    2974:	b005883a 	mov	r2,r22
    2978:	003a9f06 	br	13f8 <__alt_mem_VGA_Subsystem_Char_Buf_Subsystem_Onchip_SRAM+0xf70013f8>
    297c:	d9402d17 	ldw	r5,180(sp)
    2980:	d8c02f17 	ldw	r3,188(sp)
    2984:	28800017 	ldw	r2,0(r5)
    2988:	29400104 	addi	r5,r5,4
    298c:	d9402d15 	stw	r5,180(sp)
    2990:	10c00015 	stw	r3,0(r2)
    2994:	00398606 	br	fb0 <__alt_mem_VGA_Subsystem_Char_Buf_Subsystem_Onchip_SRAM+0xf7000fb0>
    2998:	d9402d17 	ldw	r5,180(sp)
    299c:	002d883a 	mov	r22,zero
    29a0:	2cc00017 	ldw	r19,0(r5)
    29a4:	29400104 	addi	r5,r5,4
    29a8:	d9402d15 	stw	r5,180(sp)
    29ac:	003c2306 	br	1a3c <__alt_mem_VGA_Subsystem_Char_Buf_Subsystem_Onchip_SRAM+0xf7001a3c>
    29b0:	d8c02d17 	ldw	r3,180(sp)
    29b4:	d9002917 	ldw	r4,164(sp)
    29b8:	002d883a 	mov	r22,zero
    29bc:	18800104 	addi	r2,r3,4
    29c0:	1cc0000b 	ldhu	r19,0(r3)
    29c4:	203dc10e 	bge	r4,zero,20cc <__alt_mem_VGA_Subsystem_Char_Buf_Subsystem_Onchip_SRAM+0xf70020cc>
    29c8:	003f7506 	br	27a0 <__alt_mem_VGA_Subsystem_Char_Buf_Subsystem_Onchip_SRAM+0xf70027a0>
    29cc:	040000b4 	movhi	r16,2
    29d0:	8427cc04 	addi	r16,r16,-24784
    29d4:	003acc06 	br	1508 <__alt_mem_VGA_Subsystem_Char_Buf_Subsystem_Onchip_SRAM+0xf7001508>
    29d8:	d9002c17 	ldw	r4,176(sp)
    29dc:	d9801e04 	addi	r6,sp,120
    29e0:	b80b883a 	mov	r5,r23
    29e4:	00084cc0 	call	84cc <__sprint_r>
    29e8:	103a3b1e 	bne	r2,zero,12d8 <__alt_mem_VGA_Subsystem_Char_Buf_Subsystem_Onchip_SRAM+0xf70012d8>
    29ec:	dc402617 	ldw	r17,152(sp)
    29f0:	d8c02017 	ldw	r3,128(sp)
    29f4:	da000404 	addi	r8,sp,16
    29f8:	003f9c06 	br	286c <__alt_mem_VGA_Subsystem_Char_Buf_Subsystem_Onchip_SRAM+0xf700286c>
    29fc:	ac400043 	ldbu	r17,1(r21)
    2a00:	94800814 	ori	r18,r18,32
    2a04:	ad400044 	addi	r21,r21,1
    2a08:	8c403fcc 	andi	r17,r17,255
    2a0c:	8c40201c 	xori	r17,r17,128
    2a10:	8c7fe004 	addi	r17,r17,-128
    2a14:	00398f06 	br	1054 <__alt_mem_VGA_Subsystem_Char_Buf_Subsystem_Onchip_SRAM+0xf7001054>
    2a18:	d8c02d15 	stw	r3,180(sp)
    2a1c:	0039883a 	mov	fp,zero
    2a20:	003e3506 	br	22f8 <__alt_mem_VGA_Subsystem_Char_Buf_Subsystem_Onchip_SRAM+0xf70022f8>
    2a24:	d9002c17 	ldw	r4,176(sp)
    2a28:	d9801e04 	addi	r6,sp,120
    2a2c:	b80b883a 	mov	r5,r23
    2a30:	00084cc0 	call	84cc <__sprint_r>
    2a34:	103a281e 	bne	r2,zero,12d8 <__alt_mem_VGA_Subsystem_Char_Buf_Subsystem_Onchip_SRAM+0xf70012d8>
    2a38:	d8c02017 	ldw	r3,128(sp)
    2a3c:	da000404 	addi	r8,sp,16
    2a40:	003cd006 	br	1d84 <__alt_mem_VGA_Subsystem_Char_Buf_Subsystem_Onchip_SRAM+0xf7001d84>
    2a44:	8009883a 	mov	r4,r16
    2a48:	da003d15 	stw	r8,244(sp)
    2a4c:	0000e380 	call	e38 <strlen>
    2a50:	d8802e15 	stw	r2,184(sp)
    2a54:	da003d17 	ldw	r8,244(sp)
    2a58:	103c340e 	bge	r2,zero,1b2c <__alt_mem_VGA_Subsystem_Char_Buf_Subsystem_Onchip_SRAM+0xf7001b2c>
    2a5c:	0005883a 	mov	r2,zero
    2a60:	003c3206 	br	1b2c <__alt_mem_VGA_Subsystem_Char_Buf_Subsystem_Onchip_SRAM+0xf7001b2c>
    2a64:	d9002c17 	ldw	r4,176(sp)
    2a68:	d9801e04 	addi	r6,sp,120
    2a6c:	b80b883a 	mov	r5,r23
    2a70:	00084cc0 	call	84cc <__sprint_r>
    2a74:	103a181e 	bne	r2,zero,12d8 <__alt_mem_VGA_Subsystem_Char_Buf_Subsystem_Onchip_SRAM+0xf70012d8>
    2a78:	d8c02017 	ldw	r3,128(sp)
    2a7c:	d8801f17 	ldw	r2,124(sp)
    2a80:	da000404 	addi	r8,sp,16
    2a84:	d9403317 	ldw	r5,204(sp)
    2a88:	10800044 	addi	r2,r2,1
    2a8c:	44000015 	stw	r16,0(r8)
    2a90:	28c7883a 	add	r3,r5,r3
    2a94:	003b7d06 	br	188c <__alt_mem_VGA_Subsystem_Char_Buf_Subsystem_Onchip_SRAM+0xf700188c>
    2a98:	010000b4 	movhi	r4,2
    2a9c:	2127e084 	addi	r4,r4,-24702
    2aa0:	d9003515 	stw	r4,212(sp)
    2aa4:	003b1406 	br	16f8 <__alt_mem_VGA_Subsystem_Char_Buf_Subsystem_Onchip_SRAM+0xf70016f8>
    2aa8:	013fffc4 	movi	r4,-1
    2aac:	003a3506 	br	1384 <__alt_mem_VGA_Subsystem_Char_Buf_Subsystem_Onchip_SRAM+0xf7001384>
    2ab0:	0023883a 	mov	r17,zero
    2ab4:	003d9d06 	br	212c <__alt_mem_VGA_Subsystem_Char_Buf_Subsystem_Onchip_SRAM+0xf700212c>
    2ab8:	d9002c17 	ldw	r4,176(sp)
    2abc:	d9801e04 	addi	r6,sp,120
    2ac0:	b80b883a 	mov	r5,r23
    2ac4:	00084cc0 	call	84cc <__sprint_r>
    2ac8:	103a031e 	bne	r2,zero,12d8 <__alt_mem_VGA_Subsystem_Char_Buf_Subsystem_Onchip_SRAM+0xf70012d8>
    2acc:	d8c02017 	ldw	r3,128(sp)
    2ad0:	da000404 	addi	r8,sp,16
    2ad4:	003d9406 	br	2128 <__alt_mem_VGA_Subsystem_Char_Buf_Subsystem_Onchip_SRAM+0xf7002128>
    2ad8:	010000b4 	movhi	r4,2
    2adc:	2127dc84 	addi	r4,r4,-24718
    2ae0:	d9002b15 	stw	r4,172(sp)
    2ae4:	d9002b17 	ldw	r4,172(sp)
    2ae8:	1c47883a 	add	r3,r3,r17
    2aec:	10800044 	addi	r2,r2,1
    2af0:	41000015 	stw	r4,0(r8)
    2af4:	44400115 	stw	r17,4(r8)
    2af8:	d8c02015 	stw	r3,128(sp)
    2afc:	d8801f15 	stw	r2,124(sp)
    2b00:	010001c4 	movi	r4,7
    2b04:	20bfd716 	blt	r4,r2,2a64 <__alt_mem_VGA_Subsystem_Char_Buf_Subsystem_Onchip_SRAM+0xf7002a64>
    2b08:	42000204 	addi	r8,r8,8
    2b0c:	003fdd06 	br	2a84 <__alt_mem_VGA_Subsystem_Char_Buf_Subsystem_Onchip_SRAM+0xf7002a84>
    2b10:	d9002c17 	ldw	r4,176(sp)
    2b14:	d9801e04 	addi	r6,sp,120
    2b18:	b80b883a 	mov	r5,r23
    2b1c:	00084cc0 	call	84cc <__sprint_r>
    2b20:	1039ed1e 	bne	r2,zero,12d8 <__alt_mem_VGA_Subsystem_Char_Buf_Subsystem_Onchip_SRAM+0xf70012d8>
    2b24:	d8802617 	ldw	r2,152(sp)
    2b28:	d8c02017 	ldw	r3,128(sp)
    2b2c:	da000404 	addi	r8,sp,16
    2b30:	003e1006 	br	2374 <__alt_mem_VGA_Subsystem_Char_Buf_Subsystem_Onchip_SRAM+0xf7002374>
    2b34:	00800044 	movi	r2,1
    2b38:	10803fcc 	andi	r2,r2,255
    2b3c:	00c00044 	movi	r3,1
    2b40:	10fa3526 	beq	r2,r3,1418 <__alt_mem_VGA_Subsystem_Char_Buf_Subsystem_Onchip_SRAM+0xf7001418>
    2b44:	00c00084 	movi	r3,2
    2b48:	10fbcb26 	beq	r2,r3,1a78 <__alt_mem_VGA_Subsystem_Char_Buf_Subsystem_Onchip_SRAM+0xf7001a78>
    2b4c:	003a8f06 	br	158c <__alt_mem_VGA_Subsystem_Char_Buf_Subsystem_Onchip_SRAM+0xf700158c>
    2b50:	010000b4 	movhi	r4,2
    2b54:	2127e084 	addi	r4,r4,-24702
    2b58:	d9003515 	stw	r4,212(sp)
    2b5c:	003b7606 	br	1938 <__alt_mem_VGA_Subsystem_Char_Buf_Subsystem_Onchip_SRAM+0xf7001938>
    2b60:	d8802917 	ldw	r2,164(sp)
    2b64:	00c00184 	movi	r3,6
    2b68:	1880012e 	bgeu	r3,r2,2b70 <___vfprintf_internal_r+0x1ca0>
    2b6c:	1805883a 	mov	r2,r3
    2b70:	d8802e15 	stw	r2,184(sp)
    2b74:	1000ef16 	blt	r2,zero,2f34 <___vfprintf_internal_r+0x2064>
    2b78:	040000b4 	movhi	r16,2
    2b7c:	d8802a15 	stw	r2,168(sp)
    2b80:	dcc02d15 	stw	r19,180(sp)
    2b84:	d8002915 	stw	zero,164(sp)
    2b88:	d8003215 	stw	zero,200(sp)
    2b8c:	8427da04 	addi	r16,r16,-24728
    2b90:	0039883a 	mov	fp,zero
    2b94:	003aa206 	br	1620 <__alt_mem_VGA_Subsystem_Char_Buf_Subsystem_Onchip_SRAM+0xf7001620>
    2b98:	0021883a 	mov	r16,zero
    2b9c:	003e0706 	br	23bc <__alt_mem_VGA_Subsystem_Char_Buf_Subsystem_Onchip_SRAM+0xf70023bc>
    2ba0:	d9002c17 	ldw	r4,176(sp)
    2ba4:	d9801e04 	addi	r6,sp,120
    2ba8:	b80b883a 	mov	r5,r23
    2bac:	00084cc0 	call	84cc <__sprint_r>
    2bb0:	1039c91e 	bne	r2,zero,12d8 <__alt_mem_VGA_Subsystem_Char_Buf_Subsystem_Onchip_SRAM+0xf70012d8>
    2bb4:	d8802617 	ldw	r2,152(sp)
    2bb8:	d9403317 	ldw	r5,204(sp)
    2bbc:	d8c02017 	ldw	r3,128(sp)
    2bc0:	da000404 	addi	r8,sp,16
    2bc4:	2885c83a 	sub	r2,r5,r2
    2bc8:	003dfb06 	br	23b8 <__alt_mem_VGA_Subsystem_Char_Buf_Subsystem_Onchip_SRAM+0xf70023b8>
    2bcc:	9080004c 	andi	r2,r18,1
    2bd0:	103e8f1e 	bne	r2,zero,2610 <__alt_mem_VGA_Subsystem_Char_Buf_Subsystem_Onchip_SRAM+0xf7002610>
    2bd4:	d8802117 	ldw	r2,132(sp)
    2bd8:	003e9e06 	br	2654 <__alt_mem_VGA_Subsystem_Char_Buf_Subsystem_Onchip_SRAM+0xf7002654>
    2bdc:	1025883a 	mov	r18,r2
    2be0:	0039883a 	mov	fp,zero
    2be4:	00800084 	movi	r2,2
    2be8:	003fd306 	br	2b38 <__alt_mem_VGA_Subsystem_Char_Buf_Subsystem_Onchip_SRAM+0xf7002b38>
    2bec:	07000b44 	movi	fp,45
    2bf0:	df002785 	stb	fp,158(sp)
    2bf4:	003a4006 	br	14f8 <__alt_mem_VGA_Subsystem_Char_Buf_Subsystem_Onchip_SRAM+0xf70014f8>
    2bf8:	00c00b44 	movi	r3,45
    2bfc:	d8c02785 	stb	r3,158(sp)
    2c00:	d8802a15 	stw	r2,168(sp)
    2c04:	dc802b17 	ldw	r18,172(sp)
    2c08:	d8002915 	stw	zero,164(sp)
    2c0c:	07000b44 	movi	fp,45
    2c10:	003a8006 	br	1614 <__alt_mem_VGA_Subsystem_Char_Buf_Subsystem_Onchip_SRAM+0xf7001614>
    2c14:	040000b4 	movhi	r16,2
    2c18:	8427cf04 	addi	r16,r16,-24772
    2c1c:	003f4706 	br	293c <__alt_mem_VGA_Subsystem_Char_Buf_Subsystem_Onchip_SRAM+0xf700293c>
    2c20:	d8c02d17 	ldw	r3,180(sp)
    2c24:	d9002f17 	ldw	r4,188(sp)
    2c28:	18800017 	ldw	r2,0(r3)
    2c2c:	18c00104 	addi	r3,r3,4
    2c30:	d8c02d15 	stw	r3,180(sp)
    2c34:	11000015 	stw	r4,0(r2)
    2c38:	0038dd06 	br	fb0 <__alt_mem_VGA_Subsystem_Char_Buf_Subsystem_Onchip_SRAM+0xf7000fb0>
    2c3c:	dd802617 	ldw	r22,152(sp)
    2c40:	00bfff44 	movi	r2,-3
    2c44:	b0801c16 	blt	r22,r2,2cb8 <___vfprintf_internal_r+0x1de8>
    2c48:	d9402917 	ldw	r5,164(sp)
    2c4c:	2d801a16 	blt	r5,r22,2cb8 <___vfprintf_internal_r+0x1de8>
    2c50:	dd803215 	stw	r22,200(sp)
    2c54:	003e8906 	br	267c <__alt_mem_VGA_Subsystem_Char_Buf_Subsystem_Onchip_SRAM+0xf700267c>
    2c58:	010000b4 	movhi	r4,2
    2c5c:	2127dc84 	addi	r4,r4,-24718
    2c60:	d9002b15 	stw	r4,172(sp)
    2c64:	003c9106 	br	1eac <__alt_mem_VGA_Subsystem_Char_Buf_Subsystem_Onchip_SRAM+0xf7001eac>
    2c68:	e005883a 	mov	r2,fp
    2c6c:	003e7906 	br	2654 <__alt_mem_VGA_Subsystem_Char_Buf_Subsystem_Onchip_SRAM+0xf7002654>
    2c70:	d9402917 	ldw	r5,164(sp)
    2c74:	df002783 	ldbu	fp,158(sp)
    2c78:	dcc02d15 	stw	r19,180(sp)
    2c7c:	d9402a15 	stw	r5,168(sp)
    2c80:	d9402e15 	stw	r5,184(sp)
    2c84:	d8002915 	stw	zero,164(sp)
    2c88:	d8003215 	stw	zero,200(sp)
    2c8c:	003a5d06 	br	1604 <__alt_mem_VGA_Subsystem_Char_Buf_Subsystem_Onchip_SRAM+0xf7001604>
    2c90:	9080004c 	andi	r2,r18,1
    2c94:	0039883a 	mov	fp,zero
    2c98:	10000426 	beq	r2,zero,2cac <___vfprintf_internal_r+0x1ddc>
    2c9c:	00800c04 	movi	r2,48
    2ca0:	dc001dc4 	addi	r16,sp,119
    2ca4:	d8801dc5 	stb	r2,119(sp)
    2ca8:	003b8006 	br	1aac <__alt_mem_VGA_Subsystem_Char_Buf_Subsystem_Onchip_SRAM+0xf7001aac>
    2cac:	d8002e15 	stw	zero,184(sp)
    2cb0:	dc001e04 	addi	r16,sp,120
    2cb4:	003a4d06 	br	15ec <__alt_mem_VGA_Subsystem_Char_Buf_Subsystem_Onchip_SRAM+0xf70015ec>
    2cb8:	8c7fff84 	addi	r17,r17,-2
    2cbc:	b5bfffc4 	addi	r22,r22,-1
    2cc0:	dd802615 	stw	r22,152(sp)
    2cc4:	dc4022c5 	stb	r17,139(sp)
    2cc8:	b000bf16 	blt	r22,zero,2fc8 <___vfprintf_internal_r+0x20f8>
    2ccc:	00800ac4 	movi	r2,43
    2cd0:	d8802305 	stb	r2,140(sp)
    2cd4:	00800244 	movi	r2,9
    2cd8:	15807016 	blt	r2,r22,2e9c <___vfprintf_internal_r+0x1fcc>
    2cdc:	00800c04 	movi	r2,48
    2ce0:	b5800c04 	addi	r22,r22,48
    2ce4:	d8802345 	stb	r2,141(sp)
    2ce8:	dd802385 	stb	r22,142(sp)
    2cec:	d88023c4 	addi	r2,sp,143
    2cf0:	df0022c4 	addi	fp,sp,139
    2cf4:	d8c03317 	ldw	r3,204(sp)
    2cf8:	1739c83a 	sub	fp,r2,fp
    2cfc:	d9003317 	ldw	r4,204(sp)
    2d00:	e0c7883a 	add	r3,fp,r3
    2d04:	df003a15 	stw	fp,232(sp)
    2d08:	d8c02e15 	stw	r3,184(sp)
    2d0c:	00800044 	movi	r2,1
    2d10:	1100b30e 	bge	r2,r4,2fe0 <___vfprintf_internal_r+0x2110>
    2d14:	d8c02e17 	ldw	r3,184(sp)
    2d18:	18c00044 	addi	r3,r3,1
    2d1c:	d8c02e15 	stw	r3,184(sp)
    2d20:	1805883a 	mov	r2,r3
    2d24:	1800ac16 	blt	r3,zero,2fd8 <___vfprintf_internal_r+0x2108>
    2d28:	d8003215 	stw	zero,200(sp)
    2d2c:	003e5d06 	br	26a4 <__alt_mem_VGA_Subsystem_Char_Buf_Subsystem_Onchip_SRAM+0xf70026a4>
    2d30:	d9002c17 	ldw	r4,176(sp)
    2d34:	d9801e04 	addi	r6,sp,120
    2d38:	b80b883a 	mov	r5,r23
    2d3c:	00084cc0 	call	84cc <__sprint_r>
    2d40:	1039651e 	bne	r2,zero,12d8 <__alt_mem_VGA_Subsystem_Char_Buf_Subsystem_Onchip_SRAM+0xf70012d8>
    2d44:	dc402617 	ldw	r17,152(sp)
    2d48:	d8c02017 	ldw	r3,128(sp)
    2d4c:	d8801f17 	ldw	r2,124(sp)
    2d50:	da000404 	addi	r8,sp,16
    2d54:	003ed606 	br	28b0 <__alt_mem_VGA_Subsystem_Char_Buf_Subsystem_Onchip_SRAM+0xf70028b0>
    2d58:	582b883a 	mov	r21,r11
    2d5c:	d8002915 	stw	zero,164(sp)
    2d60:	0038bd06 	br	1058 <__alt_mem_VGA_Subsystem_Char_Buf_Subsystem_Onchip_SRAM+0xf7001058>
    2d64:	d8802917 	ldw	r2,164(sp)
    2d68:	103e071e 	bne	r2,zero,2588 <__alt_mem_VGA_Subsystem_Char_Buf_Subsystem_Onchip_SRAM+0xf7002588>
    2d6c:	dc002915 	stw	r16,164(sp)
    2d70:	003e0506 	br	2588 <__alt_mem_VGA_Subsystem_Char_Buf_Subsystem_Onchip_SRAM+0xf7002588>
    2d74:	d9002917 	ldw	r4,164(sp)
    2d78:	20c00044 	addi	r3,r4,1
    2d7c:	003e0f06 	br	25bc <__alt_mem_VGA_Subsystem_Char_Buf_Subsystem_Onchip_SRAM+0xf70025bc>
    2d80:	01400184 	movi	r5,6
    2d84:	d9402915 	stw	r5,164(sp)
    2d88:	003dff06 	br	2588 <__alt_mem_VGA_Subsystem_Char_Buf_Subsystem_Onchip_SRAM+0xf7002588>
    2d8c:	d8802104 	addi	r2,sp,132
    2d90:	d8800315 	stw	r2,12(sp)
    2d94:	d8802504 	addi	r2,sp,148
    2d98:	d8800215 	stw	r2,8(sp)
    2d9c:	d8802604 	addi	r2,sp,152
    2da0:	d8800115 	stw	r2,4(sp)
    2da4:	d8802917 	ldw	r2,164(sp)
    2da8:	d9403617 	ldw	r5,216(sp)
    2dac:	d9002c17 	ldw	r4,176(sp)
    2db0:	d8800015 	stw	r2,0(sp)
    2db4:	01c000c4 	movi	r7,3
    2db8:	980d883a 	mov	r6,r19
    2dbc:	da003d15 	stw	r8,244(sp)
    2dc0:	00034f40 	call	34f4 <_dtoa_r>
    2dc4:	d8c02917 	ldw	r3,164(sp)
    2dc8:	da003d17 	ldw	r8,244(sp)
    2dcc:	1021883a 	mov	r16,r2
    2dd0:	10f9883a 	add	fp,r2,r3
    2dd4:	81000007 	ldb	r4,0(r16)
    2dd8:	00800c04 	movi	r2,48
    2ddc:	20805e26 	beq	r4,r2,2f58 <___vfprintf_internal_r+0x2088>
    2de0:	d8c02617 	ldw	r3,152(sp)
    2de4:	e0f9883a 	add	fp,fp,r3
    2de8:	003e0a06 	br	2614 <__alt_mem_VGA_Subsystem_Char_Buf_Subsystem_Onchip_SRAM+0xf7002614>
    2dec:	00c00b44 	movi	r3,45
    2df0:	24e0003c 	xorhi	r19,r4,32768
    2df4:	d8c02a05 	stb	r3,168(sp)
    2df8:	003de906 	br	25a0 <__alt_mem_VGA_Subsystem_Char_Buf_Subsystem_Onchip_SRAM+0xf70025a0>
    2dfc:	d8c03217 	ldw	r3,200(sp)
    2e00:	00c07a0e 	bge	zero,r3,2fec <___vfprintf_internal_r+0x211c>
    2e04:	00800044 	movi	r2,1
    2e08:	d9003317 	ldw	r4,204(sp)
    2e0c:	1105883a 	add	r2,r2,r4
    2e10:	d8802e15 	stw	r2,184(sp)
    2e14:	10004e16 	blt	r2,zero,2f50 <___vfprintf_internal_r+0x2080>
    2e18:	044019c4 	movi	r17,103
    2e1c:	003e2106 	br	26a4 <__alt_mem_VGA_Subsystem_Char_Buf_Subsystem_Onchip_SRAM+0xf70026a4>
    2e20:	d9002917 	ldw	r4,164(sp)
    2e24:	d8802104 	addi	r2,sp,132
    2e28:	d8800315 	stw	r2,12(sp)
    2e2c:	d9000015 	stw	r4,0(sp)
    2e30:	d8802504 	addi	r2,sp,148
    2e34:	d9403617 	ldw	r5,216(sp)
    2e38:	d9002c17 	ldw	r4,176(sp)
    2e3c:	d8800215 	stw	r2,8(sp)
    2e40:	d8802604 	addi	r2,sp,152
    2e44:	d8800115 	stw	r2,4(sp)
    2e48:	01c000c4 	movi	r7,3
    2e4c:	980d883a 	mov	r6,r19
    2e50:	da003d15 	stw	r8,244(sp)
    2e54:	00034f40 	call	34f4 <_dtoa_r>
    2e58:	d8c02917 	ldw	r3,164(sp)
    2e5c:	da003d17 	ldw	r8,244(sp)
    2e60:	1021883a 	mov	r16,r2
    2e64:	00801184 	movi	r2,70
    2e68:	80f9883a 	add	fp,r16,r3
    2e6c:	88bfd926 	beq	r17,r2,2dd4 <__alt_mem_VGA_Subsystem_Char_Buf_Subsystem_Onchip_SRAM+0xf7002dd4>
    2e70:	003de806 	br	2614 <__alt_mem_VGA_Subsystem_Char_Buf_Subsystem_Onchip_SRAM+0xf7002614>
    2e74:	d9002917 	ldw	r4,164(sp)
    2e78:	00c04d0e 	bge	zero,r3,2fb0 <___vfprintf_internal_r+0x20e0>
    2e7c:	2000441e 	bne	r4,zero,2f90 <___vfprintf_internal_r+0x20c0>
    2e80:	9480004c 	andi	r18,r18,1
    2e84:	9000421e 	bne	r18,zero,2f90 <___vfprintf_internal_r+0x20c0>
    2e88:	1805883a 	mov	r2,r3
    2e8c:	18007016 	blt	r3,zero,3050 <___vfprintf_internal_r+0x2180>
    2e90:	d8c03217 	ldw	r3,200(sp)
    2e94:	d8c02e15 	stw	r3,184(sp)
    2e98:	003e0206 	br	26a4 <__alt_mem_VGA_Subsystem_Char_Buf_Subsystem_Onchip_SRAM+0xf70026a4>
    2e9c:	df0022c4 	addi	fp,sp,139
    2ea0:	dc002915 	stw	r16,164(sp)
    2ea4:	4027883a 	mov	r19,r8
    2ea8:	e021883a 	mov	r16,fp
    2eac:	b009883a 	mov	r4,r22
    2eb0:	01400284 	movi	r5,10
    2eb4:	000ae800 	call	ae80 <__modsi3>
    2eb8:	10800c04 	addi	r2,r2,48
    2ebc:	843fffc4 	addi	r16,r16,-1
    2ec0:	b009883a 	mov	r4,r22
    2ec4:	01400284 	movi	r5,10
    2ec8:	80800005 	stb	r2,0(r16)
    2ecc:	000adfc0 	call	adfc <__divsi3>
    2ed0:	102d883a 	mov	r22,r2
    2ed4:	00800244 	movi	r2,9
    2ed8:	15bff416 	blt	r2,r22,2eac <__alt_mem_VGA_Subsystem_Char_Buf_Subsystem_Onchip_SRAM+0xf7002eac>
    2edc:	9811883a 	mov	r8,r19
    2ee0:	b0800c04 	addi	r2,r22,48
    2ee4:	8027883a 	mov	r19,r16
    2ee8:	997fffc4 	addi	r5,r19,-1
    2eec:	98bfffc5 	stb	r2,-1(r19)
    2ef0:	dc002917 	ldw	r16,164(sp)
    2ef4:	2f006a2e 	bgeu	r5,fp,30a0 <___vfprintf_internal_r+0x21d0>
    2ef8:	d9c02384 	addi	r7,sp,142
    2efc:	3ccfc83a 	sub	r7,r7,r19
    2f00:	d9002344 	addi	r4,sp,141
    2f04:	e1cf883a 	add	r7,fp,r7
    2f08:	00000106 	br	2f10 <___vfprintf_internal_r+0x2040>
    2f0c:	28800003 	ldbu	r2,0(r5)
    2f10:	20800005 	stb	r2,0(r4)
    2f14:	21000044 	addi	r4,r4,1
    2f18:	29400044 	addi	r5,r5,1
    2f1c:	393ffb1e 	bne	r7,r4,2f0c <__alt_mem_VGA_Subsystem_Char_Buf_Subsystem_Onchip_SRAM+0xf7002f0c>
    2f20:	d8802304 	addi	r2,sp,140
    2f24:	14c5c83a 	sub	r2,r2,r19
    2f28:	d8c02344 	addi	r3,sp,141
    2f2c:	1885883a 	add	r2,r3,r2
    2f30:	003f7006 	br	2cf4 <__alt_mem_VGA_Subsystem_Char_Buf_Subsystem_Onchip_SRAM+0xf7002cf4>
    2f34:	0005883a 	mov	r2,zero
    2f38:	003f0f06 	br	2b78 <__alt_mem_VGA_Subsystem_Char_Buf_Subsystem_Onchip_SRAM+0xf7002b78>
    2f3c:	d8c03217 	ldw	r3,200(sp)
    2f40:	18c00044 	addi	r3,r3,1
    2f44:	d8c02e15 	stw	r3,184(sp)
    2f48:	1805883a 	mov	r2,r3
    2f4c:	183fb20e 	bge	r3,zero,2e18 <__alt_mem_VGA_Subsystem_Char_Buf_Subsystem_Onchip_SRAM+0xf7002e18>
    2f50:	0005883a 	mov	r2,zero
    2f54:	003fb006 	br	2e18 <__alt_mem_VGA_Subsystem_Char_Buf_Subsystem_Onchip_SRAM+0xf7002e18>
    2f58:	d9003617 	ldw	r4,216(sp)
    2f5c:	000d883a 	mov	r6,zero
    2f60:	000f883a 	mov	r7,zero
    2f64:	980b883a 	mov	r5,r19
    2f68:	d8c03c15 	stw	r3,240(sp)
    2f6c:	da003d15 	stw	r8,244(sp)
    2f70:	000c1440 	call	c144 <__eqdf2>
    2f74:	d8c03c17 	ldw	r3,240(sp)
    2f78:	da003d17 	ldw	r8,244(sp)
    2f7c:	103f9826 	beq	r2,zero,2de0 <__alt_mem_VGA_Subsystem_Char_Buf_Subsystem_Onchip_SRAM+0xf7002de0>
    2f80:	00800044 	movi	r2,1
    2f84:	10c7c83a 	sub	r3,r2,r3
    2f88:	d8c02615 	stw	r3,152(sp)
    2f8c:	003f9506 	br	2de4 <__alt_mem_VGA_Subsystem_Char_Buf_Subsystem_Onchip_SRAM+0xf7002de4>
    2f90:	d9002917 	ldw	r4,164(sp)
    2f94:	d8c03217 	ldw	r3,200(sp)
    2f98:	20800044 	addi	r2,r4,1
    2f9c:	1885883a 	add	r2,r3,r2
    2fa0:	d8802e15 	stw	r2,184(sp)
    2fa4:	103dbf0e 	bge	r2,zero,26a4 <__alt_mem_VGA_Subsystem_Char_Buf_Subsystem_Onchip_SRAM+0xf70026a4>
    2fa8:	0005883a 	mov	r2,zero
    2fac:	003dbd06 	br	26a4 <__alt_mem_VGA_Subsystem_Char_Buf_Subsystem_Onchip_SRAM+0xf70026a4>
    2fb0:	2000211e 	bne	r4,zero,3038 <___vfprintf_internal_r+0x2168>
    2fb4:	9480004c 	andi	r18,r18,1
    2fb8:	90001f1e 	bne	r18,zero,3038 <___vfprintf_internal_r+0x2168>
    2fbc:	00800044 	movi	r2,1
    2fc0:	d8802e15 	stw	r2,184(sp)
    2fc4:	003db706 	br	26a4 <__alt_mem_VGA_Subsystem_Char_Buf_Subsystem_Onchip_SRAM+0xf70026a4>
    2fc8:	00800b44 	movi	r2,45
    2fcc:	05adc83a 	sub	r22,zero,r22
    2fd0:	d8802305 	stb	r2,140(sp)
    2fd4:	003f3f06 	br	2cd4 <__alt_mem_VGA_Subsystem_Char_Buf_Subsystem_Onchip_SRAM+0xf7002cd4>
    2fd8:	0005883a 	mov	r2,zero
    2fdc:	003f5206 	br	2d28 <__alt_mem_VGA_Subsystem_Char_Buf_Subsystem_Onchip_SRAM+0xf7002d28>
    2fe0:	90a4703a 	and	r18,r18,r2
    2fe4:	903f4e26 	beq	r18,zero,2d20 <__alt_mem_VGA_Subsystem_Char_Buf_Subsystem_Onchip_SRAM+0xf7002d20>
    2fe8:	003f4a06 	br	2d14 <__alt_mem_VGA_Subsystem_Char_Buf_Subsystem_Onchip_SRAM+0xf7002d14>
    2fec:	00800084 	movi	r2,2
    2ff0:	10c5c83a 	sub	r2,r2,r3
    2ff4:	003f8406 	br	2e08 <__alt_mem_VGA_Subsystem_Char_Buf_Subsystem_Onchip_SRAM+0xf7002e08>
    2ff8:	d8802d17 	ldw	r2,180(sp)
    2ffc:	d9002d17 	ldw	r4,180(sp)
    3000:	ac400043 	ldbu	r17,1(r21)
    3004:	10800017 	ldw	r2,0(r2)
    3008:	582b883a 	mov	r21,r11
    300c:	d8802915 	stw	r2,164(sp)
    3010:	20800104 	addi	r2,r4,4
    3014:	d9002917 	ldw	r4,164(sp)
    3018:	d8802d15 	stw	r2,180(sp)
    301c:	203e7a0e 	bge	r4,zero,2a08 <__alt_mem_VGA_Subsystem_Char_Buf_Subsystem_Onchip_SRAM+0xf7002a08>
    3020:	8c403fcc 	andi	r17,r17,255
    3024:	00bfffc4 	movi	r2,-1
    3028:	8c40201c 	xori	r17,r17,128
    302c:	d8802915 	stw	r2,164(sp)
    3030:	8c7fe004 	addi	r17,r17,-128
    3034:	00380706 	br	1054 <__alt_mem_VGA_Subsystem_Char_Buf_Subsystem_Onchip_SRAM+0xf7001054>
    3038:	d8c02917 	ldw	r3,164(sp)
    303c:	18c00084 	addi	r3,r3,2
    3040:	d8c02e15 	stw	r3,184(sp)
    3044:	1805883a 	mov	r2,r3
    3048:	183d960e 	bge	r3,zero,26a4 <__alt_mem_VGA_Subsystem_Char_Buf_Subsystem_Onchip_SRAM+0xf70026a4>
    304c:	003fd606 	br	2fa8 <__alt_mem_VGA_Subsystem_Char_Buf_Subsystem_Onchip_SRAM+0xf7002fa8>
    3050:	0005883a 	mov	r2,zero
    3054:	003f8e06 	br	2e90 <__alt_mem_VGA_Subsystem_Char_Buf_Subsystem_Onchip_SRAM+0xf7002e90>
    3058:	9080004c 	andi	r2,r18,1
    305c:	103f811e 	bne	r2,zero,2e64 <__alt_mem_VGA_Subsystem_Char_Buf_Subsystem_Onchip_SRAM+0xf7002e64>
    3060:	d8802117 	ldw	r2,132(sp)
    3064:	1405c83a 	sub	r2,r2,r16
    3068:	d8803315 	stw	r2,204(sp)
    306c:	b47ef326 	beq	r22,r17,2c3c <__alt_mem_VGA_Subsystem_Char_Buf_Subsystem_Onchip_SRAM+0xf7002c3c>
    3070:	dd802617 	ldw	r22,152(sp)
    3074:	003f1106 	br	2cbc <__alt_mem_VGA_Subsystem_Char_Buf_Subsystem_Onchip_SRAM+0xf7002cbc>
    3078:	d9c02785 	stb	r7,158(sp)
    307c:	00390406 	br	1490 <__alt_mem_VGA_Subsystem_Char_Buf_Subsystem_Onchip_SRAM+0xf7001490>
    3080:	d9c02785 	stb	r7,158(sp)
    3084:	0038d306 	br	13d4 <__alt_mem_VGA_Subsystem_Char_Buf_Subsystem_Onchip_SRAM+0xf70013d4>
    3088:	d9c02785 	stb	r7,158(sp)
    308c:	003a6106 	br	1a14 <__alt_mem_VGA_Subsystem_Char_Buf_Subsystem_Onchip_SRAM+0xf7001a14>
    3090:	d9c02785 	stb	r7,158(sp)
    3094:	003af806 	br	1c78 <__alt_mem_VGA_Subsystem_Char_Buf_Subsystem_Onchip_SRAM+0xf7001c78>
    3098:	0005883a 	mov	r2,zero
    309c:	003d7e06 	br	2698 <__alt_mem_VGA_Subsystem_Char_Buf_Subsystem_Onchip_SRAM+0xf7002698>
    30a0:	d8802344 	addi	r2,sp,141
    30a4:	003f1306 	br	2cf4 <__alt_mem_VGA_Subsystem_Char_Buf_Subsystem_Onchip_SRAM+0xf7002cf4>
    30a8:	d9c02785 	stb	r7,158(sp)
    30ac:	00392306 	br	153c <__alt_mem_VGA_Subsystem_Char_Buf_Subsystem_Onchip_SRAM+0xf700153c>
    30b0:	d9c02785 	stb	r7,158(sp)
    30b4:	003aa906 	br	1b5c <__alt_mem_VGA_Subsystem_Char_Buf_Subsystem_Onchip_SRAM+0xf7001b5c>
    30b8:	d9c02785 	stb	r7,158(sp)
    30bc:	003a3d06 	br	19b4 <__alt_mem_VGA_Subsystem_Char_Buf_Subsystem_Onchip_SRAM+0xf70019b4>
    30c0:	d9c02785 	stb	r7,158(sp)
    30c4:	003aca06 	br	1bf0 <__alt_mem_VGA_Subsystem_Char_Buf_Subsystem_Onchip_SRAM+0xf7001bf0>

000030c8 <__vfprintf_internal>:
    30c8:	008000b4 	movhi	r2,2
    30cc:	10b09604 	addi	r2,r2,-15784
    30d0:	300f883a 	mov	r7,r6
    30d4:	280d883a 	mov	r6,r5
    30d8:	200b883a 	mov	r5,r4
    30dc:	11000017 	ldw	r4,0(r2)
    30e0:	0000ed01 	jmpi	ed0 <___vfprintf_internal_r>

000030e4 <__sbprintf>:
    30e4:	2880030b 	ldhu	r2,12(r5)
    30e8:	2ac01917 	ldw	r11,100(r5)
    30ec:	2a80038b 	ldhu	r10,14(r5)
    30f0:	2a400717 	ldw	r9,28(r5)
    30f4:	2a000917 	ldw	r8,36(r5)
    30f8:	defee204 	addi	sp,sp,-1144
    30fc:	00c10004 	movi	r3,1024
    3100:	dc011a15 	stw	r16,1128(sp)
    3104:	10bfff4c 	andi	r2,r2,65533
    3108:	2821883a 	mov	r16,r5
    310c:	d8cb883a 	add	r5,sp,r3
    3110:	dc811c15 	stw	r18,1136(sp)
    3114:	dc411b15 	stw	r17,1132(sp)
    3118:	dfc11d15 	stw	ra,1140(sp)
    311c:	2025883a 	mov	r18,r4
    3120:	d881030d 	sth	r2,1036(sp)
    3124:	dac11915 	stw	r11,1124(sp)
    3128:	da81038d 	sth	r10,1038(sp)
    312c:	da410715 	stw	r9,1052(sp)
    3130:	da010915 	stw	r8,1060(sp)
    3134:	dec10015 	stw	sp,1024(sp)
    3138:	dec10415 	stw	sp,1040(sp)
    313c:	d8c10215 	stw	r3,1032(sp)
    3140:	d8c10515 	stw	r3,1044(sp)
    3144:	d8010615 	stw	zero,1048(sp)
    3148:	0000ed00 	call	ed0 <___vfprintf_internal_r>
    314c:	1023883a 	mov	r17,r2
    3150:	10000416 	blt	r2,zero,3164 <__sbprintf+0x80>
    3154:	d9410004 	addi	r5,sp,1024
    3158:	9009883a 	mov	r4,r18
    315c:	0004d980 	call	4d98 <_fflush_r>
    3160:	10000d1e 	bne	r2,zero,3198 <__sbprintf+0xb4>
    3164:	d881030b 	ldhu	r2,1036(sp)
    3168:	1080100c 	andi	r2,r2,64
    316c:	10000326 	beq	r2,zero,317c <__sbprintf+0x98>
    3170:	8080030b 	ldhu	r2,12(r16)
    3174:	10801014 	ori	r2,r2,64
    3178:	8080030d 	sth	r2,12(r16)
    317c:	8805883a 	mov	r2,r17
    3180:	dfc11d17 	ldw	ra,1140(sp)
    3184:	dc811c17 	ldw	r18,1136(sp)
    3188:	dc411b17 	ldw	r17,1132(sp)
    318c:	dc011a17 	ldw	r16,1128(sp)
    3190:	dec11e04 	addi	sp,sp,1144
    3194:	f800283a 	ret
    3198:	047fffc4 	movi	r17,-1
    319c:	003ff106 	br	3164 <__alt_mem_VGA_Subsystem_Char_Buf_Subsystem_Onchip_SRAM+0xf7003164>

000031a0 <__swsetup_r>:
    31a0:	008000b4 	movhi	r2,2
    31a4:	defffd04 	addi	sp,sp,-12
    31a8:	10b09604 	addi	r2,r2,-15784
    31ac:	dc400115 	stw	r17,4(sp)
    31b0:	2023883a 	mov	r17,r4
    31b4:	11000017 	ldw	r4,0(r2)
    31b8:	dc000015 	stw	r16,0(sp)
    31bc:	dfc00215 	stw	ra,8(sp)
    31c0:	2821883a 	mov	r16,r5
    31c4:	20000226 	beq	r4,zero,31d0 <__swsetup_r+0x30>
    31c8:	20800e17 	ldw	r2,56(r4)
    31cc:	10003126 	beq	r2,zero,3294 <__swsetup_r+0xf4>
    31d0:	8080030b 	ldhu	r2,12(r16)
    31d4:	10c0020c 	andi	r3,r2,8
    31d8:	1009883a 	mov	r4,r2
    31dc:	18000f26 	beq	r3,zero,321c <__swsetup_r+0x7c>
    31e0:	80c00417 	ldw	r3,16(r16)
    31e4:	18001526 	beq	r3,zero,323c <__swsetup_r+0x9c>
    31e8:	1100004c 	andi	r4,r2,1
    31ec:	20001c1e 	bne	r4,zero,3260 <__swsetup_r+0xc0>
    31f0:	1080008c 	andi	r2,r2,2
    31f4:	1000291e 	bne	r2,zero,329c <__swsetup_r+0xfc>
    31f8:	80800517 	ldw	r2,20(r16)
    31fc:	80800215 	stw	r2,8(r16)
    3200:	18001c26 	beq	r3,zero,3274 <__swsetup_r+0xd4>
    3204:	0005883a 	mov	r2,zero
    3208:	dfc00217 	ldw	ra,8(sp)
    320c:	dc400117 	ldw	r17,4(sp)
    3210:	dc000017 	ldw	r16,0(sp)
    3214:	dec00304 	addi	sp,sp,12
    3218:	f800283a 	ret
    321c:	2080040c 	andi	r2,r4,16
    3220:	10002e26 	beq	r2,zero,32dc <__swsetup_r+0x13c>
    3224:	2080010c 	andi	r2,r4,4
    3228:	10001e1e 	bne	r2,zero,32a4 <__swsetup_r+0x104>
    322c:	80c00417 	ldw	r3,16(r16)
    3230:	20800214 	ori	r2,r4,8
    3234:	8080030d 	sth	r2,12(r16)
    3238:	183feb1e 	bne	r3,zero,31e8 <__alt_mem_VGA_Subsystem_Char_Buf_Subsystem_Onchip_SRAM+0xf70031e8>
    323c:	1100a00c 	andi	r4,r2,640
    3240:	01408004 	movi	r5,512
    3244:	217fe826 	beq	r4,r5,31e8 <__alt_mem_VGA_Subsystem_Char_Buf_Subsystem_Onchip_SRAM+0xf70031e8>
    3248:	800b883a 	mov	r5,r16
    324c:	8809883a 	mov	r4,r17
    3250:	0005d180 	call	5d18 <__smakebuf_r>
    3254:	8080030b 	ldhu	r2,12(r16)
    3258:	80c00417 	ldw	r3,16(r16)
    325c:	003fe206 	br	31e8 <__alt_mem_VGA_Subsystem_Char_Buf_Subsystem_Onchip_SRAM+0xf70031e8>
    3260:	80800517 	ldw	r2,20(r16)
    3264:	80000215 	stw	zero,8(r16)
    3268:	0085c83a 	sub	r2,zero,r2
    326c:	80800615 	stw	r2,24(r16)
    3270:	183fe41e 	bne	r3,zero,3204 <__alt_mem_VGA_Subsystem_Char_Buf_Subsystem_Onchip_SRAM+0xf7003204>
    3274:	80c0030b 	ldhu	r3,12(r16)
    3278:	0005883a 	mov	r2,zero
    327c:	1900200c 	andi	r4,r3,128
    3280:	203fe126 	beq	r4,zero,3208 <__alt_mem_VGA_Subsystem_Char_Buf_Subsystem_Onchip_SRAM+0xf7003208>
    3284:	18c01014 	ori	r3,r3,64
    3288:	80c0030d 	sth	r3,12(r16)
    328c:	00bfffc4 	movi	r2,-1
    3290:	003fdd06 	br	3208 <__alt_mem_VGA_Subsystem_Char_Buf_Subsystem_Onchip_SRAM+0xf7003208>
    3294:	00051740 	call	5174 <__sinit>
    3298:	003fcd06 	br	31d0 <__alt_mem_VGA_Subsystem_Char_Buf_Subsystem_Onchip_SRAM+0xf70031d0>
    329c:	0005883a 	mov	r2,zero
    32a0:	003fd606 	br	31fc <__alt_mem_VGA_Subsystem_Char_Buf_Subsystem_Onchip_SRAM+0xf70031fc>
    32a4:	81400c17 	ldw	r5,48(r16)
    32a8:	28000626 	beq	r5,zero,32c4 <__swsetup_r+0x124>
    32ac:	80801004 	addi	r2,r16,64
    32b0:	28800326 	beq	r5,r2,32c0 <__swsetup_r+0x120>
    32b4:	8809883a 	mov	r4,r17
    32b8:	00052e80 	call	52e8 <_free_r>
    32bc:	8100030b 	ldhu	r4,12(r16)
    32c0:	80000c15 	stw	zero,48(r16)
    32c4:	80c00417 	ldw	r3,16(r16)
    32c8:	00bff6c4 	movi	r2,-37
    32cc:	1108703a 	and	r4,r2,r4
    32d0:	80000115 	stw	zero,4(r16)
    32d4:	80c00015 	stw	r3,0(r16)
    32d8:	003fd506 	br	3230 <__alt_mem_VGA_Subsystem_Char_Buf_Subsystem_Onchip_SRAM+0xf7003230>
    32dc:	00800244 	movi	r2,9
    32e0:	88800015 	stw	r2,0(r17)
    32e4:	20801014 	ori	r2,r4,64
    32e8:	8080030d 	sth	r2,12(r16)
    32ec:	00bfffc4 	movi	r2,-1
    32f0:	003fc506 	br	3208 <__alt_mem_VGA_Subsystem_Char_Buf_Subsystem_Onchip_SRAM+0xf7003208>

000032f4 <quorem>:
    32f4:	defff704 	addi	sp,sp,-36
    32f8:	dc800215 	stw	r18,8(sp)
    32fc:	20800417 	ldw	r2,16(r4)
    3300:	2c800417 	ldw	r18,16(r5)
    3304:	dfc00815 	stw	ra,32(sp)
    3308:	ddc00715 	stw	r23,28(sp)
    330c:	dd800615 	stw	r22,24(sp)
    3310:	dd400515 	stw	r21,20(sp)
    3314:	dd000415 	stw	r20,16(sp)
    3318:	dcc00315 	stw	r19,12(sp)
    331c:	dc400115 	stw	r17,4(sp)
    3320:	dc000015 	stw	r16,0(sp)
    3324:	14807116 	blt	r2,r18,34ec <quorem+0x1f8>
    3328:	94bfffc4 	addi	r18,r18,-1
    332c:	94ad883a 	add	r22,r18,r18
    3330:	b5ad883a 	add	r22,r22,r22
    3334:	2c400504 	addi	r17,r5,20
    3338:	8da9883a 	add	r20,r17,r22
    333c:	25400504 	addi	r21,r4,20
    3340:	282f883a 	mov	r23,r5
    3344:	adad883a 	add	r22,r21,r22
    3348:	a1400017 	ldw	r5,0(r20)
    334c:	2021883a 	mov	r16,r4
    3350:	b1000017 	ldw	r4,0(r22)
    3354:	29400044 	addi	r5,r5,1
    3358:	000aef40 	call	aef4 <__udivsi3>
    335c:	1027883a 	mov	r19,r2
    3360:	10002c26 	beq	r2,zero,3414 <quorem+0x120>
    3364:	a813883a 	mov	r9,r21
    3368:	880b883a 	mov	r5,r17
    336c:	0009883a 	mov	r4,zero
    3370:	000d883a 	mov	r6,zero
    3374:	2a000017 	ldw	r8,0(r5)
    3378:	49c00017 	ldw	r7,0(r9)
    337c:	29400104 	addi	r5,r5,4
    3380:	40bfffcc 	andi	r2,r8,65535
    3384:	14c5383a 	mul	r2,r2,r19
    3388:	4010d43a 	srli	r8,r8,16
    338c:	38ffffcc 	andi	r3,r7,65535
    3390:	1105883a 	add	r2,r2,r4
    3394:	1008d43a 	srli	r4,r2,16
    3398:	44d1383a 	mul	r8,r8,r19
    339c:	198d883a 	add	r6,r3,r6
    33a0:	10ffffcc 	andi	r3,r2,65535
    33a4:	30c7c83a 	sub	r3,r6,r3
    33a8:	380ed43a 	srli	r7,r7,16
    33ac:	4105883a 	add	r2,r8,r4
    33b0:	180dd43a 	srai	r6,r3,16
    33b4:	113fffcc 	andi	r4,r2,65535
    33b8:	390fc83a 	sub	r7,r7,r4
    33bc:	398d883a 	add	r6,r7,r6
    33c0:	300e943a 	slli	r7,r6,16
    33c4:	18ffffcc 	andi	r3,r3,65535
    33c8:	1008d43a 	srli	r4,r2,16
    33cc:	38ceb03a 	or	r7,r7,r3
    33d0:	49c00015 	stw	r7,0(r9)
    33d4:	300dd43a 	srai	r6,r6,16
    33d8:	4a400104 	addi	r9,r9,4
    33dc:	a17fe52e 	bgeu	r20,r5,3374 <__alt_mem_VGA_Subsystem_Char_Buf_Subsystem_Onchip_SRAM+0xf7003374>
    33e0:	b0800017 	ldw	r2,0(r22)
    33e4:	10000b1e 	bne	r2,zero,3414 <quorem+0x120>
    33e8:	b0bfff04 	addi	r2,r22,-4
    33ec:	a880082e 	bgeu	r21,r2,3410 <quorem+0x11c>
    33f0:	b0ffff17 	ldw	r3,-4(r22)
    33f4:	18000326 	beq	r3,zero,3404 <quorem+0x110>
    33f8:	00000506 	br	3410 <quorem+0x11c>
    33fc:	10c00017 	ldw	r3,0(r2)
    3400:	1800031e 	bne	r3,zero,3410 <quorem+0x11c>
    3404:	10bfff04 	addi	r2,r2,-4
    3408:	94bfffc4 	addi	r18,r18,-1
    340c:	a8bffb36 	bltu	r21,r2,33fc <__alt_mem_VGA_Subsystem_Char_Buf_Subsystem_Onchip_SRAM+0xf70033fc>
    3410:	84800415 	stw	r18,16(r16)
    3414:	b80b883a 	mov	r5,r23
    3418:	8009883a 	mov	r4,r16
    341c:	00074580 	call	7458 <__mcmp>
    3420:	10002616 	blt	r2,zero,34bc <quorem+0x1c8>
    3424:	9cc00044 	addi	r19,r19,1
    3428:	a805883a 	mov	r2,r21
    342c:	000b883a 	mov	r5,zero
    3430:	11000017 	ldw	r4,0(r2)
    3434:	89800017 	ldw	r6,0(r17)
    3438:	10800104 	addi	r2,r2,4
    343c:	20ffffcc 	andi	r3,r4,65535
    3440:	194b883a 	add	r5,r3,r5
    3444:	30ffffcc 	andi	r3,r6,65535
    3448:	28c7c83a 	sub	r3,r5,r3
    344c:	300cd43a 	srli	r6,r6,16
    3450:	2008d43a 	srli	r4,r4,16
    3454:	180bd43a 	srai	r5,r3,16
    3458:	18ffffcc 	andi	r3,r3,65535
    345c:	2189c83a 	sub	r4,r4,r6
    3460:	2149883a 	add	r4,r4,r5
    3464:	200c943a 	slli	r6,r4,16
    3468:	8c400104 	addi	r17,r17,4
    346c:	200bd43a 	srai	r5,r4,16
    3470:	30c6b03a 	or	r3,r6,r3
    3474:	10ffff15 	stw	r3,-4(r2)
    3478:	a47fed2e 	bgeu	r20,r17,3430 <__alt_mem_VGA_Subsystem_Char_Buf_Subsystem_Onchip_SRAM+0xf7003430>
    347c:	9485883a 	add	r2,r18,r18
    3480:	1085883a 	add	r2,r2,r2
    3484:	a887883a 	add	r3,r21,r2
    3488:	18800017 	ldw	r2,0(r3)
    348c:	10000b1e 	bne	r2,zero,34bc <quorem+0x1c8>
    3490:	18bfff04 	addi	r2,r3,-4
    3494:	a880082e 	bgeu	r21,r2,34b8 <quorem+0x1c4>
    3498:	18ffff17 	ldw	r3,-4(r3)
    349c:	18000326 	beq	r3,zero,34ac <quorem+0x1b8>
    34a0:	00000506 	br	34b8 <quorem+0x1c4>
    34a4:	10c00017 	ldw	r3,0(r2)
    34a8:	1800031e 	bne	r3,zero,34b8 <quorem+0x1c4>
    34ac:	10bfff04 	addi	r2,r2,-4
    34b0:	94bfffc4 	addi	r18,r18,-1
    34b4:	a8bffb36 	bltu	r21,r2,34a4 <__alt_mem_VGA_Subsystem_Char_Buf_Subsystem_Onchip_SRAM+0xf70034a4>
    34b8:	84800415 	stw	r18,16(r16)
    34bc:	9805883a 	mov	r2,r19
    34c0:	dfc00817 	ldw	ra,32(sp)
    34c4:	ddc00717 	ldw	r23,28(sp)
    34c8:	dd800617 	ldw	r22,24(sp)
    34cc:	dd400517 	ldw	r21,20(sp)
    34d0:	dd000417 	ldw	r20,16(sp)
    34d4:	dcc00317 	ldw	r19,12(sp)
    34d8:	dc800217 	ldw	r18,8(sp)
    34dc:	dc400117 	ldw	r17,4(sp)
    34e0:	dc000017 	ldw	r16,0(sp)
    34e4:	dec00904 	addi	sp,sp,36
    34e8:	f800283a 	ret
    34ec:	0005883a 	mov	r2,zero
    34f0:	003ff306 	br	34c0 <__alt_mem_VGA_Subsystem_Char_Buf_Subsystem_Onchip_SRAM+0xf70034c0>

000034f4 <_dtoa_r>:
    34f4:	20801017 	ldw	r2,64(r4)
    34f8:	deffde04 	addi	sp,sp,-136
    34fc:	df002015 	stw	fp,128(sp)
    3500:	dcc01b15 	stw	r19,108(sp)
    3504:	dc801a15 	stw	r18,104(sp)
    3508:	dc401915 	stw	r17,100(sp)
    350c:	dc001815 	stw	r16,96(sp)
    3510:	dfc02115 	stw	ra,132(sp)
    3514:	ddc01f15 	stw	r23,124(sp)
    3518:	dd801e15 	stw	r22,120(sp)
    351c:	dd401d15 	stw	r21,116(sp)
    3520:	dd001c15 	stw	r20,112(sp)
    3524:	d9c00315 	stw	r7,12(sp)
    3528:	2039883a 	mov	fp,r4
    352c:	3023883a 	mov	r17,r6
    3530:	2825883a 	mov	r18,r5
    3534:	dc002417 	ldw	r16,144(sp)
    3538:	3027883a 	mov	r19,r6
    353c:	10000826 	beq	r2,zero,3560 <_dtoa_r+0x6c>
    3540:	21801117 	ldw	r6,68(r4)
    3544:	00c00044 	movi	r3,1
    3548:	100b883a 	mov	r5,r2
    354c:	1986983a 	sll	r3,r3,r6
    3550:	11800115 	stw	r6,4(r2)
    3554:	10c00215 	stw	r3,8(r2)
    3558:	0006c380 	call	6c38 <_Bfree>
    355c:	e0001015 	stw	zero,64(fp)
    3560:	88002e16 	blt	r17,zero,361c <_dtoa_r+0x128>
    3564:	80000015 	stw	zero,0(r16)
    3568:	889ffc2c 	andhi	r2,r17,32752
    356c:	00dffc34 	movhi	r3,32752
    3570:	10c01c26 	beq	r2,r3,35e4 <_dtoa_r+0xf0>
    3574:	000d883a 	mov	r6,zero
    3578:	000f883a 	mov	r7,zero
    357c:	9009883a 	mov	r4,r18
    3580:	980b883a 	mov	r5,r19
    3584:	000c1440 	call	c144 <__eqdf2>
    3588:	10002b1e 	bne	r2,zero,3638 <_dtoa_r+0x144>
    358c:	d9c02317 	ldw	r7,140(sp)
    3590:	00800044 	movi	r2,1
    3594:	38800015 	stw	r2,0(r7)
    3598:	d8802517 	ldw	r2,148(sp)
    359c:	10019e26 	beq	r2,zero,3c18 <_dtoa_r+0x724>
    35a0:	d8c02517 	ldw	r3,148(sp)
    35a4:	008000b4 	movhi	r2,2
    35a8:	10a7dc44 	addi	r2,r2,-24719
    35ac:	18800015 	stw	r2,0(r3)
    35b0:	10bfffc4 	addi	r2,r2,-1
    35b4:	dfc02117 	ldw	ra,132(sp)
    35b8:	df002017 	ldw	fp,128(sp)
    35bc:	ddc01f17 	ldw	r23,124(sp)
    35c0:	dd801e17 	ldw	r22,120(sp)
    35c4:	dd401d17 	ldw	r21,116(sp)
    35c8:	dd001c17 	ldw	r20,112(sp)
    35cc:	dcc01b17 	ldw	r19,108(sp)
    35d0:	dc801a17 	ldw	r18,104(sp)
    35d4:	dc401917 	ldw	r17,100(sp)
    35d8:	dc001817 	ldw	r16,96(sp)
    35dc:	dec02204 	addi	sp,sp,136
    35e0:	f800283a 	ret
    35e4:	d8c02317 	ldw	r3,140(sp)
    35e8:	0089c3c4 	movi	r2,9999
    35ec:	18800015 	stw	r2,0(r3)
    35f0:	90017726 	beq	r18,zero,3bd0 <_dtoa_r+0x6dc>
    35f4:	008000b4 	movhi	r2,2
    35f8:	10a7e804 	addi	r2,r2,-24672
    35fc:	d9002517 	ldw	r4,148(sp)
    3600:	203fec26 	beq	r4,zero,35b4 <__alt_mem_VGA_Subsystem_Char_Buf_Subsystem_Onchip_SRAM+0xf70035b4>
    3604:	10c000c7 	ldb	r3,3(r2)
    3608:	1801781e 	bne	r3,zero,3bec <_dtoa_r+0x6f8>
    360c:	10c000c4 	addi	r3,r2,3
    3610:	d9802517 	ldw	r6,148(sp)
    3614:	30c00015 	stw	r3,0(r6)
    3618:	003fe606 	br	35b4 <__alt_mem_VGA_Subsystem_Char_Buf_Subsystem_Onchip_SRAM+0xf70035b4>
    361c:	04e00034 	movhi	r19,32768
    3620:	9cffffc4 	addi	r19,r19,-1
    3624:	00800044 	movi	r2,1
    3628:	8ce6703a 	and	r19,r17,r19
    362c:	80800015 	stw	r2,0(r16)
    3630:	9823883a 	mov	r17,r19
    3634:	003fcc06 	br	3568 <__alt_mem_VGA_Subsystem_Char_Buf_Subsystem_Onchip_SRAM+0xf7003568>
    3638:	d8800204 	addi	r2,sp,8
    363c:	d8800015 	stw	r2,0(sp)
    3640:	d9c00104 	addi	r7,sp,4
    3644:	900b883a 	mov	r5,r18
    3648:	980d883a 	mov	r6,r19
    364c:	e009883a 	mov	r4,fp
    3650:	8820d53a 	srli	r16,r17,20
    3654:	00078240 	call	7824 <__d2b>
    3658:	d8800915 	stw	r2,36(sp)
    365c:	8001651e 	bne	r16,zero,3bf4 <_dtoa_r+0x700>
    3660:	dd800217 	ldw	r22,8(sp)
    3664:	dc000117 	ldw	r16,4(sp)
    3668:	00800804 	movi	r2,32
    366c:	b421883a 	add	r16,r22,r16
    3670:	80c10c84 	addi	r3,r16,1074
    3674:	10c2d10e 	bge	r2,r3,41bc <_dtoa_r+0xcc8>
    3678:	00801004 	movi	r2,64
    367c:	81010484 	addi	r4,r16,1042
    3680:	10c7c83a 	sub	r3,r2,r3
    3684:	9108d83a 	srl	r4,r18,r4
    3688:	88e2983a 	sll	r17,r17,r3
    368c:	2448b03a 	or	r4,r4,r17
    3690:	000d50c0 	call	d50c <__floatunsidf>
    3694:	017f8434 	movhi	r5,65040
    3698:	01800044 	movi	r6,1
    369c:	1009883a 	mov	r4,r2
    36a0:	194b883a 	add	r5,r3,r5
    36a4:	843fffc4 	addi	r16,r16,-1
    36a8:	d9801115 	stw	r6,68(sp)
    36ac:	000d883a 	mov	r6,zero
    36b0:	01cffe34 	movhi	r7,16376
    36b4:	000cab40 	call	cab4 <__subdf3>
    36b8:	0198dbf4 	movhi	r6,25455
    36bc:	01cff4f4 	movhi	r7,16339
    36c0:	3190d844 	addi	r6,r6,17249
    36c4:	39e1e9c4 	addi	r7,r7,-30809
    36c8:	1009883a 	mov	r4,r2
    36cc:	180b883a 	mov	r5,r3
    36d0:	000c39c0 	call	c39c <__muldf3>
    36d4:	01a2d874 	movhi	r6,35681
    36d8:	01cff1f4 	movhi	r7,16327
    36dc:	31b22cc4 	addi	r6,r6,-14157
    36e0:	39e28a04 	addi	r7,r7,-30168
    36e4:	180b883a 	mov	r5,r3
    36e8:	1009883a 	mov	r4,r2
    36ec:	000afb00 	call	afb0 <__adddf3>
    36f0:	8009883a 	mov	r4,r16
    36f4:	1029883a 	mov	r20,r2
    36f8:	1823883a 	mov	r17,r3
    36fc:	000d4300 	call	d430 <__floatsidf>
    3700:	019427f4 	movhi	r6,20639
    3704:	01cff4f4 	movhi	r7,16339
    3708:	319e7ec4 	addi	r6,r6,31227
    370c:	39d104c4 	addi	r7,r7,17427
    3710:	1009883a 	mov	r4,r2
    3714:	180b883a 	mov	r5,r3
    3718:	000c39c0 	call	c39c <__muldf3>
    371c:	100d883a 	mov	r6,r2
    3720:	180f883a 	mov	r7,r3
    3724:	a009883a 	mov	r4,r20
    3728:	880b883a 	mov	r5,r17
    372c:	000afb00 	call	afb0 <__adddf3>
    3730:	1009883a 	mov	r4,r2
    3734:	180b883a 	mov	r5,r3
    3738:	1029883a 	mov	r20,r2
    373c:	1823883a 	mov	r17,r3
    3740:	000d3b00 	call	d3b0 <__fixdfsi>
    3744:	000d883a 	mov	r6,zero
    3748:	000f883a 	mov	r7,zero
    374c:	a009883a 	mov	r4,r20
    3750:	880b883a 	mov	r5,r17
    3754:	d8800515 	stw	r2,20(sp)
    3758:	000c2a80 	call	c2a8 <__ledf2>
    375c:	10028716 	blt	r2,zero,417c <_dtoa_r+0xc88>
    3760:	d8c00517 	ldw	r3,20(sp)
    3764:	00800584 	movi	r2,22
    3768:	10c27536 	bltu	r2,r3,4140 <_dtoa_r+0xc4c>
    376c:	180490fa 	slli	r2,r3,3
    3770:	00c000b4 	movhi	r3,2
    3774:	18e80304 	addi	r3,r3,-24564
    3778:	1885883a 	add	r2,r3,r2
    377c:	11000017 	ldw	r4,0(r2)
    3780:	11400117 	ldw	r5,4(r2)
    3784:	900d883a 	mov	r6,r18
    3788:	980f883a 	mov	r7,r19
    378c:	000c1cc0 	call	c1cc <__gedf2>
    3790:	00828d0e 	bge	zero,r2,41c8 <_dtoa_r+0xcd4>
    3794:	d9000517 	ldw	r4,20(sp)
    3798:	d8000e15 	stw	zero,56(sp)
    379c:	213fffc4 	addi	r4,r4,-1
    37a0:	d9000515 	stw	r4,20(sp)
    37a4:	b42dc83a 	sub	r22,r22,r16
    37a8:	b5bfffc4 	addi	r22,r22,-1
    37ac:	b0026f16 	blt	r22,zero,416c <_dtoa_r+0xc78>
    37b0:	d8000815 	stw	zero,32(sp)
    37b4:	d9c00517 	ldw	r7,20(sp)
    37b8:	38026416 	blt	r7,zero,414c <_dtoa_r+0xc58>
    37bc:	b1ed883a 	add	r22,r22,r7
    37c0:	d9c00d15 	stw	r7,52(sp)
    37c4:	d8000a15 	stw	zero,40(sp)
    37c8:	d9800317 	ldw	r6,12(sp)
    37cc:	00800244 	movi	r2,9
    37d0:	11811436 	bltu	r2,r6,3c24 <_dtoa_r+0x730>
    37d4:	00800144 	movi	r2,5
    37d8:	1184e10e 	bge	r2,r6,4b60 <_dtoa_r+0x166c>
    37dc:	31bfff04 	addi	r6,r6,-4
    37e0:	d9800315 	stw	r6,12(sp)
    37e4:	0023883a 	mov	r17,zero
    37e8:	d9800317 	ldw	r6,12(sp)
    37ec:	008000c4 	movi	r2,3
    37f0:	30836726 	beq	r6,r2,4590 <_dtoa_r+0x109c>
    37f4:	1183410e 	bge	r2,r6,44fc <_dtoa_r+0x1008>
    37f8:	d9c00317 	ldw	r7,12(sp)
    37fc:	00800104 	movi	r2,4
    3800:	38827c26 	beq	r7,r2,41f4 <_dtoa_r+0xd00>
    3804:	00800144 	movi	r2,5
    3808:	3884c41e 	bne	r7,r2,4b1c <_dtoa_r+0x1628>
    380c:	00800044 	movi	r2,1
    3810:	d8800b15 	stw	r2,44(sp)
    3814:	d8c00517 	ldw	r3,20(sp)
    3818:	d9002217 	ldw	r4,136(sp)
    381c:	1907883a 	add	r3,r3,r4
    3820:	19800044 	addi	r6,r3,1
    3824:	d8c00c15 	stw	r3,48(sp)
    3828:	d9800615 	stw	r6,24(sp)
    382c:	0183a40e 	bge	zero,r6,46c0 <_dtoa_r+0x11cc>
    3830:	d9800617 	ldw	r6,24(sp)
    3834:	3021883a 	mov	r16,r6
    3838:	e0001115 	stw	zero,68(fp)
    383c:	008005c4 	movi	r2,23
    3840:	1184c92e 	bgeu	r2,r6,4b68 <_dtoa_r+0x1674>
    3844:	00c00044 	movi	r3,1
    3848:	00800104 	movi	r2,4
    384c:	1085883a 	add	r2,r2,r2
    3850:	11000504 	addi	r4,r2,20
    3854:	180b883a 	mov	r5,r3
    3858:	18c00044 	addi	r3,r3,1
    385c:	313ffb2e 	bgeu	r6,r4,384c <__alt_mem_VGA_Subsystem_Char_Buf_Subsystem_Onchip_SRAM+0xf700384c>
    3860:	e1401115 	stw	r5,68(fp)
    3864:	e009883a 	mov	r4,fp
    3868:	0006b900 	call	6b90 <_Balloc>
    386c:	d8800715 	stw	r2,28(sp)
    3870:	e0801015 	stw	r2,64(fp)
    3874:	00800384 	movi	r2,14
    3878:	1400f736 	bltu	r2,r16,3c58 <_dtoa_r+0x764>
    387c:	8800f626 	beq	r17,zero,3c58 <_dtoa_r+0x764>
    3880:	d9c00517 	ldw	r7,20(sp)
    3884:	01c39a0e 	bge	zero,r7,46f0 <_dtoa_r+0x11fc>
    3888:	388003cc 	andi	r2,r7,15
    388c:	100490fa 	slli	r2,r2,3
    3890:	382bd13a 	srai	r21,r7,4
    3894:	00c000b4 	movhi	r3,2
    3898:	18e80304 	addi	r3,r3,-24564
    389c:	1885883a 	add	r2,r3,r2
    38a0:	a8c0040c 	andi	r3,r21,16
    38a4:	12400017 	ldw	r9,0(r2)
    38a8:	12000117 	ldw	r8,4(r2)
    38ac:	18037926 	beq	r3,zero,4694 <_dtoa_r+0x11a0>
    38b0:	008000b4 	movhi	r2,2
    38b4:	10a7f904 	addi	r2,r2,-24604
    38b8:	11800817 	ldw	r6,32(r2)
    38bc:	11c00917 	ldw	r7,36(r2)
    38c0:	9009883a 	mov	r4,r18
    38c4:	980b883a 	mov	r5,r19
    38c8:	da001715 	stw	r8,92(sp)
    38cc:	da401615 	stw	r9,88(sp)
    38d0:	000b85c0 	call	b85c <__divdf3>
    38d4:	da001717 	ldw	r8,92(sp)
    38d8:	da401617 	ldw	r9,88(sp)
    38dc:	ad4003cc 	andi	r21,r21,15
    38e0:	040000c4 	movi	r16,3
    38e4:	1023883a 	mov	r17,r2
    38e8:	1829883a 	mov	r20,r3
    38ec:	a8001126 	beq	r21,zero,3934 <_dtoa_r+0x440>
    38f0:	05c000b4 	movhi	r23,2
    38f4:	bde7f904 	addi	r23,r23,-24604
    38f8:	4805883a 	mov	r2,r9
    38fc:	4007883a 	mov	r3,r8
    3900:	a980004c 	andi	r6,r21,1
    3904:	1009883a 	mov	r4,r2
    3908:	a82bd07a 	srai	r21,r21,1
    390c:	180b883a 	mov	r5,r3
    3910:	30000426 	beq	r6,zero,3924 <_dtoa_r+0x430>
    3914:	b9800017 	ldw	r6,0(r23)
    3918:	b9c00117 	ldw	r7,4(r23)
    391c:	84000044 	addi	r16,r16,1
    3920:	000c39c0 	call	c39c <__muldf3>
    3924:	bdc00204 	addi	r23,r23,8
    3928:	a83ff51e 	bne	r21,zero,3900 <__alt_mem_VGA_Subsystem_Char_Buf_Subsystem_Onchip_SRAM+0xf7003900>
    392c:	1013883a 	mov	r9,r2
    3930:	1811883a 	mov	r8,r3
    3934:	480d883a 	mov	r6,r9
    3938:	400f883a 	mov	r7,r8
    393c:	8809883a 	mov	r4,r17
    3940:	a00b883a 	mov	r5,r20
    3944:	000b85c0 	call	b85c <__divdf3>
    3948:	d8800f15 	stw	r2,60(sp)
    394c:	d8c01015 	stw	r3,64(sp)
    3950:	d8c00e17 	ldw	r3,56(sp)
    3954:	18000626 	beq	r3,zero,3970 <_dtoa_r+0x47c>
    3958:	d9000f17 	ldw	r4,60(sp)
    395c:	d9401017 	ldw	r5,64(sp)
    3960:	000d883a 	mov	r6,zero
    3964:	01cffc34 	movhi	r7,16368
    3968:	000c2a80 	call	c2a8 <__ledf2>
    396c:	10040b16 	blt	r2,zero,499c <_dtoa_r+0x14a8>
    3970:	8009883a 	mov	r4,r16
    3974:	000d4300 	call	d430 <__floatsidf>
    3978:	d9800f17 	ldw	r6,60(sp)
    397c:	d9c01017 	ldw	r7,64(sp)
    3980:	1009883a 	mov	r4,r2
    3984:	180b883a 	mov	r5,r3
    3988:	000c39c0 	call	c39c <__muldf3>
    398c:	000d883a 	mov	r6,zero
    3990:	01d00734 	movhi	r7,16412
    3994:	1009883a 	mov	r4,r2
    3998:	180b883a 	mov	r5,r3
    399c:	000afb00 	call	afb0 <__adddf3>
    39a0:	1021883a 	mov	r16,r2
    39a4:	d8800617 	ldw	r2,24(sp)
    39a8:	047f3034 	movhi	r17,64704
    39ac:	1c63883a 	add	r17,r3,r17
    39b0:	10031826 	beq	r2,zero,4614 <_dtoa_r+0x1120>
    39b4:	d8c00517 	ldw	r3,20(sp)
    39b8:	db000617 	ldw	r12,24(sp)
    39bc:	d8c01315 	stw	r3,76(sp)
    39c0:	d9000b17 	ldw	r4,44(sp)
    39c4:	20038f26 	beq	r4,zero,4804 <_dtoa_r+0x1310>
    39c8:	60bfffc4 	addi	r2,r12,-1
    39cc:	100490fa 	slli	r2,r2,3
    39d0:	00c000b4 	movhi	r3,2
    39d4:	18e80304 	addi	r3,r3,-24564
    39d8:	1885883a 	add	r2,r3,r2
    39dc:	11800017 	ldw	r6,0(r2)
    39e0:	11c00117 	ldw	r7,4(r2)
    39e4:	d8800717 	ldw	r2,28(sp)
    39e8:	0009883a 	mov	r4,zero
    39ec:	014ff834 	movhi	r5,16352
    39f0:	db001615 	stw	r12,88(sp)
    39f4:	15c00044 	addi	r23,r2,1
    39f8:	000b85c0 	call	b85c <__divdf3>
    39fc:	800d883a 	mov	r6,r16
    3a00:	880f883a 	mov	r7,r17
    3a04:	1009883a 	mov	r4,r2
    3a08:	180b883a 	mov	r5,r3
    3a0c:	000cab40 	call	cab4 <__subdf3>
    3a10:	d9401017 	ldw	r5,64(sp)
    3a14:	d9000f17 	ldw	r4,60(sp)
    3a18:	102b883a 	mov	r21,r2
    3a1c:	d8c01215 	stw	r3,72(sp)
    3a20:	000d3b00 	call	d3b0 <__fixdfsi>
    3a24:	1009883a 	mov	r4,r2
    3a28:	1029883a 	mov	r20,r2
    3a2c:	000d4300 	call	d430 <__floatsidf>
    3a30:	d9000f17 	ldw	r4,60(sp)
    3a34:	d9401017 	ldw	r5,64(sp)
    3a38:	100d883a 	mov	r6,r2
    3a3c:	180f883a 	mov	r7,r3
    3a40:	000cab40 	call	cab4 <__subdf3>
    3a44:	1823883a 	mov	r17,r3
    3a48:	d8c00717 	ldw	r3,28(sp)
    3a4c:	d9401217 	ldw	r5,72(sp)
    3a50:	a2000c04 	addi	r8,r20,48
    3a54:	1021883a 	mov	r16,r2
    3a58:	1a000005 	stb	r8,0(r3)
    3a5c:	800d883a 	mov	r6,r16
    3a60:	880f883a 	mov	r7,r17
    3a64:	a809883a 	mov	r4,r21
    3a68:	4029883a 	mov	r20,r8
    3a6c:	000c1cc0 	call	c1cc <__gedf2>
    3a70:	00841d16 	blt	zero,r2,4ae8 <_dtoa_r+0x15f4>
    3a74:	800d883a 	mov	r6,r16
    3a78:	880f883a 	mov	r7,r17
    3a7c:	0009883a 	mov	r4,zero
    3a80:	014ffc34 	movhi	r5,16368
    3a84:	000cab40 	call	cab4 <__subdf3>
    3a88:	d9401217 	ldw	r5,72(sp)
    3a8c:	100d883a 	mov	r6,r2
    3a90:	180f883a 	mov	r7,r3
    3a94:	a809883a 	mov	r4,r21
    3a98:	000c1cc0 	call	c1cc <__gedf2>
    3a9c:	db001617 	ldw	r12,88(sp)
    3aa0:	00840e16 	blt	zero,r2,4adc <_dtoa_r+0x15e8>
    3aa4:	00800044 	movi	r2,1
    3aa8:	13006b0e 	bge	r2,r12,3c58 <_dtoa_r+0x764>
    3aac:	d9000717 	ldw	r4,28(sp)
    3ab0:	dd800f15 	stw	r22,60(sp)
    3ab4:	dcc01015 	stw	r19,64(sp)
    3ab8:	2319883a 	add	r12,r4,r12
    3abc:	dcc01217 	ldw	r19,72(sp)
    3ac0:	602d883a 	mov	r22,r12
    3ac4:	dc801215 	stw	r18,72(sp)
    3ac8:	b825883a 	mov	r18,r23
    3acc:	00000906 	br	3af4 <_dtoa_r+0x600>
    3ad0:	000cab40 	call	cab4 <__subdf3>
    3ad4:	a80d883a 	mov	r6,r21
    3ad8:	980f883a 	mov	r7,r19
    3adc:	1009883a 	mov	r4,r2
    3ae0:	180b883a 	mov	r5,r3
    3ae4:	000c2a80 	call	c2a8 <__ledf2>
    3ae8:	1003e816 	blt	r2,zero,4a8c <_dtoa_r+0x1598>
    3aec:	b825883a 	mov	r18,r23
    3af0:	bd83e926 	beq	r23,r22,4a98 <_dtoa_r+0x15a4>
    3af4:	a809883a 	mov	r4,r21
    3af8:	980b883a 	mov	r5,r19
    3afc:	000d883a 	mov	r6,zero
    3b00:	01d00934 	movhi	r7,16420
    3b04:	000c39c0 	call	c39c <__muldf3>
    3b08:	000d883a 	mov	r6,zero
    3b0c:	01d00934 	movhi	r7,16420
    3b10:	8009883a 	mov	r4,r16
    3b14:	880b883a 	mov	r5,r17
    3b18:	102b883a 	mov	r21,r2
    3b1c:	1827883a 	mov	r19,r3
    3b20:	000c39c0 	call	c39c <__muldf3>
    3b24:	180b883a 	mov	r5,r3
    3b28:	1009883a 	mov	r4,r2
    3b2c:	1821883a 	mov	r16,r3
    3b30:	1023883a 	mov	r17,r2
    3b34:	000d3b00 	call	d3b0 <__fixdfsi>
    3b38:	1009883a 	mov	r4,r2
    3b3c:	1029883a 	mov	r20,r2
    3b40:	000d4300 	call	d430 <__floatsidf>
    3b44:	8809883a 	mov	r4,r17
    3b48:	800b883a 	mov	r5,r16
    3b4c:	100d883a 	mov	r6,r2
    3b50:	180f883a 	mov	r7,r3
    3b54:	000cab40 	call	cab4 <__subdf3>
    3b58:	a5000c04 	addi	r20,r20,48
    3b5c:	a80d883a 	mov	r6,r21
    3b60:	980f883a 	mov	r7,r19
    3b64:	1009883a 	mov	r4,r2
    3b68:	180b883a 	mov	r5,r3
    3b6c:	95000005 	stb	r20,0(r18)
    3b70:	1021883a 	mov	r16,r2
    3b74:	1823883a 	mov	r17,r3
    3b78:	000c2a80 	call	c2a8 <__ledf2>
    3b7c:	bdc00044 	addi	r23,r23,1
    3b80:	800d883a 	mov	r6,r16
    3b84:	880f883a 	mov	r7,r17
    3b88:	0009883a 	mov	r4,zero
    3b8c:	014ffc34 	movhi	r5,16368
    3b90:	103fcf0e 	bge	r2,zero,3ad0 <__alt_mem_VGA_Subsystem_Char_Buf_Subsystem_Onchip_SRAM+0xf7003ad0>
    3b94:	d8c01317 	ldw	r3,76(sp)
    3b98:	d8c00515 	stw	r3,20(sp)
    3b9c:	d9400917 	ldw	r5,36(sp)
    3ba0:	e009883a 	mov	r4,fp
    3ba4:	0006c380 	call	6c38 <_Bfree>
    3ba8:	d9000517 	ldw	r4,20(sp)
    3bac:	d9802317 	ldw	r6,140(sp)
    3bb0:	d9c02517 	ldw	r7,148(sp)
    3bb4:	b8000005 	stb	zero,0(r23)
    3bb8:	20800044 	addi	r2,r4,1
    3bbc:	30800015 	stw	r2,0(r6)
    3bc0:	3802aa26 	beq	r7,zero,466c <_dtoa_r+0x1178>
    3bc4:	3dc00015 	stw	r23,0(r7)
    3bc8:	d8800717 	ldw	r2,28(sp)
    3bcc:	003e7906 	br	35b4 <__alt_mem_VGA_Subsystem_Char_Buf_Subsystem_Onchip_SRAM+0xf70035b4>
    3bd0:	00800434 	movhi	r2,16
    3bd4:	10bfffc4 	addi	r2,r2,-1
    3bd8:	88a2703a 	and	r17,r17,r2
    3bdc:	883e851e 	bne	r17,zero,35f4 <__alt_mem_VGA_Subsystem_Char_Buf_Subsystem_Onchip_SRAM+0xf70035f4>
    3be0:	008000b4 	movhi	r2,2
    3be4:	10a7e504 	addi	r2,r2,-24684
    3be8:	003e8406 	br	35fc <__alt_mem_VGA_Subsystem_Char_Buf_Subsystem_Onchip_SRAM+0xf70035fc>
    3bec:	10c00204 	addi	r3,r2,8
    3bf0:	003e8706 	br	3610 <__alt_mem_VGA_Subsystem_Char_Buf_Subsystem_Onchip_SRAM+0xf7003610>
    3bf4:	01400434 	movhi	r5,16
    3bf8:	297fffc4 	addi	r5,r5,-1
    3bfc:	994a703a 	and	r5,r19,r5
    3c00:	9009883a 	mov	r4,r18
    3c04:	843f0044 	addi	r16,r16,-1023
    3c08:	294ffc34 	orhi	r5,r5,16368
    3c0c:	dd800217 	ldw	r22,8(sp)
    3c10:	d8001115 	stw	zero,68(sp)
    3c14:	003ea506 	br	36ac <__alt_mem_VGA_Subsystem_Char_Buf_Subsystem_Onchip_SRAM+0xf70036ac>
    3c18:	008000b4 	movhi	r2,2
    3c1c:	10a7dc04 	addi	r2,r2,-24720
    3c20:	003e6406 	br	35b4 <__alt_mem_VGA_Subsystem_Char_Buf_Subsystem_Onchip_SRAM+0xf70035b4>
    3c24:	e0001115 	stw	zero,68(fp)
    3c28:	000b883a 	mov	r5,zero
    3c2c:	e009883a 	mov	r4,fp
    3c30:	0006b900 	call	6b90 <_Balloc>
    3c34:	01bfffc4 	movi	r6,-1
    3c38:	01c00044 	movi	r7,1
    3c3c:	d8800715 	stw	r2,28(sp)
    3c40:	d9800c15 	stw	r6,48(sp)
    3c44:	e0801015 	stw	r2,64(fp)
    3c48:	d8000315 	stw	zero,12(sp)
    3c4c:	d9c00b15 	stw	r7,44(sp)
    3c50:	d9800615 	stw	r6,24(sp)
    3c54:	d8002215 	stw	zero,136(sp)
    3c58:	d8800117 	ldw	r2,4(sp)
    3c5c:	10008916 	blt	r2,zero,3e84 <_dtoa_r+0x990>
    3c60:	d9000517 	ldw	r4,20(sp)
    3c64:	00c00384 	movi	r3,14
    3c68:	19008616 	blt	r3,r4,3e84 <_dtoa_r+0x990>
    3c6c:	200490fa 	slli	r2,r4,3
    3c70:	00c000b4 	movhi	r3,2
    3c74:	d9802217 	ldw	r6,136(sp)
    3c78:	18e80304 	addi	r3,r3,-24564
    3c7c:	1885883a 	add	r2,r3,r2
    3c80:	14000017 	ldw	r16,0(r2)
    3c84:	14400117 	ldw	r17,4(r2)
    3c88:	30016316 	blt	r6,zero,4218 <_dtoa_r+0xd24>
    3c8c:	800d883a 	mov	r6,r16
    3c90:	880f883a 	mov	r7,r17
    3c94:	9009883a 	mov	r4,r18
    3c98:	980b883a 	mov	r5,r19
    3c9c:	000b85c0 	call	b85c <__divdf3>
    3ca0:	180b883a 	mov	r5,r3
    3ca4:	1009883a 	mov	r4,r2
    3ca8:	000d3b00 	call	d3b0 <__fixdfsi>
    3cac:	1009883a 	mov	r4,r2
    3cb0:	102b883a 	mov	r21,r2
    3cb4:	000d4300 	call	d430 <__floatsidf>
    3cb8:	800d883a 	mov	r6,r16
    3cbc:	880f883a 	mov	r7,r17
    3cc0:	1009883a 	mov	r4,r2
    3cc4:	180b883a 	mov	r5,r3
    3cc8:	000c39c0 	call	c39c <__muldf3>
    3ccc:	100d883a 	mov	r6,r2
    3cd0:	180f883a 	mov	r7,r3
    3cd4:	9009883a 	mov	r4,r18
    3cd8:	980b883a 	mov	r5,r19
    3cdc:	000cab40 	call	cab4 <__subdf3>
    3ce0:	d9c00717 	ldw	r7,28(sp)
    3ce4:	1009883a 	mov	r4,r2
    3ce8:	a8800c04 	addi	r2,r21,48
    3cec:	38800005 	stb	r2,0(r7)
    3cf0:	3dc00044 	addi	r23,r7,1
    3cf4:	d9c00617 	ldw	r7,24(sp)
    3cf8:	01800044 	movi	r6,1
    3cfc:	180b883a 	mov	r5,r3
    3d00:	2005883a 	mov	r2,r4
    3d04:	39803826 	beq	r7,r6,3de8 <_dtoa_r+0x8f4>
    3d08:	000d883a 	mov	r6,zero
    3d0c:	01d00934 	movhi	r7,16420
    3d10:	000c39c0 	call	c39c <__muldf3>
    3d14:	000d883a 	mov	r6,zero
    3d18:	000f883a 	mov	r7,zero
    3d1c:	1009883a 	mov	r4,r2
    3d20:	180b883a 	mov	r5,r3
    3d24:	1025883a 	mov	r18,r2
    3d28:	1827883a 	mov	r19,r3
    3d2c:	000c1440 	call	c144 <__eqdf2>
    3d30:	103f9a26 	beq	r2,zero,3b9c <__alt_mem_VGA_Subsystem_Char_Buf_Subsystem_Onchip_SRAM+0xf7003b9c>
    3d34:	d9c00617 	ldw	r7,24(sp)
    3d38:	d8c00717 	ldw	r3,28(sp)
    3d3c:	b829883a 	mov	r20,r23
    3d40:	38bfffc4 	addi	r2,r7,-1
    3d44:	18ad883a 	add	r22,r3,r2
    3d48:	00000a06 	br	3d74 <_dtoa_r+0x880>
    3d4c:	000c39c0 	call	c39c <__muldf3>
    3d50:	000d883a 	mov	r6,zero
    3d54:	000f883a 	mov	r7,zero
    3d58:	1009883a 	mov	r4,r2
    3d5c:	180b883a 	mov	r5,r3
    3d60:	1025883a 	mov	r18,r2
    3d64:	1827883a 	mov	r19,r3
    3d68:	b829883a 	mov	r20,r23
    3d6c:	000c1440 	call	c144 <__eqdf2>
    3d70:	103f8a26 	beq	r2,zero,3b9c <__alt_mem_VGA_Subsystem_Char_Buf_Subsystem_Onchip_SRAM+0xf7003b9c>
    3d74:	800d883a 	mov	r6,r16
    3d78:	880f883a 	mov	r7,r17
    3d7c:	9009883a 	mov	r4,r18
    3d80:	980b883a 	mov	r5,r19
    3d84:	000b85c0 	call	b85c <__divdf3>
    3d88:	180b883a 	mov	r5,r3
    3d8c:	1009883a 	mov	r4,r2
    3d90:	000d3b00 	call	d3b0 <__fixdfsi>
    3d94:	1009883a 	mov	r4,r2
    3d98:	102b883a 	mov	r21,r2
    3d9c:	000d4300 	call	d430 <__floatsidf>
    3da0:	800d883a 	mov	r6,r16
    3da4:	880f883a 	mov	r7,r17
    3da8:	1009883a 	mov	r4,r2
    3dac:	180b883a 	mov	r5,r3
    3db0:	000c39c0 	call	c39c <__muldf3>
    3db4:	100d883a 	mov	r6,r2
    3db8:	180f883a 	mov	r7,r3
    3dbc:	9009883a 	mov	r4,r18
    3dc0:	980b883a 	mov	r5,r19
    3dc4:	000cab40 	call	cab4 <__subdf3>
    3dc8:	aa000c04 	addi	r8,r21,48
    3dcc:	a2000005 	stb	r8,0(r20)
    3dd0:	000d883a 	mov	r6,zero
    3dd4:	01d00934 	movhi	r7,16420
    3dd8:	1009883a 	mov	r4,r2
    3ddc:	180b883a 	mov	r5,r3
    3de0:	a5c00044 	addi	r23,r20,1
    3de4:	b53fd91e 	bne	r22,r20,3d4c <__alt_mem_VGA_Subsystem_Char_Buf_Subsystem_Onchip_SRAM+0xf7003d4c>
    3de8:	100d883a 	mov	r6,r2
    3dec:	180f883a 	mov	r7,r3
    3df0:	1009883a 	mov	r4,r2
    3df4:	180b883a 	mov	r5,r3
    3df8:	000afb00 	call	afb0 <__adddf3>
    3dfc:	100d883a 	mov	r6,r2
    3e00:	180f883a 	mov	r7,r3
    3e04:	8009883a 	mov	r4,r16
    3e08:	880b883a 	mov	r5,r17
    3e0c:	1027883a 	mov	r19,r2
    3e10:	1825883a 	mov	r18,r3
    3e14:	000c2a80 	call	c2a8 <__ledf2>
    3e18:	10000816 	blt	r2,zero,3e3c <_dtoa_r+0x948>
    3e1c:	980d883a 	mov	r6,r19
    3e20:	900f883a 	mov	r7,r18
    3e24:	8009883a 	mov	r4,r16
    3e28:	880b883a 	mov	r5,r17
    3e2c:	000c1440 	call	c144 <__eqdf2>
    3e30:	103f5a1e 	bne	r2,zero,3b9c <__alt_mem_VGA_Subsystem_Char_Buf_Subsystem_Onchip_SRAM+0xf7003b9c>
    3e34:	ad40004c 	andi	r21,r21,1
    3e38:	a83f5826 	beq	r21,zero,3b9c <__alt_mem_VGA_Subsystem_Char_Buf_Subsystem_Onchip_SRAM+0xf7003b9c>
    3e3c:	bd3fffc3 	ldbu	r20,-1(r23)
    3e40:	b8bfffc4 	addi	r2,r23,-1
    3e44:	1007883a 	mov	r3,r2
    3e48:	01400e44 	movi	r5,57
    3e4c:	d9800717 	ldw	r6,28(sp)
    3e50:	00000506 	br	3e68 <_dtoa_r+0x974>
    3e54:	18ffffc4 	addi	r3,r3,-1
    3e58:	11824726 	beq	r2,r6,4778 <_dtoa_r+0x1284>
    3e5c:	1d000003 	ldbu	r20,0(r3)
    3e60:	102f883a 	mov	r23,r2
    3e64:	10bfffc4 	addi	r2,r2,-1
    3e68:	a1003fcc 	andi	r4,r20,255
    3e6c:	2100201c 	xori	r4,r4,128
    3e70:	213fe004 	addi	r4,r4,-128
    3e74:	217ff726 	beq	r4,r5,3e54 <__alt_mem_VGA_Subsystem_Char_Buf_Subsystem_Onchip_SRAM+0xf7003e54>
    3e78:	a2000044 	addi	r8,r20,1
    3e7c:	12000005 	stb	r8,0(r2)
    3e80:	003f4606 	br	3b9c <__alt_mem_VGA_Subsystem_Char_Buf_Subsystem_Onchip_SRAM+0xf7003b9c>
    3e84:	d9000b17 	ldw	r4,44(sp)
    3e88:	2000c826 	beq	r4,zero,41ac <_dtoa_r+0xcb8>
    3e8c:	d9800317 	ldw	r6,12(sp)
    3e90:	00c00044 	movi	r3,1
    3e94:	1980f90e 	bge	r3,r6,427c <_dtoa_r+0xd88>
    3e98:	d8800617 	ldw	r2,24(sp)
    3e9c:	d8c00a17 	ldw	r3,40(sp)
    3ea0:	157fffc4 	addi	r21,r2,-1
    3ea4:	1d41f316 	blt	r3,r21,4674 <_dtoa_r+0x1180>
    3ea8:	1d6bc83a 	sub	r21,r3,r21
    3eac:	d9c00617 	ldw	r7,24(sp)
    3eb0:	3802aa16 	blt	r7,zero,495c <_dtoa_r+0x1468>
    3eb4:	dd000817 	ldw	r20,32(sp)
    3eb8:	d8800617 	ldw	r2,24(sp)
    3ebc:	d8c00817 	ldw	r3,32(sp)
    3ec0:	01400044 	movi	r5,1
    3ec4:	e009883a 	mov	r4,fp
    3ec8:	1887883a 	add	r3,r3,r2
    3ecc:	d8c00815 	stw	r3,32(sp)
    3ed0:	b0ad883a 	add	r22,r22,r2
    3ed4:	0006f9c0 	call	6f9c <__i2b>
    3ed8:	1023883a 	mov	r17,r2
    3edc:	a0000826 	beq	r20,zero,3f00 <_dtoa_r+0xa0c>
    3ee0:	0580070e 	bge	zero,r22,3f00 <_dtoa_r+0xa0c>
    3ee4:	a005883a 	mov	r2,r20
    3ee8:	b500b916 	blt	r22,r20,41d0 <_dtoa_r+0xcdc>
    3eec:	d9000817 	ldw	r4,32(sp)
    3ef0:	a0a9c83a 	sub	r20,r20,r2
    3ef4:	b0adc83a 	sub	r22,r22,r2
    3ef8:	2089c83a 	sub	r4,r4,r2
    3efc:	d9000815 	stw	r4,32(sp)
    3f00:	d9800a17 	ldw	r6,40(sp)
    3f04:	0181810e 	bge	zero,r6,450c <_dtoa_r+0x1018>
    3f08:	d9c00b17 	ldw	r7,44(sp)
    3f0c:	3800b326 	beq	r7,zero,41dc <_dtoa_r+0xce8>
    3f10:	a800b226 	beq	r21,zero,41dc <_dtoa_r+0xce8>
    3f14:	880b883a 	mov	r5,r17
    3f18:	a80d883a 	mov	r6,r21
    3f1c:	e009883a 	mov	r4,fp
    3f20:	00071d00 	call	71d0 <__pow5mult>
    3f24:	d9800917 	ldw	r6,36(sp)
    3f28:	100b883a 	mov	r5,r2
    3f2c:	e009883a 	mov	r4,fp
    3f30:	1023883a 	mov	r17,r2
    3f34:	0006fd80 	call	6fd8 <__multiply>
    3f38:	1021883a 	mov	r16,r2
    3f3c:	d8800a17 	ldw	r2,40(sp)
    3f40:	d9400917 	ldw	r5,36(sp)
    3f44:	e009883a 	mov	r4,fp
    3f48:	1545c83a 	sub	r2,r2,r21
    3f4c:	d8800a15 	stw	r2,40(sp)
    3f50:	0006c380 	call	6c38 <_Bfree>
    3f54:	d8c00a17 	ldw	r3,40(sp)
    3f58:	18009f1e 	bne	r3,zero,41d8 <_dtoa_r+0xce4>
    3f5c:	05c00044 	movi	r23,1
    3f60:	e009883a 	mov	r4,fp
    3f64:	b80b883a 	mov	r5,r23
    3f68:	0006f9c0 	call	6f9c <__i2b>
    3f6c:	d9000d17 	ldw	r4,52(sp)
    3f70:	102b883a 	mov	r21,r2
    3f74:	2000ce26 	beq	r4,zero,42b0 <_dtoa_r+0xdbc>
    3f78:	200d883a 	mov	r6,r4
    3f7c:	100b883a 	mov	r5,r2
    3f80:	e009883a 	mov	r4,fp
    3f84:	00071d00 	call	71d0 <__pow5mult>
    3f88:	d9800317 	ldw	r6,12(sp)
    3f8c:	102b883a 	mov	r21,r2
    3f90:	b981810e 	bge	r23,r6,4598 <_dtoa_r+0x10a4>
    3f94:	0027883a 	mov	r19,zero
    3f98:	a8800417 	ldw	r2,16(r21)
    3f9c:	05c00804 	movi	r23,32
    3fa0:	10800104 	addi	r2,r2,4
    3fa4:	1085883a 	add	r2,r2,r2
    3fa8:	1085883a 	add	r2,r2,r2
    3fac:	a885883a 	add	r2,r21,r2
    3fb0:	11000017 	ldw	r4,0(r2)
    3fb4:	0006e840 	call	6e84 <__hi0bits>
    3fb8:	b885c83a 	sub	r2,r23,r2
    3fbc:	1585883a 	add	r2,r2,r22
    3fc0:	108007cc 	andi	r2,r2,31
    3fc4:	1000b326 	beq	r2,zero,4294 <_dtoa_r+0xda0>
    3fc8:	00c00804 	movi	r3,32
    3fcc:	1887c83a 	sub	r3,r3,r2
    3fd0:	01000104 	movi	r4,4
    3fd4:	20c2cd0e 	bge	r4,r3,4b0c <_dtoa_r+0x1618>
    3fd8:	00c00704 	movi	r3,28
    3fdc:	1885c83a 	sub	r2,r3,r2
    3fe0:	d8c00817 	ldw	r3,32(sp)
    3fe4:	a0a9883a 	add	r20,r20,r2
    3fe8:	b0ad883a 	add	r22,r22,r2
    3fec:	1887883a 	add	r3,r3,r2
    3ff0:	d8c00815 	stw	r3,32(sp)
    3ff4:	d9800817 	ldw	r6,32(sp)
    3ff8:	0180040e 	bge	zero,r6,400c <_dtoa_r+0xb18>
    3ffc:	800b883a 	mov	r5,r16
    4000:	e009883a 	mov	r4,fp
    4004:	00073100 	call	7310 <__lshift>
    4008:	1021883a 	mov	r16,r2
    400c:	0580050e 	bge	zero,r22,4024 <_dtoa_r+0xb30>
    4010:	a80b883a 	mov	r5,r21
    4014:	b00d883a 	mov	r6,r22
    4018:	e009883a 	mov	r4,fp
    401c:	00073100 	call	7310 <__lshift>
    4020:	102b883a 	mov	r21,r2
    4024:	d9c00e17 	ldw	r7,56(sp)
    4028:	3801211e 	bne	r7,zero,44b0 <_dtoa_r+0xfbc>
    402c:	d9800617 	ldw	r6,24(sp)
    4030:	0181380e 	bge	zero,r6,4514 <_dtoa_r+0x1020>
    4034:	d8c00b17 	ldw	r3,44(sp)
    4038:	1800ab1e 	bne	r3,zero,42e8 <_dtoa_r+0xdf4>
    403c:	dc800717 	ldw	r18,28(sp)
    4040:	dcc00617 	ldw	r19,24(sp)
    4044:	9029883a 	mov	r20,r18
    4048:	00000206 	br	4054 <_dtoa_r+0xb60>
    404c:	0006c600 	call	6c60 <__multadd>
    4050:	1021883a 	mov	r16,r2
    4054:	a80b883a 	mov	r5,r21
    4058:	8009883a 	mov	r4,r16
    405c:	00032f40 	call	32f4 <quorem>
    4060:	10800c04 	addi	r2,r2,48
    4064:	90800005 	stb	r2,0(r18)
    4068:	94800044 	addi	r18,r18,1
    406c:	9507c83a 	sub	r3,r18,r20
    4070:	000f883a 	mov	r7,zero
    4074:	01800284 	movi	r6,10
    4078:	800b883a 	mov	r5,r16
    407c:	e009883a 	mov	r4,fp
    4080:	1cfff216 	blt	r3,r19,404c <__alt_mem_VGA_Subsystem_Char_Buf_Subsystem_Onchip_SRAM+0xf700404c>
    4084:	1011883a 	mov	r8,r2
    4088:	d8800617 	ldw	r2,24(sp)
    408c:	0082370e 	bge	zero,r2,496c <_dtoa_r+0x1478>
    4090:	d9000717 	ldw	r4,28(sp)
    4094:	0025883a 	mov	r18,zero
    4098:	20af883a 	add	r23,r4,r2
    409c:	01800044 	movi	r6,1
    40a0:	800b883a 	mov	r5,r16
    40a4:	e009883a 	mov	r4,fp
    40a8:	da001715 	stw	r8,92(sp)
    40ac:	00073100 	call	7310 <__lshift>
    40b0:	a80b883a 	mov	r5,r21
    40b4:	1009883a 	mov	r4,r2
    40b8:	d8800915 	stw	r2,36(sp)
    40bc:	00074580 	call	7458 <__mcmp>
    40c0:	da001717 	ldw	r8,92(sp)
    40c4:	0081800e 	bge	zero,r2,46c8 <_dtoa_r+0x11d4>
    40c8:	b93fffc3 	ldbu	r4,-1(r23)
    40cc:	b8bfffc4 	addi	r2,r23,-1
    40d0:	1007883a 	mov	r3,r2
    40d4:	01800e44 	movi	r6,57
    40d8:	d9c00717 	ldw	r7,28(sp)
    40dc:	00000506 	br	40f4 <_dtoa_r+0xc00>
    40e0:	18ffffc4 	addi	r3,r3,-1
    40e4:	11c12326 	beq	r2,r7,4574 <_dtoa_r+0x1080>
    40e8:	19000003 	ldbu	r4,0(r3)
    40ec:	102f883a 	mov	r23,r2
    40f0:	10bfffc4 	addi	r2,r2,-1
    40f4:	21403fcc 	andi	r5,r4,255
    40f8:	2940201c 	xori	r5,r5,128
    40fc:	297fe004 	addi	r5,r5,-128
    4100:	29bff726 	beq	r5,r6,40e0 <__alt_mem_VGA_Subsystem_Char_Buf_Subsystem_Onchip_SRAM+0xf70040e0>
    4104:	21000044 	addi	r4,r4,1
    4108:	11000005 	stb	r4,0(r2)
    410c:	a80b883a 	mov	r5,r21
    4110:	e009883a 	mov	r4,fp
    4114:	0006c380 	call	6c38 <_Bfree>
    4118:	883ea026 	beq	r17,zero,3b9c <__alt_mem_VGA_Subsystem_Char_Buf_Subsystem_Onchip_SRAM+0xf7003b9c>
    411c:	90000426 	beq	r18,zero,4130 <_dtoa_r+0xc3c>
    4120:	94400326 	beq	r18,r17,4130 <_dtoa_r+0xc3c>
    4124:	900b883a 	mov	r5,r18
    4128:	e009883a 	mov	r4,fp
    412c:	0006c380 	call	6c38 <_Bfree>
    4130:	880b883a 	mov	r5,r17
    4134:	e009883a 	mov	r4,fp
    4138:	0006c380 	call	6c38 <_Bfree>
    413c:	003e9706 	br	3b9c <__alt_mem_VGA_Subsystem_Char_Buf_Subsystem_Onchip_SRAM+0xf7003b9c>
    4140:	01800044 	movi	r6,1
    4144:	d9800e15 	stw	r6,56(sp)
    4148:	003d9606 	br	37a4 <__alt_mem_VGA_Subsystem_Char_Buf_Subsystem_Onchip_SRAM+0xf70037a4>
    414c:	d8800817 	ldw	r2,32(sp)
    4150:	d8c00517 	ldw	r3,20(sp)
    4154:	d8000d15 	stw	zero,52(sp)
    4158:	10c5c83a 	sub	r2,r2,r3
    415c:	00c9c83a 	sub	r4,zero,r3
    4160:	d8800815 	stw	r2,32(sp)
    4164:	d9000a15 	stw	r4,40(sp)
    4168:	003d9706 	br	37c8 <__alt_mem_VGA_Subsystem_Char_Buf_Subsystem_Onchip_SRAM+0xf70037c8>
    416c:	05adc83a 	sub	r22,zero,r22
    4170:	dd800815 	stw	r22,32(sp)
    4174:	002d883a 	mov	r22,zero
    4178:	003d8e06 	br	37b4 <__alt_mem_VGA_Subsystem_Char_Buf_Subsystem_Onchip_SRAM+0xf70037b4>
    417c:	d9000517 	ldw	r4,20(sp)
    4180:	000d4300 	call	d430 <__floatsidf>
    4184:	100d883a 	mov	r6,r2
    4188:	180f883a 	mov	r7,r3
    418c:	a009883a 	mov	r4,r20
    4190:	880b883a 	mov	r5,r17
    4194:	000c1440 	call	c144 <__eqdf2>
    4198:	103d7126 	beq	r2,zero,3760 <__alt_mem_VGA_Subsystem_Char_Buf_Subsystem_Onchip_SRAM+0xf7003760>
    419c:	d9c00517 	ldw	r7,20(sp)
    41a0:	39ffffc4 	addi	r7,r7,-1
    41a4:	d9c00515 	stw	r7,20(sp)
    41a8:	003d6d06 	br	3760 <__alt_mem_VGA_Subsystem_Char_Buf_Subsystem_Onchip_SRAM+0xf7003760>
    41ac:	dd400a17 	ldw	r21,40(sp)
    41b0:	dd000817 	ldw	r20,32(sp)
    41b4:	0023883a 	mov	r17,zero
    41b8:	003f4806 	br	3edc <__alt_mem_VGA_Subsystem_Char_Buf_Subsystem_Onchip_SRAM+0xf7003edc>
    41bc:	10e3c83a 	sub	r17,r2,r3
    41c0:	9448983a 	sll	r4,r18,r17
    41c4:	003d3206 	br	3690 <__alt_mem_VGA_Subsystem_Char_Buf_Subsystem_Onchip_SRAM+0xf7003690>
    41c8:	d8000e15 	stw	zero,56(sp)
    41cc:	003d7506 	br	37a4 <__alt_mem_VGA_Subsystem_Char_Buf_Subsystem_Onchip_SRAM+0xf70037a4>
    41d0:	b005883a 	mov	r2,r22
    41d4:	003f4506 	br	3eec <__alt_mem_VGA_Subsystem_Char_Buf_Subsystem_Onchip_SRAM+0xf7003eec>
    41d8:	dc000915 	stw	r16,36(sp)
    41dc:	d9800a17 	ldw	r6,40(sp)
    41e0:	d9400917 	ldw	r5,36(sp)
    41e4:	e009883a 	mov	r4,fp
    41e8:	00071d00 	call	71d0 <__pow5mult>
    41ec:	1021883a 	mov	r16,r2
    41f0:	003f5a06 	br	3f5c <__alt_mem_VGA_Subsystem_Char_Buf_Subsystem_Onchip_SRAM+0xf7003f5c>
    41f4:	01c00044 	movi	r7,1
    41f8:	d9c00b15 	stw	r7,44(sp)
    41fc:	d8802217 	ldw	r2,136(sp)
    4200:	0081280e 	bge	zero,r2,46a4 <_dtoa_r+0x11b0>
    4204:	100d883a 	mov	r6,r2
    4208:	1021883a 	mov	r16,r2
    420c:	d8800c15 	stw	r2,48(sp)
    4210:	d8800615 	stw	r2,24(sp)
    4214:	003d8806 	br	3838 <__alt_mem_VGA_Subsystem_Char_Buf_Subsystem_Onchip_SRAM+0xf7003838>
    4218:	d8800617 	ldw	r2,24(sp)
    421c:	00be9b16 	blt	zero,r2,3c8c <__alt_mem_VGA_Subsystem_Char_Buf_Subsystem_Onchip_SRAM+0xf7003c8c>
    4220:	10010f1e 	bne	r2,zero,4660 <_dtoa_r+0x116c>
    4224:	880b883a 	mov	r5,r17
    4228:	000d883a 	mov	r6,zero
    422c:	01d00534 	movhi	r7,16404
    4230:	8009883a 	mov	r4,r16
    4234:	000c39c0 	call	c39c <__muldf3>
    4238:	900d883a 	mov	r6,r18
    423c:	980f883a 	mov	r7,r19
    4240:	1009883a 	mov	r4,r2
    4244:	180b883a 	mov	r5,r3
    4248:	000c1cc0 	call	c1cc <__gedf2>
    424c:	002b883a 	mov	r21,zero
    4250:	0023883a 	mov	r17,zero
    4254:	1000bf16 	blt	r2,zero,4554 <_dtoa_r+0x1060>
    4258:	d9802217 	ldw	r6,136(sp)
    425c:	ddc00717 	ldw	r23,28(sp)
    4260:	018c303a 	nor	r6,zero,r6
    4264:	d9800515 	stw	r6,20(sp)
    4268:	a80b883a 	mov	r5,r21
    426c:	e009883a 	mov	r4,fp
    4270:	0006c380 	call	6c38 <_Bfree>
    4274:	883e4926 	beq	r17,zero,3b9c <__alt_mem_VGA_Subsystem_Char_Buf_Subsystem_Onchip_SRAM+0xf7003b9c>
    4278:	003fad06 	br	4130 <__alt_mem_VGA_Subsystem_Char_Buf_Subsystem_Onchip_SRAM+0xf7004130>
    427c:	d9c01117 	ldw	r7,68(sp)
    4280:	3801bc26 	beq	r7,zero,4974 <_dtoa_r+0x1480>
    4284:	10810cc4 	addi	r2,r2,1075
    4288:	dd400a17 	ldw	r21,40(sp)
    428c:	dd000817 	ldw	r20,32(sp)
    4290:	003f0a06 	br	3ebc <__alt_mem_VGA_Subsystem_Char_Buf_Subsystem_Onchip_SRAM+0xf7003ebc>
    4294:	00800704 	movi	r2,28
    4298:	d9000817 	ldw	r4,32(sp)
    429c:	a0a9883a 	add	r20,r20,r2
    42a0:	b0ad883a 	add	r22,r22,r2
    42a4:	2089883a 	add	r4,r4,r2
    42a8:	d9000815 	stw	r4,32(sp)
    42ac:	003f5106 	br	3ff4 <__alt_mem_VGA_Subsystem_Char_Buf_Subsystem_Onchip_SRAM+0xf7003ff4>
    42b0:	d8c00317 	ldw	r3,12(sp)
    42b4:	b8c1fc0e 	bge	r23,r3,4aa8 <_dtoa_r+0x15b4>
    42b8:	0027883a 	mov	r19,zero
    42bc:	b805883a 	mov	r2,r23
    42c0:	003f3e06 	br	3fbc <__alt_mem_VGA_Subsystem_Char_Buf_Subsystem_Onchip_SRAM+0xf7003fbc>
    42c4:	880b883a 	mov	r5,r17
    42c8:	e009883a 	mov	r4,fp
    42cc:	000f883a 	mov	r7,zero
    42d0:	01800284 	movi	r6,10
    42d4:	0006c600 	call	6c60 <__multadd>
    42d8:	d9000c17 	ldw	r4,48(sp)
    42dc:	1023883a 	mov	r17,r2
    42e0:	0102040e 	bge	zero,r4,4af4 <_dtoa_r+0x1600>
    42e4:	d9000615 	stw	r4,24(sp)
    42e8:	0500050e 	bge	zero,r20,4300 <_dtoa_r+0xe0c>
    42ec:	880b883a 	mov	r5,r17
    42f0:	a00d883a 	mov	r6,r20
    42f4:	e009883a 	mov	r4,fp
    42f8:	00073100 	call	7310 <__lshift>
    42fc:	1023883a 	mov	r17,r2
    4300:	9801241e 	bne	r19,zero,4794 <_dtoa_r+0x12a0>
    4304:	8829883a 	mov	r20,r17
    4308:	d9000617 	ldw	r4,24(sp)
    430c:	dcc00717 	ldw	r19,28(sp)
    4310:	9480004c 	andi	r18,r18,1
    4314:	20bfffc4 	addi	r2,r4,-1
    4318:	9885883a 	add	r2,r19,r2
    431c:	d8800415 	stw	r2,16(sp)
    4320:	dc800615 	stw	r18,24(sp)
    4324:	a80b883a 	mov	r5,r21
    4328:	8009883a 	mov	r4,r16
    432c:	00032f40 	call	32f4 <quorem>
    4330:	880b883a 	mov	r5,r17
    4334:	8009883a 	mov	r4,r16
    4338:	102f883a 	mov	r23,r2
    433c:	00074580 	call	7458 <__mcmp>
    4340:	a80b883a 	mov	r5,r21
    4344:	a00d883a 	mov	r6,r20
    4348:	e009883a 	mov	r4,fp
    434c:	102d883a 	mov	r22,r2
    4350:	00074b80 	call	74b8 <__mdiff>
    4354:	1007883a 	mov	r3,r2
    4358:	10800317 	ldw	r2,12(r2)
    435c:	bc800c04 	addi	r18,r23,48
    4360:	180b883a 	mov	r5,r3
    4364:	10004e1e 	bne	r2,zero,44a0 <_dtoa_r+0xfac>
    4368:	8009883a 	mov	r4,r16
    436c:	d8c01615 	stw	r3,88(sp)
    4370:	00074580 	call	7458 <__mcmp>
    4374:	d8c01617 	ldw	r3,88(sp)
    4378:	e009883a 	mov	r4,fp
    437c:	d8801615 	stw	r2,88(sp)
    4380:	180b883a 	mov	r5,r3
    4384:	0006c380 	call	6c38 <_Bfree>
    4388:	d8801617 	ldw	r2,88(sp)
    438c:	1000041e 	bne	r2,zero,43a0 <_dtoa_r+0xeac>
    4390:	d9800317 	ldw	r6,12(sp)
    4394:	3000021e 	bne	r6,zero,43a0 <_dtoa_r+0xeac>
    4398:	d8c00617 	ldw	r3,24(sp)
    439c:	18003726 	beq	r3,zero,447c <_dtoa_r+0xf88>
    43a0:	b0002016 	blt	r22,zero,4424 <_dtoa_r+0xf30>
    43a4:	b000041e 	bne	r22,zero,43b8 <_dtoa_r+0xec4>
    43a8:	d9000317 	ldw	r4,12(sp)
    43ac:	2000021e 	bne	r4,zero,43b8 <_dtoa_r+0xec4>
    43b0:	d8c00617 	ldw	r3,24(sp)
    43b4:	18001b26 	beq	r3,zero,4424 <_dtoa_r+0xf30>
    43b8:	00810716 	blt	zero,r2,47d8 <_dtoa_r+0x12e4>
    43bc:	d8c00417 	ldw	r3,16(sp)
    43c0:	9d800044 	addi	r22,r19,1
    43c4:	9c800005 	stb	r18,0(r19)
    43c8:	b02f883a 	mov	r23,r22
    43cc:	98c10626 	beq	r19,r3,47e8 <_dtoa_r+0x12f4>
    43d0:	800b883a 	mov	r5,r16
    43d4:	000f883a 	mov	r7,zero
    43d8:	01800284 	movi	r6,10
    43dc:	e009883a 	mov	r4,fp
    43e0:	0006c600 	call	6c60 <__multadd>
    43e4:	1021883a 	mov	r16,r2
    43e8:	000f883a 	mov	r7,zero
    43ec:	01800284 	movi	r6,10
    43f0:	880b883a 	mov	r5,r17
    43f4:	e009883a 	mov	r4,fp
    43f8:	8d002526 	beq	r17,r20,4490 <_dtoa_r+0xf9c>
    43fc:	0006c600 	call	6c60 <__multadd>
    4400:	a00b883a 	mov	r5,r20
    4404:	000f883a 	mov	r7,zero
    4408:	01800284 	movi	r6,10
    440c:	e009883a 	mov	r4,fp
    4410:	1023883a 	mov	r17,r2
    4414:	0006c600 	call	6c60 <__multadd>
    4418:	1029883a 	mov	r20,r2
    441c:	b027883a 	mov	r19,r22
    4420:	003fc006 	br	4324 <__alt_mem_VGA_Subsystem_Char_Buf_Subsystem_Onchip_SRAM+0xf7004324>
    4424:	9011883a 	mov	r8,r18
    4428:	00800e0e 	bge	zero,r2,4464 <_dtoa_r+0xf70>
    442c:	800b883a 	mov	r5,r16
    4430:	01800044 	movi	r6,1
    4434:	e009883a 	mov	r4,fp
    4438:	da001715 	stw	r8,92(sp)
    443c:	00073100 	call	7310 <__lshift>
    4440:	a80b883a 	mov	r5,r21
    4444:	1009883a 	mov	r4,r2
    4448:	1021883a 	mov	r16,r2
    444c:	00074580 	call	7458 <__mcmp>
    4450:	da001717 	ldw	r8,92(sp)
    4454:	0081960e 	bge	zero,r2,4ab0 <_dtoa_r+0x15bc>
    4458:	00800e44 	movi	r2,57
    445c:	40817026 	beq	r8,r2,4a20 <_dtoa_r+0x152c>
    4460:	ba000c44 	addi	r8,r23,49
    4464:	8825883a 	mov	r18,r17
    4468:	9dc00044 	addi	r23,r19,1
    446c:	9a000005 	stb	r8,0(r19)
    4470:	a023883a 	mov	r17,r20
    4474:	dc000915 	stw	r16,36(sp)
    4478:	003f2406 	br	410c <__alt_mem_VGA_Subsystem_Char_Buf_Subsystem_Onchip_SRAM+0xf700410c>
    447c:	00800e44 	movi	r2,57
    4480:	9011883a 	mov	r8,r18
    4484:	90816626 	beq	r18,r2,4a20 <_dtoa_r+0x152c>
    4488:	05bff516 	blt	zero,r22,4460 <__alt_mem_VGA_Subsystem_Char_Buf_Subsystem_Onchip_SRAM+0xf7004460>
    448c:	003ff506 	br	4464 <__alt_mem_VGA_Subsystem_Char_Buf_Subsystem_Onchip_SRAM+0xf7004464>
    4490:	0006c600 	call	6c60 <__multadd>
    4494:	1023883a 	mov	r17,r2
    4498:	1029883a 	mov	r20,r2
    449c:	003fdf06 	br	441c <__alt_mem_VGA_Subsystem_Char_Buf_Subsystem_Onchip_SRAM+0xf700441c>
    44a0:	e009883a 	mov	r4,fp
    44a4:	0006c380 	call	6c38 <_Bfree>
    44a8:	00800044 	movi	r2,1
    44ac:	003fbc06 	br	43a0 <__alt_mem_VGA_Subsystem_Char_Buf_Subsystem_Onchip_SRAM+0xf70043a0>
    44b0:	a80b883a 	mov	r5,r21
    44b4:	8009883a 	mov	r4,r16
    44b8:	00074580 	call	7458 <__mcmp>
    44bc:	103edb0e 	bge	r2,zero,402c <__alt_mem_VGA_Subsystem_Char_Buf_Subsystem_Onchip_SRAM+0xf700402c>
    44c0:	800b883a 	mov	r5,r16
    44c4:	000f883a 	mov	r7,zero
    44c8:	01800284 	movi	r6,10
    44cc:	e009883a 	mov	r4,fp
    44d0:	0006c600 	call	6c60 <__multadd>
    44d4:	1021883a 	mov	r16,r2
    44d8:	d8800517 	ldw	r2,20(sp)
    44dc:	d8c00b17 	ldw	r3,44(sp)
    44e0:	10bfffc4 	addi	r2,r2,-1
    44e4:	d8800515 	stw	r2,20(sp)
    44e8:	183f761e 	bne	r3,zero,42c4 <__alt_mem_VGA_Subsystem_Char_Buf_Subsystem_Onchip_SRAM+0xf70042c4>
    44ec:	d9000c17 	ldw	r4,48(sp)
    44f0:	0101730e 	bge	zero,r4,4ac0 <_dtoa_r+0x15cc>
    44f4:	d9000615 	stw	r4,24(sp)
    44f8:	003ed006 	br	403c <__alt_mem_VGA_Subsystem_Char_Buf_Subsystem_Onchip_SRAM+0xf700403c>
    44fc:	00800084 	movi	r2,2
    4500:	3081861e 	bne	r6,r2,4b1c <_dtoa_r+0x1628>
    4504:	d8000b15 	stw	zero,44(sp)
    4508:	003f3c06 	br	41fc <__alt_mem_VGA_Subsystem_Char_Buf_Subsystem_Onchip_SRAM+0xf70041fc>
    450c:	dc000917 	ldw	r16,36(sp)
    4510:	003e9206 	br	3f5c <__alt_mem_VGA_Subsystem_Char_Buf_Subsystem_Onchip_SRAM+0xf7003f5c>
    4514:	d9c00317 	ldw	r7,12(sp)
    4518:	00800084 	movi	r2,2
    451c:	11fec50e 	bge	r2,r7,4034 <__alt_mem_VGA_Subsystem_Char_Buf_Subsystem_Onchip_SRAM+0xf7004034>
    4520:	d9000617 	ldw	r4,24(sp)
    4524:	20013c1e 	bne	r4,zero,4a18 <_dtoa_r+0x1524>
    4528:	a80b883a 	mov	r5,r21
    452c:	000f883a 	mov	r7,zero
    4530:	01800144 	movi	r6,5
    4534:	e009883a 	mov	r4,fp
    4538:	0006c600 	call	6c60 <__multadd>
    453c:	100b883a 	mov	r5,r2
    4540:	8009883a 	mov	r4,r16
    4544:	102b883a 	mov	r21,r2
    4548:	00074580 	call	7458 <__mcmp>
    454c:	dc000915 	stw	r16,36(sp)
    4550:	00bf410e 	bge	zero,r2,4258 <__alt_mem_VGA_Subsystem_Char_Buf_Subsystem_Onchip_SRAM+0xf7004258>
    4554:	d9c00717 	ldw	r7,28(sp)
    4558:	00800c44 	movi	r2,49
    455c:	38800005 	stb	r2,0(r7)
    4560:	d8800517 	ldw	r2,20(sp)
    4564:	3dc00044 	addi	r23,r7,1
    4568:	10800044 	addi	r2,r2,1
    456c:	d8800515 	stw	r2,20(sp)
    4570:	003f3d06 	br	4268 <__alt_mem_VGA_Subsystem_Char_Buf_Subsystem_Onchip_SRAM+0xf7004268>
    4574:	d9800517 	ldw	r6,20(sp)
    4578:	d9c00717 	ldw	r7,28(sp)
    457c:	00800c44 	movi	r2,49
    4580:	31800044 	addi	r6,r6,1
    4584:	d9800515 	stw	r6,20(sp)
    4588:	38800005 	stb	r2,0(r7)
    458c:	003edf06 	br	410c <__alt_mem_VGA_Subsystem_Char_Buf_Subsystem_Onchip_SRAM+0xf700410c>
    4590:	d8000b15 	stw	zero,44(sp)
    4594:	003c9f06 	br	3814 <__alt_mem_VGA_Subsystem_Char_Buf_Subsystem_Onchip_SRAM+0xf7003814>
    4598:	903e7e1e 	bne	r18,zero,3f94 <__alt_mem_VGA_Subsystem_Char_Buf_Subsystem_Onchip_SRAM+0xf7003f94>
    459c:	00800434 	movhi	r2,16
    45a0:	10bfffc4 	addi	r2,r2,-1
    45a4:	9884703a 	and	r2,r19,r2
    45a8:	1000ea1e 	bne	r2,zero,4954 <_dtoa_r+0x1460>
    45ac:	9cdffc2c 	andhi	r19,r19,32752
    45b0:	9800e826 	beq	r19,zero,4954 <_dtoa_r+0x1460>
    45b4:	d9c00817 	ldw	r7,32(sp)
    45b8:	b5800044 	addi	r22,r22,1
    45bc:	04c00044 	movi	r19,1
    45c0:	39c00044 	addi	r7,r7,1
    45c4:	d9c00815 	stw	r7,32(sp)
    45c8:	d8800d17 	ldw	r2,52(sp)
    45cc:	103e721e 	bne	r2,zero,3f98 <__alt_mem_VGA_Subsystem_Char_Buf_Subsystem_Onchip_SRAM+0xf7003f98>
    45d0:	00800044 	movi	r2,1
    45d4:	003e7906 	br	3fbc <__alt_mem_VGA_Subsystem_Char_Buf_Subsystem_Onchip_SRAM+0xf7003fbc>
    45d8:	8009883a 	mov	r4,r16
    45dc:	000d4300 	call	d430 <__floatsidf>
    45e0:	d9800f17 	ldw	r6,60(sp)
    45e4:	d9c01017 	ldw	r7,64(sp)
    45e8:	1009883a 	mov	r4,r2
    45ec:	180b883a 	mov	r5,r3
    45f0:	000c39c0 	call	c39c <__muldf3>
    45f4:	000d883a 	mov	r6,zero
    45f8:	01d00734 	movhi	r7,16412
    45fc:	1009883a 	mov	r4,r2
    4600:	180b883a 	mov	r5,r3
    4604:	000afb00 	call	afb0 <__adddf3>
    4608:	047f3034 	movhi	r17,64704
    460c:	1021883a 	mov	r16,r2
    4610:	1c63883a 	add	r17,r3,r17
    4614:	d9000f17 	ldw	r4,60(sp)
    4618:	d9401017 	ldw	r5,64(sp)
    461c:	000d883a 	mov	r6,zero
    4620:	01d00534 	movhi	r7,16404
    4624:	000cab40 	call	cab4 <__subdf3>
    4628:	800d883a 	mov	r6,r16
    462c:	880f883a 	mov	r7,r17
    4630:	1009883a 	mov	r4,r2
    4634:	180b883a 	mov	r5,r3
    4638:	102b883a 	mov	r21,r2
    463c:	1829883a 	mov	r20,r3
    4640:	000c1cc0 	call	c1cc <__gedf2>
    4644:	00806c16 	blt	zero,r2,47f8 <_dtoa_r+0x1304>
    4648:	89e0003c 	xorhi	r7,r17,32768
    464c:	800d883a 	mov	r6,r16
    4650:	a809883a 	mov	r4,r21
    4654:	a00b883a 	mov	r5,r20
    4658:	000c2a80 	call	c2a8 <__ledf2>
    465c:	103d7e0e 	bge	r2,zero,3c58 <__alt_mem_VGA_Subsystem_Char_Buf_Subsystem_Onchip_SRAM+0xf7003c58>
    4660:	002b883a 	mov	r21,zero
    4664:	0023883a 	mov	r17,zero
    4668:	003efb06 	br	4258 <__alt_mem_VGA_Subsystem_Char_Buf_Subsystem_Onchip_SRAM+0xf7004258>
    466c:	d8800717 	ldw	r2,28(sp)
    4670:	003bd006 	br	35b4 <__alt_mem_VGA_Subsystem_Char_Buf_Subsystem_Onchip_SRAM+0xf70035b4>
    4674:	d9000a17 	ldw	r4,40(sp)
    4678:	d9800d17 	ldw	r6,52(sp)
    467c:	dd400a15 	stw	r21,40(sp)
    4680:	a905c83a 	sub	r2,r21,r4
    4684:	308d883a 	add	r6,r6,r2
    4688:	d9800d15 	stw	r6,52(sp)
    468c:	002b883a 	mov	r21,zero
    4690:	003e0606 	br	3eac <__alt_mem_VGA_Subsystem_Char_Buf_Subsystem_Onchip_SRAM+0xf7003eac>
    4694:	9023883a 	mov	r17,r18
    4698:	9829883a 	mov	r20,r19
    469c:	04000084 	movi	r16,2
    46a0:	003c9206 	br	38ec <__alt_mem_VGA_Subsystem_Char_Buf_Subsystem_Onchip_SRAM+0xf70038ec>
    46a4:	04000044 	movi	r16,1
    46a8:	dc000c15 	stw	r16,48(sp)
    46ac:	dc000615 	stw	r16,24(sp)
    46b0:	dc002215 	stw	r16,136(sp)
    46b4:	e0001115 	stw	zero,68(fp)
    46b8:	000b883a 	mov	r5,zero
    46bc:	003c6906 	br	3864 <__alt_mem_VGA_Subsystem_Char_Buf_Subsystem_Onchip_SRAM+0xf7003864>
    46c0:	3021883a 	mov	r16,r6
    46c4:	003ffb06 	br	46b4 <__alt_mem_VGA_Subsystem_Char_Buf_Subsystem_Onchip_SRAM+0xf70046b4>
    46c8:	1000021e 	bne	r2,zero,46d4 <_dtoa_r+0x11e0>
    46cc:	4200004c 	andi	r8,r8,1
    46d0:	403e7d1e 	bne	r8,zero,40c8 <__alt_mem_VGA_Subsystem_Char_Buf_Subsystem_Onchip_SRAM+0xf70040c8>
    46d4:	01000c04 	movi	r4,48
    46d8:	00000106 	br	46e0 <_dtoa_r+0x11ec>
    46dc:	102f883a 	mov	r23,r2
    46e0:	b8bfffc4 	addi	r2,r23,-1
    46e4:	10c00007 	ldb	r3,0(r2)
    46e8:	193ffc26 	beq	r3,r4,46dc <__alt_mem_VGA_Subsystem_Char_Buf_Subsystem_Onchip_SRAM+0xf70046dc>
    46ec:	003e8706 	br	410c <__alt_mem_VGA_Subsystem_Char_Buf_Subsystem_Onchip_SRAM+0xf700410c>
    46f0:	d8800517 	ldw	r2,20(sp)
    46f4:	00a3c83a 	sub	r17,zero,r2
    46f8:	8800a426 	beq	r17,zero,498c <_dtoa_r+0x1498>
    46fc:	888003cc 	andi	r2,r17,15
    4700:	100490fa 	slli	r2,r2,3
    4704:	00c000b4 	movhi	r3,2
    4708:	18e80304 	addi	r3,r3,-24564
    470c:	1885883a 	add	r2,r3,r2
    4710:	11800017 	ldw	r6,0(r2)
    4714:	11c00117 	ldw	r7,4(r2)
    4718:	9009883a 	mov	r4,r18
    471c:	980b883a 	mov	r5,r19
    4720:	8823d13a 	srai	r17,r17,4
    4724:	000c39c0 	call	c39c <__muldf3>
    4728:	d8800f15 	stw	r2,60(sp)
    472c:	d8c01015 	stw	r3,64(sp)
    4730:	8800e826 	beq	r17,zero,4ad4 <_dtoa_r+0x15e0>
    4734:	050000b4 	movhi	r20,2
    4738:	a527f904 	addi	r20,r20,-24604
    473c:	04000084 	movi	r16,2
    4740:	8980004c 	andi	r6,r17,1
    4744:	1009883a 	mov	r4,r2
    4748:	8823d07a 	srai	r17,r17,1
    474c:	180b883a 	mov	r5,r3
    4750:	30000426 	beq	r6,zero,4764 <_dtoa_r+0x1270>
    4754:	a1800017 	ldw	r6,0(r20)
    4758:	a1c00117 	ldw	r7,4(r20)
    475c:	84000044 	addi	r16,r16,1
    4760:	000c39c0 	call	c39c <__muldf3>
    4764:	a5000204 	addi	r20,r20,8
    4768:	883ff51e 	bne	r17,zero,4740 <__alt_mem_VGA_Subsystem_Char_Buf_Subsystem_Onchip_SRAM+0xf7004740>
    476c:	d8800f15 	stw	r2,60(sp)
    4770:	d8c01015 	stw	r3,64(sp)
    4774:	003c7606 	br	3950 <__alt_mem_VGA_Subsystem_Char_Buf_Subsystem_Onchip_SRAM+0xf7003950>
    4778:	00c00c04 	movi	r3,48
    477c:	10c00005 	stb	r3,0(r2)
    4780:	d8c00517 	ldw	r3,20(sp)
    4784:	bd3fffc3 	ldbu	r20,-1(r23)
    4788:	18c00044 	addi	r3,r3,1
    478c:	d8c00515 	stw	r3,20(sp)
    4790:	003db906 	br	3e78 <__alt_mem_VGA_Subsystem_Char_Buf_Subsystem_Onchip_SRAM+0xf7003e78>
    4794:	89400117 	ldw	r5,4(r17)
    4798:	e009883a 	mov	r4,fp
    479c:	0006b900 	call	6b90 <_Balloc>
    47a0:	89800417 	ldw	r6,16(r17)
    47a4:	89400304 	addi	r5,r17,12
    47a8:	11000304 	addi	r4,r2,12
    47ac:	31800084 	addi	r6,r6,2
    47b0:	318d883a 	add	r6,r6,r6
    47b4:	318d883a 	add	r6,r6,r6
    47b8:	1027883a 	mov	r19,r2
    47bc:	00067c40 	call	67c4 <memcpy>
    47c0:	01800044 	movi	r6,1
    47c4:	980b883a 	mov	r5,r19
    47c8:	e009883a 	mov	r4,fp
    47cc:	00073100 	call	7310 <__lshift>
    47d0:	1029883a 	mov	r20,r2
    47d4:	003ecc06 	br	4308 <__alt_mem_VGA_Subsystem_Char_Buf_Subsystem_Onchip_SRAM+0xf7004308>
    47d8:	00800e44 	movi	r2,57
    47dc:	90809026 	beq	r18,r2,4a20 <_dtoa_r+0x152c>
    47e0:	92000044 	addi	r8,r18,1
    47e4:	003f1f06 	br	4464 <__alt_mem_VGA_Subsystem_Char_Buf_Subsystem_Onchip_SRAM+0xf7004464>
    47e8:	9011883a 	mov	r8,r18
    47ec:	8825883a 	mov	r18,r17
    47f0:	a023883a 	mov	r17,r20
    47f4:	003e2906 	br	409c <__alt_mem_VGA_Subsystem_Char_Buf_Subsystem_Onchip_SRAM+0xf700409c>
    47f8:	002b883a 	mov	r21,zero
    47fc:	0023883a 	mov	r17,zero
    4800:	003f5406 	br	4554 <__alt_mem_VGA_Subsystem_Char_Buf_Subsystem_Onchip_SRAM+0xf7004554>
    4804:	61bfffc4 	addi	r6,r12,-1
    4808:	300490fa 	slli	r2,r6,3
    480c:	00c000b4 	movhi	r3,2
    4810:	18e80304 	addi	r3,r3,-24564
    4814:	1885883a 	add	r2,r3,r2
    4818:	11000017 	ldw	r4,0(r2)
    481c:	11400117 	ldw	r5,4(r2)
    4820:	d8800717 	ldw	r2,28(sp)
    4824:	880f883a 	mov	r7,r17
    4828:	d9801215 	stw	r6,72(sp)
    482c:	800d883a 	mov	r6,r16
    4830:	db001615 	stw	r12,88(sp)
    4834:	15c00044 	addi	r23,r2,1
    4838:	000c39c0 	call	c39c <__muldf3>
    483c:	d9401017 	ldw	r5,64(sp)
    4840:	d9000f17 	ldw	r4,60(sp)
    4844:	d8c01515 	stw	r3,84(sp)
    4848:	d8801415 	stw	r2,80(sp)
    484c:	000d3b00 	call	d3b0 <__fixdfsi>
    4850:	1009883a 	mov	r4,r2
    4854:	1021883a 	mov	r16,r2
    4858:	000d4300 	call	d430 <__floatsidf>
    485c:	d9000f17 	ldw	r4,60(sp)
    4860:	d9401017 	ldw	r5,64(sp)
    4864:	100d883a 	mov	r6,r2
    4868:	180f883a 	mov	r7,r3
    486c:	000cab40 	call	cab4 <__subdf3>
    4870:	1829883a 	mov	r20,r3
    4874:	d8c00717 	ldw	r3,28(sp)
    4878:	84000c04 	addi	r16,r16,48
    487c:	1023883a 	mov	r17,r2
    4880:	1c000005 	stb	r16,0(r3)
    4884:	db001617 	ldw	r12,88(sp)
    4888:	00800044 	movi	r2,1
    488c:	60802226 	beq	r12,r2,4918 <_dtoa_r+0x1424>
    4890:	d9c00717 	ldw	r7,28(sp)
    4894:	8805883a 	mov	r2,r17
    4898:	b82b883a 	mov	r21,r23
    489c:	3b19883a 	add	r12,r7,r12
    48a0:	6023883a 	mov	r17,r12
    48a4:	a007883a 	mov	r3,r20
    48a8:	dc800f15 	stw	r18,60(sp)
    48ac:	000d883a 	mov	r6,zero
    48b0:	01d00934 	movhi	r7,16420
    48b4:	1009883a 	mov	r4,r2
    48b8:	180b883a 	mov	r5,r3
    48bc:	000c39c0 	call	c39c <__muldf3>
    48c0:	180b883a 	mov	r5,r3
    48c4:	1009883a 	mov	r4,r2
    48c8:	1829883a 	mov	r20,r3
    48cc:	1025883a 	mov	r18,r2
    48d0:	000d3b00 	call	d3b0 <__fixdfsi>
    48d4:	1009883a 	mov	r4,r2
    48d8:	1021883a 	mov	r16,r2
    48dc:	000d4300 	call	d430 <__floatsidf>
    48e0:	100d883a 	mov	r6,r2
    48e4:	180f883a 	mov	r7,r3
    48e8:	9009883a 	mov	r4,r18
    48ec:	a00b883a 	mov	r5,r20
    48f0:	84000c04 	addi	r16,r16,48
    48f4:	000cab40 	call	cab4 <__subdf3>
    48f8:	ad400044 	addi	r21,r21,1
    48fc:	ac3fffc5 	stb	r16,-1(r21)
    4900:	ac7fea1e 	bne	r21,r17,48ac <__alt_mem_VGA_Subsystem_Char_Buf_Subsystem_Onchip_SRAM+0xf70048ac>
    4904:	1023883a 	mov	r17,r2
    4908:	d8801217 	ldw	r2,72(sp)
    490c:	dc800f17 	ldw	r18,60(sp)
    4910:	1829883a 	mov	r20,r3
    4914:	b8af883a 	add	r23,r23,r2
    4918:	d9001417 	ldw	r4,80(sp)
    491c:	d9401517 	ldw	r5,84(sp)
    4920:	000d883a 	mov	r6,zero
    4924:	01cff834 	movhi	r7,16352
    4928:	000afb00 	call	afb0 <__adddf3>
    492c:	880d883a 	mov	r6,r17
    4930:	a00f883a 	mov	r7,r20
    4934:	1009883a 	mov	r4,r2
    4938:	180b883a 	mov	r5,r3
    493c:	000c2a80 	call	c2a8 <__ledf2>
    4940:	10003e0e 	bge	r2,zero,4a3c <_dtoa_r+0x1548>
    4944:	d9001317 	ldw	r4,76(sp)
    4948:	bd3fffc3 	ldbu	r20,-1(r23)
    494c:	d9000515 	stw	r4,20(sp)
    4950:	003d3b06 	br	3e40 <__alt_mem_VGA_Subsystem_Char_Buf_Subsystem_Onchip_SRAM+0xf7003e40>
    4954:	0027883a 	mov	r19,zero
    4958:	003f1b06 	br	45c8 <__alt_mem_VGA_Subsystem_Char_Buf_Subsystem_Onchip_SRAM+0xf70045c8>
    495c:	d8800817 	ldw	r2,32(sp)
    4960:	11e9c83a 	sub	r20,r2,r7
    4964:	0005883a 	mov	r2,zero
    4968:	003d5406 	br	3ebc <__alt_mem_VGA_Subsystem_Char_Buf_Subsystem_Onchip_SRAM+0xf7003ebc>
    496c:	00800044 	movi	r2,1
    4970:	003dc706 	br	4090 <__alt_mem_VGA_Subsystem_Char_Buf_Subsystem_Onchip_SRAM+0xf7004090>
    4974:	d8c00217 	ldw	r3,8(sp)
    4978:	00800d84 	movi	r2,54
    497c:	dd400a17 	ldw	r21,40(sp)
    4980:	10c5c83a 	sub	r2,r2,r3
    4984:	dd000817 	ldw	r20,32(sp)
    4988:	003d4c06 	br	3ebc <__alt_mem_VGA_Subsystem_Char_Buf_Subsystem_Onchip_SRAM+0xf7003ebc>
    498c:	dc800f15 	stw	r18,60(sp)
    4990:	dcc01015 	stw	r19,64(sp)
    4994:	04000084 	movi	r16,2
    4998:	003bed06 	br	3950 <__alt_mem_VGA_Subsystem_Char_Buf_Subsystem_Onchip_SRAM+0xf7003950>
    499c:	d9000617 	ldw	r4,24(sp)
    49a0:	203f0d26 	beq	r4,zero,45d8 <__alt_mem_VGA_Subsystem_Char_Buf_Subsystem_Onchip_SRAM+0xf70045d8>
    49a4:	d9800c17 	ldw	r6,48(sp)
    49a8:	01bcab0e 	bge	zero,r6,3c58 <__alt_mem_VGA_Subsystem_Char_Buf_Subsystem_Onchip_SRAM+0xf7003c58>
    49ac:	d9401017 	ldw	r5,64(sp)
    49b0:	d9000f17 	ldw	r4,60(sp)
    49b4:	000d883a 	mov	r6,zero
    49b8:	01d00934 	movhi	r7,16420
    49bc:	000c39c0 	call	c39c <__muldf3>
    49c0:	81000044 	addi	r4,r16,1
    49c4:	d8800f15 	stw	r2,60(sp)
    49c8:	d8c01015 	stw	r3,64(sp)
    49cc:	000d4300 	call	d430 <__floatsidf>
    49d0:	d9800f17 	ldw	r6,60(sp)
    49d4:	d9c01017 	ldw	r7,64(sp)
    49d8:	1009883a 	mov	r4,r2
    49dc:	180b883a 	mov	r5,r3
    49e0:	000c39c0 	call	c39c <__muldf3>
    49e4:	01d00734 	movhi	r7,16412
    49e8:	000d883a 	mov	r6,zero
    49ec:	1009883a 	mov	r4,r2
    49f0:	180b883a 	mov	r5,r3
    49f4:	000afb00 	call	afb0 <__adddf3>
    49f8:	d9c00517 	ldw	r7,20(sp)
    49fc:	047f3034 	movhi	r17,64704
    4a00:	1021883a 	mov	r16,r2
    4a04:	39ffffc4 	addi	r7,r7,-1
    4a08:	d9c01315 	stw	r7,76(sp)
    4a0c:	1c63883a 	add	r17,r3,r17
    4a10:	db000c17 	ldw	r12,48(sp)
    4a14:	003bea06 	br	39c0 <__alt_mem_VGA_Subsystem_Char_Buf_Subsystem_Onchip_SRAM+0xf70039c0>
    4a18:	dc000915 	stw	r16,36(sp)
    4a1c:	003e0e06 	br	4258 <__alt_mem_VGA_Subsystem_Char_Buf_Subsystem_Onchip_SRAM+0xf7004258>
    4a20:	01000e44 	movi	r4,57
    4a24:	8825883a 	mov	r18,r17
    4a28:	9dc00044 	addi	r23,r19,1
    4a2c:	99000005 	stb	r4,0(r19)
    4a30:	a023883a 	mov	r17,r20
    4a34:	dc000915 	stw	r16,36(sp)
    4a38:	003da406 	br	40cc <__alt_mem_VGA_Subsystem_Char_Buf_Subsystem_Onchip_SRAM+0xf70040cc>
    4a3c:	d9801417 	ldw	r6,80(sp)
    4a40:	d9c01517 	ldw	r7,84(sp)
    4a44:	0009883a 	mov	r4,zero
    4a48:	014ff834 	movhi	r5,16352
    4a4c:	000cab40 	call	cab4 <__subdf3>
    4a50:	880d883a 	mov	r6,r17
    4a54:	a00f883a 	mov	r7,r20
    4a58:	1009883a 	mov	r4,r2
    4a5c:	180b883a 	mov	r5,r3
    4a60:	000c1cc0 	call	c1cc <__gedf2>
    4a64:	00bc7c0e 	bge	zero,r2,3c58 <__alt_mem_VGA_Subsystem_Char_Buf_Subsystem_Onchip_SRAM+0xf7003c58>
    4a68:	01000c04 	movi	r4,48
    4a6c:	00000106 	br	4a74 <_dtoa_r+0x1580>
    4a70:	102f883a 	mov	r23,r2
    4a74:	b8bfffc4 	addi	r2,r23,-1
    4a78:	10c00007 	ldb	r3,0(r2)
    4a7c:	193ffc26 	beq	r3,r4,4a70 <__alt_mem_VGA_Subsystem_Char_Buf_Subsystem_Onchip_SRAM+0xf7004a70>
    4a80:	d9801317 	ldw	r6,76(sp)
    4a84:	d9800515 	stw	r6,20(sp)
    4a88:	003c4406 	br	3b9c <__alt_mem_VGA_Subsystem_Char_Buf_Subsystem_Onchip_SRAM+0xf7003b9c>
    4a8c:	d9801317 	ldw	r6,76(sp)
    4a90:	d9800515 	stw	r6,20(sp)
    4a94:	003cea06 	br	3e40 <__alt_mem_VGA_Subsystem_Char_Buf_Subsystem_Onchip_SRAM+0xf7003e40>
    4a98:	dd800f17 	ldw	r22,60(sp)
    4a9c:	dcc01017 	ldw	r19,64(sp)
    4aa0:	dc801217 	ldw	r18,72(sp)
    4aa4:	003c6c06 	br	3c58 <__alt_mem_VGA_Subsystem_Char_Buf_Subsystem_Onchip_SRAM+0xf7003c58>
    4aa8:	903e031e 	bne	r18,zero,42b8 <__alt_mem_VGA_Subsystem_Char_Buf_Subsystem_Onchip_SRAM+0xf70042b8>
    4aac:	003ebb06 	br	459c <__alt_mem_VGA_Subsystem_Char_Buf_Subsystem_Onchip_SRAM+0xf700459c>
    4ab0:	103e6c1e 	bne	r2,zero,4464 <__alt_mem_VGA_Subsystem_Char_Buf_Subsystem_Onchip_SRAM+0xf7004464>
    4ab4:	4080004c 	andi	r2,r8,1
    4ab8:	103e6a26 	beq	r2,zero,4464 <__alt_mem_VGA_Subsystem_Char_Buf_Subsystem_Onchip_SRAM+0xf7004464>
    4abc:	003e6606 	br	4458 <__alt_mem_VGA_Subsystem_Char_Buf_Subsystem_Onchip_SRAM+0xf7004458>
    4ac0:	d8c00317 	ldw	r3,12(sp)
    4ac4:	00800084 	movi	r2,2
    4ac8:	10c02916 	blt	r2,r3,4b70 <_dtoa_r+0x167c>
    4acc:	d9000c17 	ldw	r4,48(sp)
    4ad0:	003e8806 	br	44f4 <__alt_mem_VGA_Subsystem_Char_Buf_Subsystem_Onchip_SRAM+0xf70044f4>
    4ad4:	04000084 	movi	r16,2
    4ad8:	003b9d06 	br	3950 <__alt_mem_VGA_Subsystem_Char_Buf_Subsystem_Onchip_SRAM+0xf7003950>
    4adc:	d9001317 	ldw	r4,76(sp)
    4ae0:	d9000515 	stw	r4,20(sp)
